
C:/ECE243/project/flappy_bird_project/project/gameOver.axf:     file format elf32-littlearm


Disassembly of section .text:

00000000 <__cs3_interrupt_vector>:
       0:	18 f0 9f e5 18 f0 9f e5 18 f0 9f e5 18 f0 9f e5     ................
      10:	18 f0 9f e5 18 f0 9f e5 18 f0 9f e5 18 f0 9f e5     ................
      20:	2c 0e 00 00 30 0e 00 00 34 0e 00 00 38 0e 00 00     ,...0...4...8...
      30:	3c 0e 00 00 10 15 00 00 f0 0e 00 00 40 0e 00 00     <...........@...

00000040 <__cs3_reset_generic>:
      40:	ea000026 	b	e0 <__cs3_start_asm_sim>

00000044 <__cs3_start_c>:
      44:	e59f608c 	ldr	r6, [pc, #140]	; d8 <__cs3_start_c+0x94>
      48:	e3560000 	cmp	r6, #0
      4c:	e92d4080 	push	{r7, lr}
      50:	e2466001 	sub	r6, r6, #1
      54:	0a00001e 	beq	d4 <__cs3_start_c+0x90>
      58:	e59f507c 	ldr	r5, [pc, #124]	; dc <__cs3_start_c+0x98>
      5c:	e3a00000 	mov	r0, #0
      60:	e3a01000 	mov	r1, #0
      64:	e515200c 	ldr	r2, [r5, #-12]
      68:	e515e010 	ldr	lr, [r5, #-16]
      6c:	e5154008 	ldr	r4, [r5, #-8]
      70:	e15e0002 	cmp	lr, r2
      74:	00822004 	addeq	r2, r2, r4
      78:	0a000009 	beq	a4 <__cs3_start_c+0x60>
      7c:	e3540000 	cmp	r4, #0
      80:	0a000007 	beq	a4 <__cs3_start_c+0x60>
      84:	e1a07002 	mov	r7, r2
      88:	e1a0c002 	mov	r12, r2
      8c:	e8be000c 	ldm	lr!, {r2, r3}
      90:	e8ac000c 	stmia	r12!, {r2, r3}
      94:	e067300c 	rsb	r3, r7, r12
      98:	e1540003 	cmp	r4, r3
      9c:	e1a0200c 	mov	r2, r12
      a0:	1afffff9 	bne	8c <__cs3_start_c+0x48>
      a4:	e515e004 	ldr	lr, [r5, #-4]
      a8:	e35e0000 	cmp	lr, #0
      ac:	11a03002 	movne	r3, r2
      b0:	0a000003 	beq	c4 <__cs3_start_c+0x80>
      b4:	e8a30003 	stmia	r3!, {r0, r1}
      b8:	e062c003 	rsb	r12, r2, r3
      bc:	e15e000c 	cmp	lr, r12
      c0:	1afffffb 	bne	b4 <__cs3_start_c+0x70>
      c4:	e2466001 	sub	r6, r6, #1
      c8:	e3760001 	cmn	r6, #1
      cc:	e2855014 	add	r5, r5, #20
      d0:	1affffe3 	bne	64 <__cs3_start_c+0x20>
      d4:	eb0004f4 	bl	14ac <__cs3_premain>
      d8:	00000001 	.word	0x00000001
      dc:	0004c910 	.word	0x0004c910

000000e0 <__cs3_start_asm_sim>:
      e0:	e28f103c 	add	r1, pc, #60	; 0x3c
      e4:	e3a00016 	mov	r0, #22
      e8:	ef123456 	svc	0x00123456
      ec:	e3500000 	cmp	r0, #0
      f0:	ba000008 	blt	118 <__cs3_region_zero_size_ram+0x8>
      f4:	e59f2028 	ldr	r2, [pc, #40]	; 124 <__cs3_heap_start_ptr>
      f8:	e59fd01c 	ldr	sp, [pc, #28]	; 11c <__cs3_region_zero_size_ram+0xc>
      fc:	e5920008 	ldr	r0, [r2, #8]
     100:	e3500000 	cmp	r0, #0
     104:	11a0d000 	movne	sp, r0
     108:	e59f1010 	ldr	r1, [pc, #16]	; 120 <__cs3_region_zero_size_ram+0x10>
     10c:	e5920004 	ldr	r0, [r2, #4]
     110:	e3500000 	cmp	r0, #0
     114:	15810000 	strne	r0, [r1]
     118:	eaffffc9 	b	44 <__cs3_start_c>
     11c:	3ffffff8 	.word	0x3ffffff8
     120:	0004cd50 	.word	0x0004cd50

00000124 <__cs3_heap_start_ptr>:
     124:	0004ce68 	.word	0x0004ce68

00000128 <_start>:
     128:	e51fd000 	ldr	sp, [pc, #-0]	; 130 <_start+0x8>
     12c:	eaffffc4 	b	44 <__cs3_start_c>
     130:	3ffffff8 	.word	0x3ffffff8

00000134 <deregister_tm_clones>:
     134:	e92d4008 	push	{r3, lr}
     138:	e59f002c 	ldr	r0, [pc, #44]	; 16c <deregister_tm_clones+0x38>
     13c:	e59f302c 	ldr	r3, [pc, #44]	; 170 <deregister_tm_clones+0x3c>
     140:	e0603003 	rsb	r3, r0, r3
     144:	e3530006 	cmp	r3, #6
     148:	8a000001 	bhi	154 <deregister_tm_clones+0x20>
     14c:	e8bd4008 	pop	{r3, lr}
     150:	e12fff1e 	bx	lr
     154:	e59f3018 	ldr	r3, [pc, #24]	; 174 <deregister_tm_clones+0x40>
     158:	e3530000 	cmp	r3, #0
     15c:	0afffffa 	beq	14c <deregister_tm_clones+0x18>
     160:	e1a0e00f 	mov	lr, pc
     164:	e12fff13 	bx	r3
     168:	eafffff7 	b	14c <deregister_tm_clones+0x18>
     16c:	0004cd58 	.word	0x0004cd58
     170:	0004cd5b 	.word	0x0004cd5b
     174:	00000000 	.word	0x00000000

00000178 <register_tm_clones>:
     178:	e92d4008 	push	{r3, lr}
     17c:	e59f0034 	ldr	r0, [pc, #52]	; 1b8 <register_tm_clones+0x40>
     180:	e59f3034 	ldr	r3, [pc, #52]	; 1bc <register_tm_clones+0x44>
     184:	e0603003 	rsb	r3, r0, r3
     188:	e1a03143 	asr	r3, r3, #2
     18c:	e0833fa3 	add	r3, r3, r3, lsr #31
     190:	e1b010c3 	asrs	r1, r3, #1
     194:	1a000001 	bne	1a0 <register_tm_clones+0x28>
     198:	e8bd4008 	pop	{r3, lr}
     19c:	e12fff1e 	bx	lr
     1a0:	e59f2018 	ldr	r2, [pc, #24]	; 1c0 <register_tm_clones+0x48>
     1a4:	e3520000 	cmp	r2, #0
     1a8:	0afffffa 	beq	198 <register_tm_clones+0x20>
     1ac:	e1a0e00f 	mov	lr, pc
     1b0:	e12fff12 	bx	r2
     1b4:	eafffff7 	b	198 <register_tm_clones+0x20>
     1b8:	0004cd58 	.word	0x0004cd58
     1bc:	0004cd58 	.word	0x0004cd58
     1c0:	00000000 	.word	0x00000000

000001c4 <__do_global_dtors_aux>:
     1c4:	e92d4010 	push	{r4, lr}
     1c8:	e59f402c 	ldr	r4, [pc, #44]	; 1fc <__do_global_dtors_aux+0x38>
     1cc:	e5d43000 	ldrb	r3, [r4]
     1d0:	e3530000 	cmp	r3, #0
     1d4:	1a000006 	bne	1f4 <__do_global_dtors_aux+0x30>
     1d8:	ebffffd5 	bl	134 <deregister_tm_clones>
     1dc:	e59f301c 	ldr	r3, [pc, #28]	; 200 <__do_global_dtors_aux+0x3c>
     1e0:	e3530000 	cmp	r3, #0
     1e4:	159f0018 	ldrne	r0, [pc, #24]	; 204 <__do_global_dtors_aux+0x40>
     1e8:	1320f000 	nopne	{0}
     1ec:	e3a03001 	mov	r3, #1
     1f0:	e5c43000 	strb	r3, [r4]
     1f4:	e8bd4010 	pop	{r4, lr}
     1f8:	e12fff1e 	bx	lr
     1fc:	0004cd58 	.word	0x0004cd58
     200:	00000000 	.word	0x00000000
     204:	0000159c 	.word	0x0000159c

00000208 <frame_dummy>:
     208:	e92d4008 	push	{r3, lr}
     20c:	e59f3034 	ldr	r3, [pc, #52]	; 248 <frame_dummy+0x40>
     210:	e3530000 	cmp	r3, #0
     214:	159f0030 	ldrne	r0, [pc, #48]	; 24c <frame_dummy+0x44>
     218:	159f1030 	ldrne	r1, [pc, #48]	; 250 <frame_dummy+0x48>
     21c:	1320f000 	nopne	{0}
     220:	e59f002c 	ldr	r0, [pc, #44]	; 254 <frame_dummy+0x4c>
     224:	e5903000 	ldr	r3, [r0]
     228:	e3530000 	cmp	r3, #0
     22c:	0a000003 	beq	240 <frame_dummy+0x38>
     230:	e59f3020 	ldr	r3, [pc, #32]	; 258 <frame_dummy+0x50>
     234:	e3530000 	cmp	r3, #0
     238:	11a0e00f 	movne	lr, pc
     23c:	112fff13 	bxne	r3
     240:	e8bd4008 	pop	{r3, lr}
     244:	eaffffcb 	b	178 <register_tm_clones>
     248:	00000000 	.word	0x00000000
     24c:	0000159c 	.word	0x0000159c
     250:	0004cd5c 	.word	0x0004cd5c
     254:	0004c910 	.word	0x0004c910
     258:	00000000 	.word	0x00000000

0000025c <checkKeyPress>:
}

void checkKeyPress()
{

    if (*PUSHBUTTONS == 0b0001 || *PUSHBUTTONS == 0b1101)
     25c:	e3a03000 	mov	r3, #0
     260:	e34f3f20 	movt	r3, #65312	; 0xff20
     264:	e5933050 	ldr	r3, [r3, #80]	; 0x50
     268:	e3530001 	cmp	r3, #1
     26c:	0a000004 	beq	284 <checkKeyPress+0x28>
     270:	e3a03000 	mov	r3, #0
     274:	e34f3f20 	movt	r3, #65312	; 0xff20
     278:	e5933050 	ldr	r3, [r3, #80]	; 0x50
     27c:	e353000d 	cmp	r3, #13
     280:	1a000006 	bne	2a0 <checkKeyPress+0x44>
    {
        Ship1dy = 0;
     284:	e30c3d74 	movw	r3, #52596	; 0xcd74
     288:	e3403004 	movt	r3, #4
     28c:	e3a02000 	mov	r2, #0
     290:	e5832000 	str	r2, [r3]
        Ship2dy = 1;
     294:	e3a02001 	mov	r2, #1
     298:	e5832004 	str	r2, [r3, #4]
     29c:	e12fff1e 	bx	lr
    }
    else if (*PUSHBUTTONS == 0b0010 || *PUSHBUTTONS == 0b1110)
     2a0:	e3a03000 	mov	r3, #0
     2a4:	e34f3f20 	movt	r3, #65312	; 0xff20
     2a8:	e5933050 	ldr	r3, [r3, #80]	; 0x50
     2ac:	e3530002 	cmp	r3, #2
     2b0:	0a000004 	beq	2c8 <checkKeyPress+0x6c>
     2b4:	e3a03000 	mov	r3, #0
     2b8:	e34f3f20 	movt	r3, #65312	; 0xff20
     2bc:	e5933050 	ldr	r3, [r3, #80]	; 0x50
     2c0:	e353000e 	cmp	r3, #14
     2c4:	1a000006 	bne	2e4 <checkKeyPress+0x88>
    {
        Ship1dy = 0;
     2c8:	e30c3d74 	movw	r3, #52596	; 0xcd74
     2cc:	e3403004 	movt	r3, #4
     2d0:	e3a02000 	mov	r2, #0
     2d4:	e5832000 	str	r2, [r3]
        Ship2dy = -1;
     2d8:	e3e02000 	mvn	r2, #0
     2dc:	e5832004 	str	r2, [r3, #4]
     2e0:	e12fff1e 	bx	lr
    }
    else if (*PUSHBUTTONS == 0b0100 || *PUSHBUTTONS == 0b0111)
     2e4:	e3a03000 	mov	r3, #0
     2e8:	e34f3f20 	movt	r3, #65312	; 0xff20
     2ec:	e5933050 	ldr	r3, [r3, #80]	; 0x50
     2f0:	e3530004 	cmp	r3, #4
     2f4:	0a000004 	beq	30c <checkKeyPress+0xb0>
     2f8:	e3a03000 	mov	r3, #0
     2fc:	e34f3f20 	movt	r3, #65312	; 0xff20
     300:	e5933050 	ldr	r3, [r3, #80]	; 0x50
     304:	e3530007 	cmp	r3, #7
     308:	1a000006 	bne	328 <checkKeyPress+0xcc>
    {
        Ship2dy = 0;
     30c:	e30c3d74 	movw	r3, #52596	; 0xcd74
     310:	e3403004 	movt	r3, #4
     314:	e3a02000 	mov	r2, #0
     318:	e5832004 	str	r2, [r3, #4]
        Ship1dy = 1;
     31c:	e3a02001 	mov	r2, #1
     320:	e5832000 	str	r2, [r3]
     324:	e12fff1e 	bx	lr
    }
    else if (*PUSHBUTTONS == 0b1000 || *PUSHBUTTONS == 0b1011)
     328:	e3a03000 	mov	r3, #0
     32c:	e34f3f20 	movt	r3, #65312	; 0xff20
     330:	e5933050 	ldr	r3, [r3, #80]	; 0x50
     334:	e3530008 	cmp	r3, #8
     338:	0a000004 	beq	350 <checkKeyPress+0xf4>
     33c:	e3a03000 	mov	r3, #0
     340:	e34f3f20 	movt	r3, #65312	; 0xff20
     344:	e5933050 	ldr	r3, [r3, #80]	; 0x50
     348:	e353000b 	cmp	r3, #11
     34c:	1a000006 	bne	36c <checkKeyPress+0x110>
    {
        Ship2dy = 0;
     350:	e30c3d74 	movw	r3, #52596	; 0xcd74
     354:	e3403004 	movt	r3, #4
     358:	e3a02000 	mov	r2, #0
     35c:	e5832004 	str	r2, [r3, #4]
        Ship1dy = -1;
     360:	e3e02000 	mvn	r2, #0
     364:	e5832000 	str	r2, [r3]
     368:	e12fff1e 	bx	lr
    }
    else if (*PUSHBUTTONS == 0b1001)
     36c:	e3a03000 	mov	r3, #0
     370:	e34f3f20 	movt	r3, #65312	; 0xff20
     374:	e5933050 	ldr	r3, [r3, #80]	; 0x50
     378:	e3530009 	cmp	r3, #9
     37c:	1a000006 	bne	39c <checkKeyPress+0x140>
    {
        Ship2dy = 1;
     380:	e30c3d74 	movw	r3, #52596	; 0xcd74
     384:	e3403004 	movt	r3, #4
     388:	e3a02001 	mov	r2, #1
     38c:	e5832004 	str	r2, [r3, #4]
        Ship1dy = -1;
     390:	e3e02000 	mvn	r2, #0
     394:	e5832000 	str	r2, [r3]
     398:	e12fff1e 	bx	lr
    }
    else if (*PUSHBUTTONS == 0b0110)
     39c:	e3a03000 	mov	r3, #0
     3a0:	e34f3f20 	movt	r3, #65312	; 0xff20
     3a4:	e5933050 	ldr	r3, [r3, #80]	; 0x50
     3a8:	e3530006 	cmp	r3, #6
     3ac:	1a000006 	bne	3cc <checkKeyPress+0x170>
    {
        Ship1dy = 1;
     3b0:	e30c3d74 	movw	r3, #52596	; 0xcd74
     3b4:	e3403004 	movt	r3, #4
     3b8:	e3a02001 	mov	r2, #1
     3bc:	e5832000 	str	r2, [r3]
        Ship2dy = -1;
     3c0:	e3e02000 	mvn	r2, #0
     3c4:	e5832004 	str	r2, [r3, #4]
     3c8:	e12fff1e 	bx	lr
    }
    else if (*PUSHBUTTONS == 0b0101)
     3cc:	e3a03000 	mov	r3, #0
     3d0:	e34f3f20 	movt	r3, #65312	; 0xff20
     3d4:	e5933050 	ldr	r3, [r3, #80]	; 0x50
     3d8:	e3530005 	cmp	r3, #5
     3dc:	1a000005 	bne	3f8 <checkKeyPress+0x19c>
    {
        Ship1dy = 1;
     3e0:	e30c3d74 	movw	r3, #52596	; 0xcd74
     3e4:	e3403004 	movt	r3, #4
     3e8:	e3a02001 	mov	r2, #1
     3ec:	e5832000 	str	r2, [r3]
        Ship2dy = 1;
     3f0:	e5832004 	str	r2, [r3, #4]
     3f4:	e12fff1e 	bx	lr
    }
    else if (*PUSHBUTTONS == 0b1010)
     3f8:	e3a03000 	mov	r3, #0
     3fc:	e34f3f20 	movt	r3, #65312	; 0xff20
     400:	e5933050 	ldr	r3, [r3, #80]	; 0x50
     404:	e353000a 	cmp	r3, #10
    {
        Ship1dy = -1;
     408:	e30c3d74 	movw	r3, #52596	; 0xcd74
     40c:	e3403004 	movt	r3, #4
     410:	03e02000 	mvneq	r2, #0
        Ship2dy = -1;
    }
    else
    {
        Ship1dy = 0;
     414:	13a02000 	movne	r2, #0
     418:	e5832000 	str	r2, [r3]
        Ship2dy = 0;
     41c:	e5832004 	str	r2, [r3, #4]
     420:	e12fff1e 	bx	lr

00000424 <initialize>:
        }
    }
}

void initialize()
{
     424:	e92d47f0 	push	{r4, r5, r6, r7, r8, r9, r10, lr}
     428:	e59f410c 	ldr	r4, [pc, #268]	; 53c <initialize+0x118>
     42c:	e3a05000 	mov	r5, #0
    // initialize location and direction of rectangles(not shown)
    for (int i = 0; i < numAsteroids; i++)
    {
        // initialize direction
        Asteroids[i].dx = 3 * (((rand() % 2) * 2) - 1); // 1 or -1
        Asteroids[i].dy = 0;
     430:	e1a09005 	mov	r9, r5

        // initialize x and y positions
        Asteroids[i].x = rand() % 319;
     434:	e30479d5 	movw	r7, #18901	; 0x49d5
     438:	e343735c 	movt	r7, #13148	; 0x335c
        Asteroids[i].y = rand() % 239;
     43c:	e30c673b 	movw	r6, #51003	; 0xc73b
     440:	e348691a 	movt	r6, #35098	; 0x891a
        ONCHIP[i].x = Asteroids[i].x;
     444:	e30c8d74 	movw	r8, #52596	; 0xcd74
     448:	e3408004 	movt	r8, #4
     44c:	e288a058 	add	r10, r8, #88	; 0x58
        ONCHIP[i].y = Asteroids[i].y;
        SDRAM[i].x = Asteroids[i].x;
     450:	e2888080 	add	r8, r8, #128	; 0x80
    // declare other variables(not shown)
    // initialize location and direction of rectangles(not shown)
    for (int i = 0; i < numAsteroids; i++)
    {
        // initialize direction
        Asteroids[i].dx = 3 * (((rand() % 2) * 2) - 1); // 1 or -1
     454:	eb000347 	bl	1178 <rand>
     458:	e0803fa0 	add	r3, r0, r0, lsr #31
     45c:	e2033001 	and	r3, r3, #1
     460:	e0430fa0 	sub	r0, r3, r0, lsr #31
     464:	e0800080 	add	r0, r0, r0, lsl #1
     468:	e1a00080 	lsl	r0, r0, #1
     46c:	e2400003 	sub	r0, r0, #3
     470:	e5840000 	str	r0, [r4]
        Asteroids[i].dy = 0;
     474:	e5849004 	str	r9, [r4, #4]

        // initialize x and y positions
        Asteroids[i].x = rand() % 319;
     478:	eb00033e 	bl	1178 <rand>
     47c:	e0c23097 	smull	r3, r2, r7, r0
     480:	e1a03fc0 	asr	r3, r0, #31
     484:	e0633342 	rsb	r3, r3, r2, asr #6
     488:	e0832103 	add	r2, r3, r3, lsl #2
     48c:	e0633302 	rsb	r3, r3, r2, lsl #6
     490:	e0630000 	rsb	r0, r3, r0
     494:	e5040008 	str	r0, [r4, #-8]
        Asteroids[i].y = rand() % 239;
     498:	eb000336 	bl	1178 <rand>
     49c:	e0c32096 	smull	r2, r3, r6, r0
     4a0:	e0833000 	add	r3, r3, r0
     4a4:	e1a02fc0 	asr	r2, r0, #31
     4a8:	e06233c3 	rsb	r3, r2, r3, asr #7
     4ac:	e0632203 	rsb	r2, r3, r3, lsl #4
     4b0:	e0633202 	rsb	r3, r3, r2, lsl #4
     4b4:	e0633000 	rsb	r3, r3, r0
     4b8:	e5043004 	str	r3, [r4, #-4]
        ONCHIP[i].x = Asteroids[i].x;
     4bc:	e5141008 	ldr	r1, [r4, #-8]
     4c0:	e1a0200a 	mov	r2, r10
     4c4:	e7a21005 	str	r1, [r2, r5]!
        ONCHIP[i].y = Asteroids[i].y;
     4c8:	e5823004 	str	r3, [r2, #4]
        SDRAM[i].x = Asteroids[i].x;
     4cc:	e1a02008 	mov	r2, r8
     4d0:	e7a21005 	str	r1, [r2, r5]!
        SDRAM[i].y = Asteroids[i].y;
     4d4:	e5823004 	str	r3, [r2, #4]
     4d8:	e2844010 	add	r4, r4, #16
     4dc:	e2855008 	add	r5, r5, #8
void initialize()
{
    // initialize
    // declare other variables(not shown)
    // initialize location and direction of rectangles(not shown)
    for (int i = 0; i < numAsteroids; i++)
     4e0:	e3550028 	cmp	r5, #40	; 0x28
     4e4:	1affffda 	bne	454 <initialize+0x30>
        ONCHIP[i].y = Asteroids[i].y;
        SDRAM[i].x = Asteroids[i].x;
        SDRAM[i].y = Asteroids[i].y;
    }

    Ship1.x = 319 / 4 - shipWidth / 2;
     4e8:	e30c3d74 	movw	r3, #52596	; 0xcd74
     4ec:	e3403004 	movt	r3, #4
     4f0:	e3a0104a 	mov	r1, #74	; 0x4a
     4f4:	e58310a8 	str	r1, [r3, #168]	; 0xa8
    Ship1.y = 239 - shipLength - 1;
     4f8:	e3a020d9 	mov	r2, #217	; 0xd9
     4fc:	e58320ac 	str	r2, [r3, #172]	; 0xac
    Ship1dy = 0; // initialize ship1dy
     500:	e3a00000 	mov	r0, #0
     504:	e5830000 	str	r0, [r3]

    Ship1SDRAM.x = 319 / 4 - shipWidth / 2;
     508:	e58310b8 	str	r1, [r3, #184]	; 0xb8
    Ship1SDRAM.y = 239 - shipLength - 1;
     50c:	e58320bc 	str	r2, [r3, #188]	; 0xbc

    Ship1ONCHIP.x = 319 / 4 - shipWidth / 2;
     510:	e58310c0 	str	r1, [r3, #192]	; 0xc0
    Ship1ONCHIP.y = 239 - shipLength - 1;
     514:	e58320c4 	str	r2, [r3, #196]	; 0xc4

    Ship2.x = 319 * 3 / 4 - shipWidth / 2;
     518:	e3a010ea 	mov	r1, #234	; 0xea
     51c:	e58310c8 	str	r1, [r3, #200]	; 0xc8
    Ship2.y = 239 - shipLength - 1;
     520:	e58320cc 	str	r2, [r3, #204]	; 0xcc
    Ship2dy = 0; // initialize ship1dy
     524:	e5830004 	str	r0, [r3, #4]

    Ship2SDRAM.x = 319 * 3 / 4 - shipWidth / 2;
     528:	e58310d8 	str	r1, [r3, #216]	; 0xd8
    Ship2SDRAM.y = 239 - shipLength - 1;
     52c:	e58320dc 	str	r2, [r3, #220]	; 0xdc

    Ship2ONCHIP.x = 319 * 3 / 4 - shipWidth / 2;
     530:	e58310e0 	str	r1, [r3, #224]	; 0xe0
    Ship2ONCHIP.y = 239 - shipLength - 1;
     534:	e58320e4 	str	r2, [r3, #228]	; 0xe4
     538:	e8bd87f0 	pop	{r4, r5, r6, r7, r8, r9, r10, pc}
     53c:	0004cd84 	.word	0x0004cd84

00000540 <update>:
    draw_line(x, y + length, x + width, y + length, line_color);
}

// update movement of boxes
void update()
{
     540:	e92d4ff0 	push	{r4, r5, r6, r7, r8, r9, r10, r11, lr}
     544:	e24dd00c 	sub	sp, sp, #12
     548:	e59f62bc 	ldr	r6, [pc, #700]	; 80c <update+0x2cc>
     54c:	e2864008 	add	r4, r6, #8
     550:	e3a07000 	mov	r7, #0
    for (int i = 0; i < numAsteroids; i++)
    {
        // save the position to erase
        if (pixel_buffer_start == 0xC0000000)
     554:	e30c8d74 	movw	r8, #52596	; 0xcd74
     558:	e3408004 	movt	r8, #4
            SDRAM[i].x = Asteroids[i].x;
            SDRAM[i].y = Asteroids[i].y;
        }
        else if (pixel_buffer_start == 0xC8000000)
        {
            ONCHIP[i].x = Asteroids[i].x;
     55c:	e2882058 	add	r2, r8, #88	; 0x58
     560:	e58d2004 	str	r2, [sp, #4]
    for (int i = 0; i < numAsteroids; i++)
    {
        // save the position to erase
        if (pixel_buffer_start == 0xC0000000)
        {
            SDRAM[i].x = Asteroids[i].x;
     564:	e288b080 	add	r11, r8, #128	; 0x80
            ONCHIP[i].x = Asteroids[i].x;
            ONCHIP[i].y = Asteroids[i].y;
        }

        // if reached right side or left side, reverse direction
        if ((Asteroids[i].x) >= 319 || Asteroids[i].x <= 0)
     568:	e300a13d 	movw	r10, #317	; 0x13d
        {
            Asteroids[i].dx *= -1;
            Asteroids[i].y = rand() % 239;
     56c:	e30c973b 	movw	r9, #51003	; 0xc73b
     570:	e348991a 	movt	r9, #35098	; 0x891a
void update()
{
    for (int i = 0; i < numAsteroids; i++)
    {
        // save the position to erase
        if (pixel_buffer_start == 0xC0000000)
     574:	e59830e8 	ldr	r3, [r8, #232]	; 0xe8
     578:	e3530103 	cmp	r3, #-1073741824	; 0xc0000000
     57c:	1a000005 	bne	598 <update+0x58>
        {
            SDRAM[i].x = Asteroids[i].x;
     580:	e5142008 	ldr	r2, [r4, #-8]
     584:	e1a0300b 	mov	r3, r11
     588:	e7a32007 	str	r2, [r3, r7]!
            SDRAM[i].y = Asteroids[i].y;
     58c:	e5142004 	ldr	r2, [r4, #-4]
     590:	e5832004 	str	r2, [r3, #4]
     594:	ea000006 	b	5b4 <update+0x74>
        }
        else if (pixel_buffer_start == 0xC8000000)
     598:	e59830e8 	ldr	r3, [r8, #232]	; 0xe8
     59c:	e3530332 	cmp	r3, #-939524096	; 0xc8000000
        {
            ONCHIP[i].x = Asteroids[i].x;
     5a0:	05142008 	ldreq	r2, [r4, #-8]
     5a4:	059d3004 	ldreq	r3, [sp, #4]
     5a8:	07a32007 	streq	r2, [r3, r7]!
            ONCHIP[i].y = Asteroids[i].y;
     5ac:	05142004 	ldreq	r2, [r4, #-4]
     5b0:	05832004 	streq	r2, [r3, #4]
    draw_line(x + width, y, x + width, y + length, line_color);
    draw_line(x, y + length, x + width, y + length, line_color);
}

// update movement of boxes
void update()
     5b4:	e1a05004 	mov	r5, r4
            ONCHIP[i].x = Asteroids[i].x;
            ONCHIP[i].y = Asteroids[i].y;
        }

        // if reached right side or left side, reverse direction
        if ((Asteroids[i].x) >= 319 || Asteroids[i].x <= 0)
     5b8:	e5143008 	ldr	r3, [r4, #-8]
     5bc:	e2433001 	sub	r3, r3, #1
     5c0:	e153000a 	cmp	r3, r10
     5c4:	9a00000b 	bls	5f8 <update+0xb8>
        {
            Asteroids[i].dx *= -1;
     5c8:	e5963008 	ldr	r3, [r6, #8]
     5cc:	e2633000 	rsb	r3, r3, #0
     5d0:	e5863008 	str	r3, [r6, #8]
            Asteroids[i].y = rand() % 239;
     5d4:	eb0002e7 	bl	1178 <rand>
     5d8:	e0c32099 	smull	r2, r3, r9, r0
     5dc:	e0833000 	add	r3, r3, r0
     5e0:	e1a02fc0 	asr	r2, r0, #31
     5e4:	e06233c3 	rsb	r3, r2, r3, asr #7
     5e8:	e0632203 	rsb	r2, r3, r3, lsl #4
     5ec:	e0633202 	rsb	r3, r3, r2, lsl #4
     5f0:	e0630000 	rsb	r0, r3, r0
     5f4:	e5040004 	str	r0, [r4, #-4]
        }

        // actually move
        Asteroids[i].x = Asteroids[i].x + Asteroids[i].dx;
     5f8:	e5152008 	ldr	r2, [r5, #-8]
     5fc:	e5963008 	ldr	r3, [r6, #8]
     600:	e0823003 	add	r3, r2, r3
     604:	e5053008 	str	r3, [r5, #-8]
        Asteroids[i].y = Asteroids[i].y + Asteroids[i].dy;
     608:	e5152004 	ldr	r2, [r5, #-4]
     60c:	e596300c 	ldr	r3, [r6, #12]
     610:	e0823003 	add	r3, r2, r3
     614:	e5053004 	str	r3, [r5, #-4]
     618:	e2866010 	add	r6, r6, #16
     61c:	e2844010 	add	r4, r4, #16
     620:	e2877008 	add	r7, r7, #8
}

// update movement of boxes
void update()
{
    for (int i = 0; i < numAsteroids; i++)
     624:	e3570028 	cmp	r7, #40	; 0x28
     628:	1affffd1 	bne	574 <update+0x34>
        // actually move
        Asteroids[i].x = Asteroids[i].x + Asteroids[i].dx;
        Asteroids[i].y = Asteroids[i].y + Asteroids[i].dy;
    }
    // update ship
    if (pixel_buffer_start == 0xC0000000)
     62c:	e30c3d74 	movw	r3, #52596	; 0xcd74
     630:	e3403004 	movt	r3, #4
     634:	e59330e8 	ldr	r3, [r3, #232]	; 0xe8
     638:	e3530103 	cmp	r3, #-1073741824	; 0xc0000000
     63c:	1a00000a 	bne	66c <update+0x12c>
    {
        Ship1SDRAM.x = Ship1.x;
     640:	e30c3d74 	movw	r3, #52596	; 0xcd74
     644:	e3403004 	movt	r3, #4
     648:	e59320a8 	ldr	r2, [r3, #168]	; 0xa8
     64c:	e58320b8 	str	r2, [r3, #184]	; 0xb8
        Ship1SDRAM.y = Ship1.y;
     650:	e59320ac 	ldr	r2, [r3, #172]	; 0xac
     654:	e58320bc 	str	r2, [r3, #188]	; 0xbc
        Ship2SDRAM.x = Ship2.x;
     658:	e59320c8 	ldr	r2, [r3, #200]	; 0xc8
     65c:	e58320d8 	str	r2, [r3, #216]	; 0xd8
        Ship2SDRAM.y = Ship2.y;
     660:	e59320cc 	ldr	r2, [r3, #204]	; 0xcc
     664:	e58320dc 	str	r2, [r3, #220]	; 0xdc
     668:	ea00000e 	b	6a8 <update+0x168>
    }
    else if (pixel_buffer_start == 0xC8000000)
     66c:	e30c3d74 	movw	r3, #52596	; 0xcd74
     670:	e3403004 	movt	r3, #4
     674:	e59330e8 	ldr	r3, [r3, #232]	; 0xe8
     678:	e3530332 	cmp	r3, #-939524096	; 0xc8000000
     67c:	1a000009 	bne	6a8 <update+0x168>
    {
        Ship1ONCHIP.x = Ship1.x;
     680:	e30c3d74 	movw	r3, #52596	; 0xcd74
     684:	e3403004 	movt	r3, #4
     688:	e59320a8 	ldr	r2, [r3, #168]	; 0xa8
     68c:	e58320c0 	str	r2, [r3, #192]	; 0xc0
        Ship1ONCHIP.y = Ship1.y;
     690:	e59320ac 	ldr	r2, [r3, #172]	; 0xac
     694:	e58320c4 	str	r2, [r3, #196]	; 0xc4
        Ship2ONCHIP.x = Ship2.x;
     698:	e59320c8 	ldr	r2, [r3, #200]	; 0xc8
     69c:	e58320e0 	str	r2, [r3, #224]	; 0xe0
        Ship2ONCHIP.y = Ship2.y;
     6a0:	e59320cc 	ldr	r2, [r3, #204]	; 0xcc
     6a4:	e58320e4 	str	r2, [r3, #228]	; 0xe4
    }

    if (Ship1.y <= 0 || Ship1.y + shipLength >= 239)
     6a8:	e30c3d74 	movw	r3, #52596	; 0xcd74
     6ac:	e3403004 	movt	r3, #4
     6b0:	e59330ac 	ldr	r3, [r3, #172]	; 0xac
     6b4:	e3530000 	cmp	r3, #0
     6b8:	da000002 	ble	6c8 <update+0x188>
     6bc:	e2832015 	add	r2, r3, #21
     6c0:	e35200ee 	cmp	r2, #238	; 0xee
     6c4:	da000009 	ble	6f0 <update+0x1b0>
    {
    	if (Ship1.y <=1){
     6c8:	e3530001 	cmp	r3, #1
        	score++;
     6cc:	d30c3d74 	movwle	r3, #52596	; 0xcd74
     6d0:	d3403004 	movtle	r3, #4
     6d4:	d59320ec 	ldrle	r2, [r3, #236]	; 0xec
     6d8:	d2822001 	addle	r2, r2, #1
     6dc:	d58320ec 	strle	r2, [r3, #236]	; 0xec
        }
        Ship1.y = 239 - shipLength - 1;
     6e0:	e30c3d74 	movw	r3, #52596	; 0xcd74
     6e4:	e3403004 	movt	r3, #4
     6e8:	e3a020d9 	mov	r2, #217	; 0xd9
     6ec:	e58320ac 	str	r2, [r3, #172]	; 0xac
    }
    if (Ship2.y <= 0 || Ship2.y + shipLength >= 239)
     6f0:	e30c3d74 	movw	r3, #52596	; 0xcd74
     6f4:	e3403004 	movt	r3, #4
     6f8:	e59330cc 	ldr	r3, [r3, #204]	; 0xcc
     6fc:	e3530000 	cmp	r3, #0
     700:	da000002 	ble	710 <update+0x1d0>
     704:	e2832015 	add	r2, r3, #21
     708:	e35200ee 	cmp	r2, #238	; 0xee
     70c:	da000030 	ble	7d4 <update+0x294>
    {
    	if (Ship2.y <= 1){
     710:	e3530001 	cmp	r3, #1
        	score2++;
     714:	d30c3d74 	movwle	r3, #52596	; 0xcd74
     718:	d3403004 	movtle	r3, #4
     71c:	d59320f0 	ldrle	r2, [r3, #240]	; 0xf0
     720:	d2822001 	addle	r2, r2, #1
     724:	d58320f0 	strle	r2, [r3, #240]	; 0xf0
        }
        Ship2.y = 239 - shipLength - 1;
     728:	e30c3d74 	movw	r3, #52596	; 0xcd74
     72c:	e3403004 	movt	r3, #4
     730:	e3a020d9 	mov	r2, #217	; 0xd9
     734:	e58320cc 	str	r2, [r3, #204]	; 0xcc
     738:	ea000025 	b	7d4 <update+0x294>
    }

    for (int i = 0; i < numAsteroids; ++i)
    {
        if ((Asteroids[i].x <= Ship1.x + shipWidth) && (Asteroids[i].x >= Ship1.x) && (Asteroids[i].y <= Ship1.y + shipLength) && (Asteroids[i].y >= Ship1.y))
     73c:	e2812008 	add	r2, r1, #8
     740:	e7932002 	ldr	r2, [r3, r2]
     744:	e1520005 	cmp	r2, r5
     748:	ca000008 	bgt	770 <update+0x230>
     74c:	e1520007 	cmp	r2, r7
     750:	ba000006 	blt	770 <update+0x230>
    draw_line(x + width, y, x + width, y + length, line_color);
    draw_line(x, y + length, x + width, y + length, line_color);
}

// update movement of boxes
void update()
     754:	e0818003 	add	r8, r1, r3
        Ship2.y = 239 - shipLength - 1;
    }

    for (int i = 0; i < numAsteroids; ++i)
    {
        if ((Asteroids[i].x <= Ship1.x + shipWidth) && (Asteroids[i].x >= Ship1.x) && (Asteroids[i].y <= Ship1.y + shipLength) && (Asteroids[i].y >= Ship1.y))
     758:	e598800c 	ldr	r8, [r8, #12]
     75c:	e28ca015 	add	r10, r12, #21
     760:	e158000a 	cmp	r8, r10
     764:	ca000001 	bgt	770 <update+0x230>
        {
            Ship1.y = 239 - shipLength - 1;
     768:	e158000c 	cmp	r8, r12
     76c:	a3a0c0d9 	movge	r12, #217	; 0xd9
        }

        if ((Asteroids[i].x <= Ship2.x + shipWidth) && (Asteroids[i].x >= Ship2.x) && (Asteroids[i].y <= Ship2.y + shipLength) && (Asteroids[i].y >= Ship2.y))
     770:	e1520004 	cmp	r2, r4
     774:	ca000008 	bgt	79c <update+0x25c>
     778:	e1520006 	cmp	r2, r6
     77c:	ba000006 	blt	79c <update+0x25c>
    draw_line(x + width, y, x + width, y + length, line_color);
    draw_line(x, y + length, x + width, y + length, line_color);
}

// update movement of boxes
void update()
     780:	e0812003 	add	r2, r1, r3
        if ((Asteroids[i].x <= Ship1.x + shipWidth) && (Asteroids[i].x >= Ship1.x) && (Asteroids[i].y <= Ship1.y + shipLength) && (Asteroids[i].y >= Ship1.y))
        {
            Ship1.y = 239 - shipLength - 1;
        }

        if ((Asteroids[i].x <= Ship2.x + shipWidth) && (Asteroids[i].x >= Ship2.x) && (Asteroids[i].y <= Ship2.y + shipLength) && (Asteroids[i].y >= Ship2.y))
     784:	e592200c 	ldr	r2, [r2, #12]
     788:	e2808015 	add	r8, r0, #21
     78c:	e1520008 	cmp	r2, r8
     790:	ca000001 	bgt	79c <update+0x25c>
        {
            Ship2.y = 239 - shipLength - 1;
     794:	e1520000 	cmp	r2, r0
     798:	a3a000d9 	movge	r0, #217	; 0xd9
     79c:	e2833010 	add	r3, r3, #16
        	score2++;
        }
        Ship2.y = 239 - shipLength - 1;
    }

    for (int i = 0; i < numAsteroids; ++i)
     7a0:	e3530050 	cmp	r3, #80	; 0x50
     7a4:	1affffe4 	bne	73c <update+0x1fc>
     7a8:	e30c3d74 	movw	r3, #52596	; 0xcd74
     7ac:	e3403004 	movt	r3, #4
     7b0:	e583c0ac 	str	r12, [r3, #172]	; 0xac
     7b4:	e58300cc 	str	r0, [r3, #204]	; 0xcc
            Ship2.y = 239 - shipLength - 1;
        }
    }

    // actually move the ship
    Ship1.y += Ship1dy;
     7b8:	e5932000 	ldr	r2, [r3]
     7bc:	e08cc002 	add	r12, r12, r2
     7c0:	e583c0ac 	str	r12, [r3, #172]	; 0xac
    Ship2.y += Ship2dy;
     7c4:	e5932004 	ldr	r2, [r3, #4]
     7c8:	e0800002 	add	r0, r0, r2
     7cc:	e58300cc 	str	r0, [r3, #204]	; 0xcc
     7d0:	ea00000b 	b	804 <update+0x2c4>
        Ship2.y = 239 - shipLength - 1;
    }

    for (int i = 0; i < numAsteroids; ++i)
    {
        if ((Asteroids[i].x <= Ship1.x + shipWidth) && (Asteroids[i].x >= Ship1.x) && (Asteroids[i].y <= Ship1.y + shipLength) && (Asteroids[i].y >= Ship1.y))
     7d4:	e30c3d74 	movw	r3, #52596	; 0xcd74
     7d8:	e3403004 	movt	r3, #4
     7dc:	e59370a8 	ldr	r7, [r3, #168]	; 0xa8
     7e0:	e287500b 	add	r5, r7, #11
        {
            Ship1.y = 239 - shipLength - 1;
        }

        if ((Asteroids[i].x <= Ship2.x + shipWidth) && (Asteroids[i].x >= Ship2.x) && (Asteroids[i].y <= Ship2.y + shipLength) && (Asteroids[i].y >= Ship2.y))
     7e4:	e59360c8 	ldr	r6, [r3, #200]	; 0xc8
     7e8:	e286400b 	add	r4, r6, #11
     7ec:	e593c0ac 	ldr	r12, [r3, #172]	; 0xac
     7f0:	e59300cc 	ldr	r0, [r3, #204]	; 0xcc
     7f4:	e3a03000 	mov	r3, #0
        Ship2.y = 239 - shipLength - 1;
    }

    for (int i = 0; i < numAsteroids; ++i)
    {
        if ((Asteroids[i].x <= Ship1.x + shipWidth) && (Asteroids[i].x >= Ship1.x) && (Asteroids[i].y <= Ship1.y + shipLength) && (Asteroids[i].y >= Ship1.y))
     7f8:	e30c1d74 	movw	r1, #52596	; 0xcd74
     7fc:	e3401004 	movt	r1, #4
     800:	eaffffcd 	b	73c <update+0x1fc>
    }

    // actually move the ship
    Ship1.y += Ship1dy;
    Ship2.y += Ship2dy;
}
     804:	e28dd00c 	add	sp, sp, #12
     808:	e8bd8ff0 	pop	{r4, r5, r6, r7, r8, r9, r10, r11, pc}
     80c:	0004cd7c 	.word	0x0004cd7c

00000810 <clear_screen>:

// clears screen by drawing all black
void clear_screen()
{
    for (int i = 0xC8000000; i < 0xC803BE7E; i = i + 2)
     810:	e3a03332 	mov	r3, #-939524096	; 0xc8000000
    {
        *(short int *)(i) = 0x0000;
     814:	e3a01000 	mov	r1, #0
}

// clears screen by drawing all black
void clear_screen()
{
    for (int i = 0xC8000000; i < 0xC803BE7E; i = i + 2)
     818:	e30b2e7e 	movw	r2, #48766	; 0xbe7e
     81c:	e34c2803 	movt	r2, #51203	; 0xc803
    {
        *(short int *)(i) = 0x0000;
     820:	e0c310b2 	strh	r1, [r3], #2
}

// clears screen by drawing all black
void clear_screen()
{
    for (int i = 0xC8000000; i < 0xC803BE7E; i = i + 2)
     824:	e1530002 	cmp	r3, r2
     828:	1afffffc 	bne	820 <clear_screen+0x10>
     82c:	e3a03103 	mov	r3, #-1073741824	; 0xc0000000
        *(short int *)(i) = 0x0000;
    }

    for (int i = 0xC0000000; i < 0xC003BE7E; i = i + 2)
    {
        *(short int *)(i) = 0x0000;
     830:	e3a01000 	mov	r1, #0
    for (int i = 0xC8000000; i < 0xC803BE7E; i = i + 2)
    {
        *(short int *)(i) = 0x0000;
    }

    for (int i = 0xC0000000; i < 0xC003BE7E; i = i + 2)
     834:	e30b2e7e 	movw	r2, #48766	; 0xbe7e
     838:	e34c2003 	movt	r2, #49155	; 0xc003
    {
        *(short int *)(i) = 0x0000;
     83c:	e0c310b2 	strh	r1, [r3], #2
    for (int i = 0xC8000000; i < 0xC803BE7E; i = i + 2)
    {
        *(short int *)(i) = 0x0000;
    }

    for (int i = 0xC0000000; i < 0xC003BE7E; i = i + 2)
     840:	e1530002 	cmp	r3, r2
     844:	1afffffc 	bne	83c <clear_screen+0x2c>
    {
        *(short int *)(i) = 0x0000;
    }
}
     848:	e12fff1e 	bx	lr

0000084c <plot_pixel>:

// plot pixel function (provided)
void plot_pixel(int x, int y, short int line_color)
{
    *(short int *)(pixel_buffer_start + (y << 10) + (x << 1)) = line_color;
     84c:	e30c3d74 	movw	r3, #52596	; 0xcd74
     850:	e3403004 	movt	r3, #4
     854:	e59330e8 	ldr	r3, [r3, #232]	; 0xe8
     858:	e1a00080 	lsl	r0, r0, #1
     85c:	e0831501 	add	r1, r3, r1, lsl #10
     860:	e18120b0 	strh	r2, [r1, r0]
     864:	e12fff1e 	bx	lr

00000868 <clear_ship>:
        Ship1dy = 0;
        Ship2dy = 0;
    }
}

void clear_ship(int x, int y) {
     868:	e92d45f8 	push	{r3, r4, r5, r6, r7, r8, r10, lr}
     86c:	e1a07000 	mov	r7, r0
     870:	e1a0a001 	mov	r10, r1
    //volatile short * pixelbuf = 0xc8000000;
	int i, j;
    for(i = 0; i < 22; i++){
     874:	e3a08000 	mov	r8, #0
        Ship1dy = 0;
        Ship2dy = 0;
    }
}

void clear_ship(int x, int y) {
     878:	e1a05008 	mov	r5, r8
     87c:	ea000009 	b	8a8 <clear_ship+0x40>
    //volatile short * pixelbuf = 0xc8000000;
	int i, j;
    for(i = 0; i < 22; i++){
    	for(j = 0; j < 18; j++){
             //*(pixel_buffer_start + (j<<0) + (i<<9)) = bird[i][j];
			 plot_pixel(x + j, y + i, 0x0000);	
     880:	e0840007 	add	r0, r4, r7
     884:	e1a01006 	mov	r1, r6
     888:	e1a02005 	mov	r2, r5
     88c:	ebffffee 	bl	84c <plot_pixel>

void clear_ship(int x, int y) {
    //volatile short * pixelbuf = 0xc8000000;
	int i, j;
    for(i = 0; i < 22; i++){
    	for(j = 0; j < 18; j++){
     890:	e2844001 	add	r4, r4, #1
     894:	e3540012 	cmp	r4, #18
     898:	1afffff8 	bne	880 <clear_ship+0x18>
}

void clear_ship(int x, int y) {
    //volatile short * pixelbuf = 0xc8000000;
	int i, j;
    for(i = 0; i < 22; i++){
     89c:	e2888001 	add	r8, r8, #1
     8a0:	e3580016 	cmp	r8, #22
     8a4:	08bd85f8 	popeq	{r3, r4, r5, r6, r7, r8, r10, pc}
        Ship1dy = 0;
        Ship2dy = 0;
    }
}

void clear_ship(int x, int y) {
     8a8:	e1a04005 	mov	r4, r5
     8ac:	e088600a 	add	r6, r8, r10
     8b0:	eafffff2 	b	880 <clear_ship+0x18>

000008b4 <clear>:
    Ship2ONCHIP.y = 239 - shipLength - 1;
}

// override the previous lines with black, depending on which was the previous buffer
void clear()
{
     8b4:	e92d40f8 	push	{r3, r4, r5, r6, r7, lr}
    // if start buffer is SDRAM
    if (pixel_buffer_start == 0xC0000000)
     8b8:	e30c3d74 	movw	r3, #52596	; 0xcd74
     8bc:	e3403004 	movt	r3, #4
     8c0:	e59330e8 	ldr	r3, [r3, #232]	; 0xe8
     8c4:	e3530103 	cmp	r3, #-1073741824	; 0xc0000000
     8c8:	1a000023 	bne	95c <clear+0xa8>
     8cc:	e3a04000 	mov	r4, #0
    Ship2ONCHIP.x = 319 * 3 / 4 - shipWidth / 2;
    Ship2ONCHIP.y = 239 - shipLength - 1;
}

// override the previous lines with black, depending on which was the previous buffer
void clear()
     8d0:	e59f5128 	ldr	r5, [pc, #296]	; a00 <clear+0x14c>
    // if start buffer is SDRAM
    if (pixel_buffer_start == 0xC0000000)
    {
        for (int i = 0; i < numAsteroids; i++)
        {
            plot_pixel(SDRAM[i].x, SDRAM[i].y, 0x0000);
     8d4:	e1a07004 	mov	r7, r4
    Ship2ONCHIP.x = 319 * 3 / 4 - shipWidth / 2;
    Ship2ONCHIP.y = 239 - shipLength - 1;
}

// override the previous lines with black, depending on which was the previous buffer
void clear()
     8d8:	e0856004 	add	r6, r5, r4
    // if start buffer is SDRAM
    if (pixel_buffer_start == 0xC0000000)
    {
        for (int i = 0; i < numAsteroids; i++)
        {
            plot_pixel(SDRAM[i].x, SDRAM[i].y, 0x0000);
     8dc:	e7950004 	ldr	r0, [r5, r4]
     8e0:	e5961004 	ldr	r1, [r6, #4]
     8e4:	e1a02007 	mov	r2, r7
     8e8:	ebffffd7 	bl	84c <plot_pixel>
            plot_pixel(SDRAM[i].x + 1, SDRAM[i].y, 0x0000);
     8ec:	e7940005 	ldr	r0, [r4, r5]
     8f0:	e2800001 	add	r0, r0, #1
     8f4:	e5961004 	ldr	r1, [r6, #4]
     8f8:	e1a02007 	mov	r2, r7
     8fc:	ebffffd2 	bl	84c <plot_pixel>
            plot_pixel(SDRAM[i].x, SDRAM[i].y + 1, 0x0000);
     900:	e5961004 	ldr	r1, [r6, #4]
     904:	e7950004 	ldr	r0, [r5, r4]
     908:	e2811001 	add	r1, r1, #1
     90c:	e1a02007 	mov	r2, r7
     910:	ebffffcd 	bl	84c <plot_pixel>
            plot_pixel(SDRAM[i].x + 1, SDRAM[i].y + 1, 0x0000);
     914:	e7940005 	ldr	r0, [r4, r5]
     918:	e5961004 	ldr	r1, [r6, #4]
     91c:	e2800001 	add	r0, r0, #1
     920:	e2811001 	add	r1, r1, #1
     924:	e1a02007 	mov	r2, r7
     928:	ebffffc7 	bl	84c <plot_pixel>
     92c:	e2844008 	add	r4, r4, #8
void clear()
{
    // if start buffer is SDRAM
    if (pixel_buffer_start == 0xC0000000)
    {
        for (int i = 0; i < numAsteroids; i++)
     930:	e3540028 	cmp	r4, #40	; 0x28
     934:	1affffe7 	bne	8d8 <clear+0x24>
            plot_pixel(SDRAM[i].x + 1, SDRAM[i].y, 0x0000);
            plot_pixel(SDRAM[i].x, SDRAM[i].y + 1, 0x0000);
            plot_pixel(SDRAM[i].x + 1, SDRAM[i].y + 1, 0x0000);
        }

        clear_ship(Ship1SDRAM.x, Ship1SDRAM.y);
     938:	e30c4d74 	movw	r4, #52596	; 0xcd74
     93c:	e3404004 	movt	r4, #4
     940:	e59400b8 	ldr	r0, [r4, #184]	; 0xb8
     944:	e59410bc 	ldr	r1, [r4, #188]	; 0xbc
     948:	ebffffc6 	bl	868 <clear_ship>
        clear_ship(Ship2SDRAM.x, Ship2SDRAM.y);
     94c:	e59400d8 	ldr	r0, [r4, #216]	; 0xd8
     950:	e59410dc 	ldr	r1, [r4, #220]	; 0xdc
     954:	ebffffc3 	bl	868 <clear_ship>
     958:	e8bd80f8 	pop	{r3, r4, r5, r6, r7, pc}
    }
    // if start buffer is On chip memory
    else if (pixel_buffer_start == 0xC8000000)
     95c:	e30c3d74 	movw	r3, #52596	; 0xcd74
     960:	e3403004 	movt	r3, #4
     964:	e59330e8 	ldr	r3, [r3, #232]	; 0xe8
     968:	e3530332 	cmp	r3, #-939524096	; 0xc8000000
     96c:	18bd80f8 	popne	{r3, r4, r5, r6, r7, pc}
     970:	e3a04000 	mov	r4, #0
    Ship2ONCHIP.x = 319 * 3 / 4 - shipWidth / 2;
    Ship2ONCHIP.y = 239 - shipLength - 1;
}

// override the previous lines with black, depending on which was the previous buffer
void clear()
     974:	e59f5088 	ldr	r5, [pc, #136]	; a04 <clear+0x150>
    // if start buffer is On chip memory
    else if (pixel_buffer_start == 0xC8000000)
    {
        for (int i = 0; i < numAsteroids; i++)
        {
            plot_pixel(ONCHIP[i].x, ONCHIP[i].y, 0x0000);
     978:	e1a07004 	mov	r7, r4
    Ship2ONCHIP.x = 319 * 3 / 4 - shipWidth / 2;
    Ship2ONCHIP.y = 239 - shipLength - 1;
}

// override the previous lines with black, depending on which was the previous buffer
void clear()
     97c:	e0856004 	add	r6, r5, r4
    // if start buffer is On chip memory
    else if (pixel_buffer_start == 0xC8000000)
    {
        for (int i = 0; i < numAsteroids; i++)
        {
            plot_pixel(ONCHIP[i].x, ONCHIP[i].y, 0x0000);
     980:	e7950004 	ldr	r0, [r5, r4]
     984:	e5961004 	ldr	r1, [r6, #4]
     988:	e1a02007 	mov	r2, r7
     98c:	ebffffae 	bl	84c <plot_pixel>
            plot_pixel(ONCHIP[i].x + 1, ONCHIP[i].y, 0x0000);
     990:	e7940005 	ldr	r0, [r4, r5]
     994:	e2800001 	add	r0, r0, #1
     998:	e5961004 	ldr	r1, [r6, #4]
     99c:	e1a02007 	mov	r2, r7
     9a0:	ebffffa9 	bl	84c <plot_pixel>
            plot_pixel(ONCHIP[i].x, ONCHIP[i].y + 1, 0x0000);
     9a4:	e5961004 	ldr	r1, [r6, #4]
     9a8:	e7950004 	ldr	r0, [r5, r4]
     9ac:	e2811001 	add	r1, r1, #1
     9b0:	e1a02007 	mov	r2, r7
     9b4:	ebffffa4 	bl	84c <plot_pixel>
            plot_pixel(ONCHIP[i].x + 1, ONCHIP[i].y + 1, 0x0000);
     9b8:	e7940005 	ldr	r0, [r4, r5]
     9bc:	e5961004 	ldr	r1, [r6, #4]
     9c0:	e2800001 	add	r0, r0, #1
     9c4:	e2811001 	add	r1, r1, #1
     9c8:	e1a02007 	mov	r2, r7
     9cc:	ebffff9e 	bl	84c <plot_pixel>
     9d0:	e2844008 	add	r4, r4, #8
        clear_ship(Ship2SDRAM.x, Ship2SDRAM.y);
    }
    // if start buffer is On chip memory
    else if (pixel_buffer_start == 0xC8000000)
    {
        for (int i = 0; i < numAsteroids; i++)
     9d4:	e3540028 	cmp	r4, #40	; 0x28
     9d8:	1affffe7 	bne	97c <clear+0xc8>
            plot_pixel(ONCHIP[i].x, ONCHIP[i].y, 0x0000);
            plot_pixel(ONCHIP[i].x + 1, ONCHIP[i].y, 0x0000);
            plot_pixel(ONCHIP[i].x, ONCHIP[i].y + 1, 0x0000);
            plot_pixel(ONCHIP[i].x + 1, ONCHIP[i].y + 1, 0x0000);
        }
        clear_ship(Ship1ONCHIP.x, Ship1ONCHIP.y);
     9dc:	e30c4d74 	movw	r4, #52596	; 0xcd74
     9e0:	e3404004 	movt	r4, #4
     9e4:	e59400c0 	ldr	r0, [r4, #192]	; 0xc0
     9e8:	e59410c4 	ldr	r1, [r4, #196]	; 0xc4
     9ec:	ebffff9d 	bl	868 <clear_ship>
        clear_ship(Ship2ONCHIP.x, Ship2ONCHIP.y);
     9f0:	e59400e0 	ldr	r0, [r4, #224]	; 0xe0
     9f4:	e59410e4 	ldr	r1, [r4, #228]	; 0xe4
     9f8:	ebffff9a 	bl	868 <clear_ship>
     9fc:	e8bd80f8 	pop	{r3, r4, r5, r6, r7, pc}
     a00:	0004cdf4 	.word	0x0004cdf4
     a04:	0004cdcc 	.word	0x0004cdcc

00000a08 <draw_ship>:
    return 1;
}



void draw_ship(int x, int y) {
     a08:	e92d4ff8 	push	{r3, r4, r5, r6, r7, r8, r9, r10, r11, lr}
     a0c:	e1a0b000 	mov	r11, r0
     a10:	e1a09001 	mov	r9, r1
     a14:	e59f6050 	ldr	r6, [pc, #80]	; a6c <draw_ship+0x64>
    //volatile short * pixelbuf = 0xc8000000;
	int i, j;
    for(i = 0; i < 22; i++){
     a18:	e3a08000 	mov	r8, #0
    return 1;
}



void draw_ship(int x, int y) {
     a1c:	e30ca5a0 	movw	r10, #50592	; 0xc5a0
     a20:	e340a004 	movt	r10, #4
     a24:	ea00000a 	b	a54 <draw_ship+0x4c>
    //volatile short * pixelbuf = 0xc8000000;
	int i, j;
    for(i = 0; i < 22; i++){
    	for(j = 0; j < 18; j++){
			 plot_pixel(x + j, y + i,ship[i][j]);	
     a28:	e1a00004 	mov	r0, r4
     a2c:	e1a01007 	mov	r1, r7
     a30:	e1f520f2 	ldrsh	r2, [r5, #2]!
     a34:	ebffff84 	bl	84c <plot_pixel>
     a38:	e2844001 	add	r4, r4, #1

void draw_ship(int x, int y) {
    //volatile short * pixelbuf = 0xc8000000;
	int i, j;
    for(i = 0; i < 22; i++){
    	for(j = 0; j < 18; j++){
     a3c:	e1560005 	cmp	r6, r5
     a40:	1afffff8 	bne	a28 <draw_ship+0x20>


void draw_ship(int x, int y) {
    //volatile short * pixelbuf = 0xc8000000;
	int i, j;
    for(i = 0; i < 22; i++){
     a44:	e2888001 	add	r8, r8, #1
     a48:	e2866024 	add	r6, r6, #36	; 0x24
     a4c:	e3580016 	cmp	r8, #22
     a50:	08bd8ff8 	popeq	{r3, r4, r5, r6, r7, r8, r9, r10, r11, pc}
    return 1;
}



void draw_ship(int x, int y) {
     a54:	e0885188 	add	r5, r8, r8, lsl #3
     a58:	e08a5105 	add	r5, r10, r5, lsl #2
     a5c:	e2455002 	sub	r5, r5, #2
     a60:	e1a0400b 	mov	r4, r11
     a64:	e0887009 	add	r7, r8, r9
     a68:	eaffffee 	b	a28 <draw_ship+0x20>
     a6c:	0004c5c2 	.word	0x0004c5c2

00000a70 <wait_for_sync>:
void wait_for_sync()
{
    volatile int *pixel_ctrl_ptr = 0xFF203020;
    register int status;

    *pixel_ctrl_ptr = 1;
     a70:	e3033fff 	movw	r3, #16383	; 0x3fff
     a74:	e34f3f20 	movt	r3, #65312	; 0xff20
     a78:	e3a02001 	mov	r2, #1
     a7c:	e5032fdf 	str	r2, [r3, #-4063]	; 0xfffff021

    status = *(pixel_ctrl_ptr + 3);
     a80:	e5133fd3 	ldr	r3, [r3, #-4051]	; 0xfffff02d
    while ((status & 0x01) != 0)
     a84:	e3130001 	tst	r3, #1
     a88:	012fff1e 	bxeq	lr
    {
        status = *(pixel_ctrl_ptr + 3);
     a8c:	e3032fff 	movw	r2, #16383	; 0x3fff
     a90:	e34f2f20 	movt	r2, #65312	; 0xff20
     a94:	e5123fd3 	ldr	r3, [r2, #-4051]	; 0xfffff02d
    register int status;

    *pixel_ctrl_ptr = 1;

    status = *(pixel_ctrl_ptr + 3);
    while ((status & 0x01) != 0)
     a98:	e3130001 	tst	r3, #1
     a9c:	1afffffc 	bne	a94 <wait_for_sync+0x24>
     aa0:	e12fff1e 	bx	lr

00000aa4 <wait_for_vsync>:
void wait_for_vsync()
{
    volatile int *pixel_ctrl_ptr = 0xFF203020;
    register int status;

    *pixel_ctrl_ptr = 1;
     aa4:	e3033fff 	movw	r3, #16383	; 0x3fff
     aa8:	e34f3f20 	movt	r3, #65312	; 0xff20
     aac:	e3a02001 	mov	r2, #1
     ab0:	e5032fdf 	str	r2, [r3, #-4063]	; 0xfffff021

    status = *(pixel_ctrl_ptr + 3);
     ab4:	e5133fd3 	ldr	r3, [r3, #-4051]	; 0xfffff02d
    while ((status & 0x01) != 0)
     ab8:	e3130001 	tst	r3, #1
     abc:	012fff1e 	bxeq	lr
    {
        status = *(pixel_ctrl_ptr + 3);
     ac0:	e3032fff 	movw	r2, #16383	; 0x3fff
     ac4:	e34f2f20 	movt	r2, #65312	; 0xff20
     ac8:	e5123fd3 	ldr	r3, [r2, #-4051]	; 0xfffff02d
    register int status;

    *pixel_ctrl_ptr = 1;

    status = *(pixel_ctrl_ptr + 3);
    while ((status & 0x01) != 0)
     acc:	e3130001 	tst	r3, #1
     ad0:	1afffffc 	bne	ac8 <wait_for_vsync+0x24>
     ad4:	e12fff1e 	bx	lr

00000ad8 <load_title>:
        for (j=0; j<320; j++)
        //*(pixelbuf + (j<<0) + (i<<9)) = gameOver[i][j];
		plot_pixel(j, i, gameOver[i][j]);
}

void load_title() {
     ad8:	e92d41f0 	push	{r4, r5, r6, r7, r8, lr}
	
    volatile short * pixelbuf = 0xc8000000;
    int i, j;
    for (i=0; i<240; i++) 
     adc:	e3a06000 	mov	r6, #0
        for (j=0; j<320; j++)
        //*(pixelbuf + (j<<0) + (i<<9)) = gameOver[i][j];
		plot_pixel(j, i, gameOver[i][j]);
}

void load_title() {
     ae0:	e3067da0 	movw	r7, #28064	; 0x6da0
     ae4:	e3407002 	movt	r7, #2
     ae8:	e1a08006 	mov	r8, r6
     aec:	ea000009 	b	b18 <load_title+0x40>
    volatile short * pixelbuf = 0xc8000000;
    int i, j;
    for (i=0; i<240; i++) 
        for (j=0; j<320; j++)
        //*(pixelbuf + (j<<0) + (i<<9)) = gameOver[i][j];
		plot_pixel(j, i, title[i][j]);
     af0:	e1a00004 	mov	r0, r4
     af4:	e1a01006 	mov	r1, r6
     af8:	e1f520f2 	ldrsh	r2, [r5, #2]!
     afc:	ebffff52 	bl	84c <plot_pixel>
void load_title() {
	
    volatile short * pixelbuf = 0xc8000000;
    int i, j;
    for (i=0; i<240; i++) 
        for (j=0; j<320; j++)
     b00:	e2844001 	add	r4, r4, #1
     b04:	e3540d05 	cmp	r4, #320	; 0x140
     b08:	1afffff8 	bne	af0 <load_title+0x18>

void load_title() {
	
    volatile short * pixelbuf = 0xc8000000;
    int i, j;
    for (i=0; i<240; i++) 
     b0c:	e2866001 	add	r6, r6, #1
     b10:	e35600f0 	cmp	r6, #240	; 0xf0
     b14:	0a000004 	beq	b2c <load_title+0x54>
        for (j=0; j<320; j++)
        //*(pixelbuf + (j<<0) + (i<<9)) = gameOver[i][j];
		plot_pixel(j, i, gameOver[i][j]);
}

void load_title() {
     b18:	e0865106 	add	r5, r6, r6, lsl #2
     b1c:	e0875385 	add	r5, r7, r5, lsl #7
     b20:	e2455002 	sub	r5, r5, #2
     b24:	e1a04008 	mov	r4, r8
     b28:	eafffff0 	b	af0 <load_title+0x18>
    int i, j;
    for (i=0; i<240; i++) 
        for (j=0; j<320; j++)
        //*(pixelbuf + (j<<0) + (i<<9)) = gameOver[i][j];
		plot_pixel(j, i, title[i][j]);
	wait_for_vsync(); // swap front and back buffers on VGA vertical sync
     b2c:	ebffffdc 	bl	aa4 <wait_for_vsync>
    pixel_buffer_start = *(pixel_ctrl_ptr + 1); // new back buffer
     b30:	e30c3918 	movw	r3, #51480	; 0xc918
     b34:	e3403004 	movt	r3, #4
     b38:	e5933000 	ldr	r3, [r3]
     b3c:	e5932004 	ldr	r2, [r3, #4]
     b40:	e30c3d74 	movw	r3, #52596	; 0xcd74
     b44:	e3403004 	movt	r3, #4
     b48:	e58320e8 	str	r2, [r3, #232]	; 0xe8
     b4c:	e8bd81f0 	pop	{r4, r5, r6, r7, r8, pc}

00000b50 <game_over_loop>:
			 plot_pixel(x + j, y + i,ship[i][j]);	
        }
    }
}

void game_over_loop () {
     b50:	e92d41f0 	push	{r4, r5, r6, r7, r8, lr}

	wait_for_vsync();
     b54:	ebffffd2 	bl	aa4 <wait_for_vsync>
    volatile short * pixelbuf = 0xc8000000;
    int i, j;
    for (i=0; i<240; i++) 
     b58:	e3a06000 	mov	r6, #0
			 plot_pixel(x + j, y + i,ship[i][j]);	
        }
    }
}

void game_over_loop () {
     b5c:	e30175a0 	movw	r7, #5536	; 0x15a0
     b60:	e3407000 	movt	r7, #0
     b64:	e1a08006 	mov	r8, r6
     b68:	ea000009 	b	b94 <game_over_loop+0x44>
    volatile short * pixelbuf = 0xc8000000;
    int i, j;
    for (i=0; i<240; i++) 
        for (j=0; j<320; j++)
        //*(pixelbuf + (j<<0) + (i<<9)) = gameOver[i][j];
		plot_pixel(j, i, gameOver[i][j]);
     b6c:	e1a00004 	mov	r0, r4
     b70:	e1a01006 	mov	r1, r6
     b74:	e1f520f2 	ldrsh	r2, [r5, #2]!
     b78:	ebffff33 	bl	84c <plot_pixel>

	wait_for_vsync();
    volatile short * pixelbuf = 0xc8000000;
    int i, j;
    for (i=0; i<240; i++) 
        for (j=0; j<320; j++)
     b7c:	e2844001 	add	r4, r4, #1
     b80:	e3540d05 	cmp	r4, #320	; 0x140
     b84:	1afffff8 	bne	b6c <game_over_loop+0x1c>
void game_over_loop () {

	wait_for_vsync();
    volatile short * pixelbuf = 0xc8000000;
    int i, j;
    for (i=0; i<240; i++) 
     b88:	e2866001 	add	r6, r6, #1
     b8c:	e35600f0 	cmp	r6, #240	; 0xf0
     b90:	08bd81f0 	popeq	{r4, r5, r6, r7, r8, pc}
			 plot_pixel(x + j, y + i,ship[i][j]);	
        }
    }
}

void game_over_loop () {
     b94:	e0865106 	add	r5, r6, r6, lsl #2
     b98:	e0875385 	add	r5, r7, r5, lsl #7
     b9c:	e2455002 	sub	r5, r5, #2
     ba0:	e1a04008 	mov	r4, r8
     ba4:	eafffff0 	b	b6c <game_over_loop+0x1c>

00000ba8 <swap>:
    }
}

void swap(int *x, int *y)
{
    int temp = *x;
     ba8:	e5903000 	ldr	r3, [r0]
    *x = *y;
     bac:	e5912000 	ldr	r2, [r1]
     bb0:	e5802000 	str	r2, [r0]
    *y = temp;
     bb4:	e5813000 	str	r3, [r1]
     bb8:	e12fff1e 	bx	lr

00000bbc <draw_line>:
    }
    return;
}

void draw_line(int x0, int y0, int x1, int y1, short int line_color)
{
     bbc:	e92d4ff0 	push	{r4, r5, r6, r7, r8, r9, r10, r11, lr}
     bc0:	e24dd014 	sub	sp, sp, #20
     bc4:	e58d000c 	str	r0, [sp, #12]
     bc8:	e58d1008 	str	r1, [sp, #8]
     bcc:	e58d2004 	str	r2, [sp, #4]
     bd0:	e58d3000 	str	r3, [sp]
     bd4:	e1dda3f8 	ldrsh	r10, [sp, #56]	; 0x38
    bool is_steep = abs(y1 - y0) > abs(x1 - x0);
     bd8:	e0613003 	rsb	r3, r1, r3
     bdc:	e3530000 	cmp	r3, #0
     be0:	b2633000 	rsblt	r3, r3, #0
     be4:	e0602002 	rsb	r2, r0, r2
     be8:	e0228fc2 	eor	r8, r2, r2, asr #31
     bec:	e0488fc2 	sub	r8, r8, r2, asr #31
     bf0:	e1530008 	cmp	r3, r8
     bf4:	d3a08000 	movle	r8, #0
     bf8:	c3a08001 	movgt	r8, #1

    if (is_steep)
     bfc:	e3580000 	cmp	r8, #0
     c00:	0a000005 	beq	c1c <draw_line+0x60>
    {
        swap(&x0, &y0);
     c04:	e28d000c 	add	r0, sp, #12
     c08:	e28d1008 	add	r1, sp, #8
     c0c:	ebffffe5 	bl	ba8 <swap>
        swap(&x1, &y1);
     c10:	e28d0004 	add	r0, sp, #4
     c14:	e1a0100d 	mov	r1, sp
     c18:	ebffffe2 	bl	ba8 <swap>
    }
    if (x0 > x1)
     c1c:	e59d3004 	ldr	r3, [sp, #4]
     c20:	e59d200c 	ldr	r2, [sp, #12]
     c24:	e1520003 	cmp	r2, r3
     c28:	da000005 	ble	c44 <draw_line+0x88>
    {
        swap(&x0, &x1);
     c2c:	e28d000c 	add	r0, sp, #12
     c30:	e28d1004 	add	r1, sp, #4
     c34:	ebffffdb 	bl	ba8 <swap>
        swap(&y0, &y1);
     c38:	e28d0008 	add	r0, sp, #8
     c3c:	e1a0100d 	mov	r1, sp
     c40:	ebffffd8 	bl	ba8 <swap>
    }

    int deltax = x1 - x0;
     c44:	e59d3004 	ldr	r3, [sp, #4]
     c48:	e59d500c 	ldr	r5, [sp, #12]
     c4c:	e0659003 	rsb	r9, r5, r3
    int deltay = abs(y1 - y0);
     c50:	e59d2000 	ldr	r2, [sp]
     c54:	e59d6008 	ldr	r6, [sp, #8]
     c58:	e0667002 	rsb	r7, r6, r2
     c5c:	e3570000 	cmp	r7, #0
     c60:	b2677000 	rsblt	r7, r7, #0
    int error = -(deltax / 2);
     c64:	e0894fa9 	add	r4, r9, r9, lsr #31
     c68:	e1a040c4 	asr	r4, r4, #1
     c6c:	e2644000 	rsb	r4, r4, #0
    int y = y0;
    int y_step;

    if (y0 < y1)
    {
        y_step = 1;
     c70:	e1520006 	cmp	r2, r6
     c74:	d3e0b000 	mvnle	r11, #0
     c78:	c3a0b001 	movgt	r11, #1
    else
    {
        y_step = -1;
    }

    for (int x = x0; x < x1; ++x)
     c7c:	e1530005 	cmp	r3, r5
     c80:	da00000d 	ble	cbc <draw_line+0x100>
    {
        if (is_steep)
     c84:	e3580000 	cmp	r8, #0
        {
            plot_pixel(y, x, line_color);
     c88:	11a00006 	movne	r0, r6
     c8c:	11a01005 	movne	r1, r5
        }
        else
        {
            plot_pixel(x, y, line_color);
     c90:	01a00005 	moveq	r0, r5
     c94:	01a01006 	moveq	r1, r6
     c98:	e1a0200a 	mov	r2, r10
     c9c:	ebfffeea 	bl	84c <plot_pixel>
        }
        error = error + deltay;
        if (error >= 0)
     ca0:	e0944007 	adds	r4, r4, r7
        {
            y = y + y_step;
     ca4:	5086600b 	addpl	r6, r6, r11
            error = error - deltax;
     ca8:	50694004 	rsbpl	r4, r9, r4
    else
    {
        y_step = -1;
    }

    for (int x = x0; x < x1; ++x)
     cac:	e2855001 	add	r5, r5, #1
     cb0:	e59d3004 	ldr	r3, [sp, #4]
     cb4:	e1530005 	cmp	r3, r5
     cb8:	cafffff1 	bgt	c84 <draw_line+0xc8>
        {
            y = y + y_step;
            error = error - deltax;
        }
    }
}
     cbc:	e28dd014 	add	sp, sp, #20
     cc0:	e8bd8ff0 	pop	{r4, r5, r6, r7, r8, r9, r10, r11, pc}

00000cc4 <drawSquare>:
    draw_ship(Ship1.x, Ship1.y);
    draw_ship(Ship2.x, Ship2.y);
}

void drawSquare(int x, int y, int length, int width, short int line_color)
{
     cc4:	e92d41f0 	push	{r4, r5, r6, r7, r8, lr}
     cc8:	e24dd008 	sub	sp, sp, #8
     ccc:	e1a06000 	mov	r6, r0
     cd0:	e1a08001 	mov	r8, r1
     cd4:	e1a04002 	mov	r4, r2
     cd8:	e1dd72f0 	ldrsh	r7, [sp, #32]
    draw_line(x, y, x + width, y, line_color);
     cdc:	e0805003 	add	r5, r0, r3
     ce0:	e58d7000 	str	r7, [sp]
     ce4:	e1a02005 	mov	r2, r5
     ce8:	e1a03001 	mov	r3, r1
     cec:	ebffffb2 	bl	bbc <draw_line>
    draw_line(x, y, x, y + length, line_color);
     cf0:	e0884004 	add	r4, r8, r4
     cf4:	e58d7000 	str	r7, [sp]
     cf8:	e1a00006 	mov	r0, r6
     cfc:	e1a01008 	mov	r1, r8
     d00:	e1a02006 	mov	r2, r6
     d04:	e1a03004 	mov	r3, r4
     d08:	ebffffab 	bl	bbc <draw_line>
    draw_line(x + width, y, x + width, y + length, line_color);
     d0c:	e58d7000 	str	r7, [sp]
     d10:	e1a00005 	mov	r0, r5
     d14:	e1a01008 	mov	r1, r8
     d18:	e1a02005 	mov	r2, r5
     d1c:	e1a03004 	mov	r3, r4
     d20:	ebffffa5 	bl	bbc <draw_line>
    draw_line(x, y + length, x + width, y + length, line_color);
     d24:	e58d7000 	str	r7, [sp]
     d28:	e1a00006 	mov	r0, r6
     d2c:	e1a01004 	mov	r1, r4
     d30:	e1a02005 	mov	r2, r5
     d34:	e1a03004 	mov	r3, r4
     d38:	ebffff9f 	bl	bbc <draw_line>
}
     d3c:	e28dd008 	add	sp, sp, #8
     d40:	e8bd81f0 	pop	{r4, r5, r6, r7, r8, pc}

00000d44 <draw>:
    }
}

// code for subroutines (not shown)
void draw()
{
     d44:	e92d40f0 	push	{r4, r5, r6, r7, lr}
     d48:	e24dd00c 	sub	sp, sp, #12
     d4c:	e3a04000 	mov	r4, #0
        clear_ship(Ship2ONCHIP.x, Ship2ONCHIP.y);
    }
}

// code for subroutines (not shown)
void draw()
     d50:	e59f50bc 	ldr	r5, [pc, #188]	; e14 <draw+0xd0>

    // draw asteroids
    for (int i = 0; i < numAsteroids; i++)
    {
        // drawing rectangles
        plot_pixel(Asteroids[i].x, Asteroids[i].y, 0xFFFF);
     d54:	e3e07000 	mvn	r7, #0
        clear_ship(Ship2ONCHIP.x, Ship2ONCHIP.y);
    }
}

// code for subroutines (not shown)
void draw()
     d58:	e0856004 	add	r6, r5, r4

    // draw asteroids
    for (int i = 0; i < numAsteroids; i++)
    {
        // drawing rectangles
        plot_pixel(Asteroids[i].x, Asteroids[i].y, 0xFFFF);
     d5c:	e7950004 	ldr	r0, [r5, r4]
     d60:	e5961004 	ldr	r1, [r6, #4]
     d64:	e1a02007 	mov	r2, r7
     d68:	ebfffeb7 	bl	84c <plot_pixel>
        plot_pixel(Asteroids[i].x + 1, Asteroids[i].y, 0xFFFF);
     d6c:	e7940005 	ldr	r0, [r4, r5]
     d70:	e2800001 	add	r0, r0, #1
     d74:	e5961004 	ldr	r1, [r6, #4]
     d78:	e1a02007 	mov	r2, r7
     d7c:	ebfffeb2 	bl	84c <plot_pixel>
        plot_pixel(Asteroids[i].x, Asteroids[i].y + 1, 0xFFFF);
     d80:	e5961004 	ldr	r1, [r6, #4]
     d84:	e7950004 	ldr	r0, [r5, r4]
     d88:	e2811001 	add	r1, r1, #1
     d8c:	e1a02007 	mov	r2, r7
     d90:	ebfffead 	bl	84c <plot_pixel>
        plot_pixel(Asteroids[i].x + 1, Asteroids[i].y + 1, 0xFFFF);
     d94:	e7940005 	ldr	r0, [r4, r5]
     d98:	e5961004 	ldr	r1, [r6, #4]
     d9c:	e2800001 	add	r0, r0, #1
     da0:	e2811001 	add	r1, r1, #1
     da4:	e1a02007 	mov	r2, r7
     da8:	ebfffea7 	bl	84c <plot_pixel>
     dac:	e2844010 	add	r4, r4, #16
// code for subroutines (not shown)
void draw()
{

    // draw asteroids
    for (int i = 0; i < numAsteroids; i++)
     db0:	e3540050 	cmp	r4, #80	; 0x50
     db4:	1affffe7 	bne	d58 <draw+0x14>
        plot_pixel(Asteroids[i].x, Asteroids[i].y + 1, 0xFFFF);
        plot_pixel(Asteroids[i].x + 1, Asteroids[i].y + 1, 0xFFFF);
    }

    // draw ship
    drawSquare(Ship1.x, Ship1.y, shipLength, shipWidth, 0xFFFF);
     db8:	e30c4d74 	movw	r4, #52596	; 0xcd74
     dbc:	e3404004 	movt	r4, #4
     dc0:	e59400a8 	ldr	r0, [r4, #168]	; 0xa8
     dc4:	e59410ac 	ldr	r1, [r4, #172]	; 0xac
     dc8:	e3e05000 	mvn	r5, #0
     dcc:	e58d5000 	str	r5, [sp]
     dd0:	e3a02015 	mov	r2, #21
     dd4:	e3a0300b 	mov	r3, #11
     dd8:	ebffffb9 	bl	cc4 <drawSquare>
    drawSquare(Ship2.x, Ship2.y, shipLength, shipWidth, 0xFFFF);
     ddc:	e59400c8 	ldr	r0, [r4, #200]	; 0xc8
     de0:	e59410cc 	ldr	r1, [r4, #204]	; 0xcc
     de4:	e58d5000 	str	r5, [sp]
     de8:	e3a02015 	mov	r2, #21
     dec:	e3a0300b 	mov	r3, #11
     df0:	ebffffb3 	bl	cc4 <drawSquare>
    
    draw_ship(Ship1.x, Ship1.y);
     df4:	e59400a8 	ldr	r0, [r4, #168]	; 0xa8
     df8:	e59410ac 	ldr	r1, [r4, #172]	; 0xac
     dfc:	ebffff01 	bl	a08 <draw_ship>
    draw_ship(Ship2.x, Ship2.y);
     e00:	e59400c8 	ldr	r0, [r4, #200]	; 0xc8
     e04:	e59410cc 	ldr	r1, [r4, #204]	; 0xcc
     e08:	ebfffefe 	bl	a08 <draw_ship>
}
     e0c:	e28dd00c 	add	sp, sp, #12
     e10:	e8bd80f0 	pop	{r4, r5, r6, r7, pc}
     e14:	0004cd7c 	.word	0x0004cd7c

00000e18 <config_KEYs>:


/* setup the KEY interrupts in the FPGA */
void config_KEYs() {
volatile int * KEY_ptr = (int *) 0xFF200050; // pushbutton KEY base address
*(KEY_ptr + 2) = 0xF; // enable interrupts for the two KEYs
     e18:	e3a03000 	mov	r3, #0
     e1c:	e34f3f20 	movt	r3, #65312	; 0xff20
     e20:	e3a0200f 	mov	r2, #15
     e24:	e5832058 	str	r2, [r3, #88]	; 0x58
     e28:	e12fff1e 	bx	lr

00000e2c <__cs3_reset>:
	// Write to the End of Interrupt Register (ICCEOIR)
	*((int *)0xFFFEC110) = interrupt_ID;
}

// Define the remaining exception handlers
void __attribute__((interrupt)) __cs3_reset(void) {
     e2c:	eafffffe 	b	e2c <__cs3_reset>

00000e30 <__cs3_isr_undef>:
while (1);
}
void __attribute__((interrupt)) __cs3_isr_undef(void) {
     e30:	eafffffe 	b	e30 <__cs3_isr_undef>

00000e34 <__cs3_isr_swi>:
while (1);
}
void __attribute__((interrupt)) __cs3_isr_swi(void) {
     e34:	eafffffe 	b	e34 <__cs3_isr_swi>

00000e38 <__cs3_isr_pabort>:
while (1);
}
void __attribute__((interrupt)) __cs3_isr_pabort(void) {
     e38:	eafffffe 	b	e38 <__cs3_isr_pabort>

00000e3c <__cs3_isr_dabort>:
while (1);
}
void __attribute__((interrupt)) __cs3_isr_dabort(void) {
     e3c:	eafffffe 	b	e3c <__cs3_isr_dabort>

00000e40 <__cs3_isr_fiq>:
while (1);
}
void __attribute__((interrupt)) __cs3_isr_fiq(void) {
     e40:	eafffffe 	b	e40 <__cs3_isr_fiq>

00000e44 <disable_A9_interrupts>:
/*
* Turn off interrupts in the ARM processor
*/
void disable_A9_interrupts(void) {
	int status = 0b11010011;
	asm("msr cpsr, %[ps]" : : [ps] "r"(status));
     e44:	e3a030d3 	mov	r3, #211	; 0xd3
     e48:	e129f003 	msr	CPSR_fc, r3
     e4c:	e12fff1e 	bx	lr

00000e50 <set_A9_IRQ_stack>:
void set_A9_IRQ_stack(void) {
	int stack, mode;
	stack = 0xFFFFFFFF - 7; // top of A9 onchip memory, aligned to 8 bytes
	/* change processor to IRQ mode with interrupts disabled */
	mode = 0b11010010;
	asm("msr cpsr, %[ps]" : : [ps] "r"(mode));
     e50:	e3a030d2 	mov	r3, #210	; 0xd2
     e54:	e129f003 	msr	CPSR_fc, r3
	/* set banked stack pointer */
	asm("mov sp, %[ps]" : : [ps] "r"(stack));
     e58:	e3e03007 	mvn	r3, #7
     e5c:	e1a0d003 	mov	sp, r3
	/* go back to SVC mode before executing subroutine return! */
	mode = 0b11010011;
	asm("msr cpsr, %[ps]" : : [ps] "r"(mode));
     e60:	e3a030d3 	mov	r3, #211	; 0xd3
     e64:	e129f003 	msr	CPSR_fc, r3
     e68:	e12fff1e 	bx	lr

00000e6c <enable_A9_interrupts>:
/*
* Turn on interrupts in the ARM processor
*/
void enable_A9_interrupts(void) {
	int status = 0b01010011;
	asm("msr cpsr, %[ps]" : : [ps] "r"(status));
     e6c:	e3a03053 	mov	r3, #83	; 0x53
     e70:	e129f003 	msr	CPSR_fc, r3
     e74:	e12fff1e 	bx	lr

00000e78 <config_interrupt>:
/*
* Configure Set Enable Registers (ICDISERn) and Interrupt Processor Target
* Registers (ICDIPTRn). The default (reset) values are used for other registers
* in the GIC.
*/
void config_interrupt(int N, int CPU_target) {
     e78:	e52d4004 	push	{r4}		; (str r4, [sp, #-4]!)
	int reg_offset, index, value, address;
	/* Configure the Interrupt Set-Enable Registers (ICDISERn).
	* reg_offset = (integer_div(N / 32) * 4
	* value = 1 << (N mod 32) */
	reg_offset = (N >> 3) & 0xFFFFFFFC;
     e7c:	e1a031c0 	asr	r3, r0, #3
     e80:	e3c33003 	bic	r3, r3, #3
	index = N & 0x1F;
	value = 0x1 << index;
	address = 0xFFFED100 + reg_offset;
     e84:	e2433b4b 	sub	r3, r3, #76800	; 0x12c00
	int reg_offset, index, value, address;
	/* Configure the Interrupt Set-Enable Registers (ICDISERn).
	* reg_offset = (integer_div(N / 32) * 4
	* value = 1 << (N mod 32) */
	reg_offset = (N >> 3) & 0xFFFFFFFC;
	index = N & 0x1F;
     e88:	e200201f 	and	r2, r0, #31
	value = 0x1 << index;
	address = 0xFFFED100 + reg_offset;
	/* Now that we know the register address and value, set the appropriate bit */
	*(int *)address |= value;
     e8c:	e513c300 	ldr	r12, [r3, #-768]	; 0xfffffd00
     e90:	e3a04001 	mov	r4, #1
     e94:	e18c2214 	orr	r2, r12, r4, lsl r2
     e98:	e5032300 	str	r2, [r3, #-768]	; 0xfffffd00
	reg_offset = (N & 0xFFFFFFFC);
	index = N & 0x3;
	address = 0xFFFED800 + reg_offset + index;
	/* Now that we know the register address and value, write to (only) the
	* appropriate byte */
	*(char *)address = (char)CPU_target;
     e9c:	e2400b4a 	sub	r0, r0, #75776	; 0x12800
     ea0:	e5c01000 	strb	r1, [r0]
}
     ea4:	e8bd0010 	ldmfd	sp!, {r4}
     ea8:	e12fff1e 	bx	lr

00000eac <config_GIC>:
}

/*
* Configure the Generic Interrupt Controller (GIC)
*/
void config_GIC(void) {
     eac:	e92d4008 	push	{r3, lr}
	config_interrupt (73, 1); // configure the FPGA KEYs interrupt (73)
     eb0:	e3a00049 	mov	r0, #73	; 0x49
     eb4:	e3a01001 	mov	r1, #1
     eb8:	ebffffee 	bl	e78 <config_interrupt>
	// Set Interrupt Priority Mask Register (ICCPMR). Enable interrupts of all
	// priorities
	*((int *) 0xFFFEC104) = 0xFFFF;
     ebc:	e3e02a13 	mvn	r2, #77824	; 0x13000
     ec0:	e30f3fff 	movw	r3, #65535	; 0xffff
     ec4:	e5023efb 	str	r3, [r2, #-3835]	; 0xfffff105
	// Set CPU Interface Control Register (ICCICR). Enable signaling of
	// interrupts
	*((int *) 0xFFFEC100) = 1;
     ec8:	e3a03001 	mov	r3, #1
     ecc:	e5023eff 	str	r3, [r2, #-3839]	; 0xfffff101
	// Configure the Distributor Control Register (ICDDCR) to send pending
	// interrupts to CPUs
	*((int *) 0xFFFED000) = 1;
     ed0:	e3e02a12 	mvn	r2, #73728	; 0x12000
     ed4:	e5023fff 	str	r3, [r2, #-4095]	; 0xfffff001
     ed8:	e8bd8008 	pop	{r3, pc}

00000edc <pushbutton_ISR>:
	/* HEX display base address */
	volatile int * HEX3_HEX0_ptr = (int *) 0xFF200020;
	
	int press, HEX_bits;
	
	press = *(KEY_ptr + 3); // read the pushbutton interrupt register
     edc:	e3a03000 	mov	r3, #0
     ee0:	e34f3f20 	movt	r3, #65312	; 0xff20
     ee4:	e593205c 	ldr	r2, [r3, #92]	; 0x5c
	*(KEY_ptr + 3) = press; // Clear the interrupt
     ee8:	e583205c 	str	r2, [r3, #92]	; 0x5c
     eec:	e12fff1e 	bx	lr

00000ef0 <__cs3_isr_irq>:
* 3. provides code that initializes the generic interrupt controller
*/
void pushbutton_ISR(void);
void config_interrupt(int, int);
// Define the IRQ exception handler
void __attribute__((interrupt)) __cs3_isr_irq(void) {
     ef0:	e24ee004 	sub	lr, lr, #4
     ef4:	e92d500f 	push	{r0, r1, r2, r3, r12, lr}
	// Read the ICCIAR from the CPU Interface in the GIC
	int interrupt_ID = *((int *)0xFFFEC10C);
     ef8:	e3e03a13 	mvn	r3, #77824	; 0x13000
	if (interrupt_ID == 73) // check if interrupt is from the KEYs
     efc:	e5133ef3 	ldr	r3, [r3, #-3827]	; 0xfffff10d
     f00:	e3530049 	cmp	r3, #73	; 0x49
     f04:	1a000004 	bne	f1c <__cs3_isr_irq+0x2c>
		pushbutton_ISR();
     f08:	ebfffff3 	bl	edc <pushbutton_ISR>
	else
		while (1); // if unexpected, then stay here
	// Write to the End of Interrupt Register (ICCEOIR)
	*((int *)0xFFFEC110) = interrupt_ID;
     f0c:	e3a02049 	mov	r2, #73	; 0x49
     f10:	e3e03a13 	mvn	r3, #77824	; 0x13000
     f14:	e5032eef 	str	r2, [r3, #-3823]	; 0xfffff111
     f18:	e8fd900f 	ldm	sp!, {r0, r1, r2, r3, r12, pc}^
     f1c:	eafffffe 	b	f1c <__cs3_isr_irq+0x2c>

00000f20 <write_char>:
	return;
}

void write_char(int x, int y, char c) {
  // VGA character buffer
  volatile char * character_buffer = (char *) (0xC9000000 + (y<<7) + x);
     f20:	e28004c9 	add	r0, r0, #-922746880	; 0xc9000000
  *character_buffer = c;
     f24:	e7c02381 	strb	r2, [r0, r1, lsl #7]
     f28:	e12fff1e 	bx	lr

00000f2c <main>:




int main(void)
{
     f2c:	e92d45f8 	push	{r3, r4, r5, r6, r7, r8, r10, lr}
    
    disable_A9_interrupts(); // disable interrupts in the A9 processor
     f30:	ebffffc3 	bl	e44 <disable_A9_interrupts>
	set_A9_IRQ_stack(); // initialize the stack pointer for IRQ mode
     f34:	ebffffc5 	bl	e50 <set_A9_IRQ_stack>
	config_GIC(); // configure the general interrupt controller
     f38:	ebffffdb 	bl	eac <config_GIC>
	config_KEYs(); // configure pushbutton KEYs to generate interrupts
     f3c:	ebffffb5 	bl	e18 <config_KEYs>
	enable_A9_interrupts(); // enable interrupts in the A9 processor
     f40:	ebffffc9 	bl	e6c <enable_A9_interrupts>
    
    initialize();
     f44:	ebfffd36 	bl	424 <initialize>
    
    // declare other variables(not shown)
    // initialize location and direction of rectangles(not shown)
   
    /* set front pixel buffer to start of FPGA On-chip memory */
    *(pixel_ctrl_ptr + 1) = 0xC8000000; // first store the address in the 
     f48:	e30c4918 	movw	r4, #51480	; 0xc918
     f4c:	e3404004 	movt	r4, #4
     f50:	e5943000 	ldr	r3, [r4]
     f54:	e3a02332 	mov	r2, #-939524096	; 0xc8000000
     f58:	e5832004 	str	r2, [r3, #4]
                                        // back buffer
    /* now, swap the front/back buffers, to set the front buffer location */
    wait_for_vsync();
     f5c:	ebfffed0 	bl	aa4 <wait_for_vsync>
    /* initialize a pointer to the pixel buffer, used by drawing functions */
    pixel_buffer_start = *pixel_ctrl_ptr;
     f60:	e5943000 	ldr	r3, [r4]
     f64:	e5933000 	ldr	r3, [r3]
     f68:	e30c5d74 	movw	r5, #52596	; 0xcd74
     f6c:	e3405004 	movt	r5, #4
     f70:	e58530e8 	str	r3, [r5, #232]	; 0xe8
    clear_screen(); // pixel_buffer_start points to the pixel buffer
     f74:	ebfffe25 	bl	810 <clear_screen>
    /* set back pixel buffer to start of SDRAM memory */
    *(pixel_ctrl_ptr + 1) = 0xC0000000;
     f78:	e5943000 	ldr	r3, [r4]
     f7c:	e3a02103 	mov	r2, #-1073741824	; 0xc0000000
     f80:	e5832004 	str	r2, [r3, #4]
    pixel_buffer_start = *(pixel_ctrl_ptr + 1); // we draw on the back buffer
     f84:	e5933004 	ldr	r3, [r3, #4]
     f88:	e58530e8 	str	r3, [r5, #232]	; 0xe8
	clear_screen();
     f8c:	ebfffe1f 	bl	810 <clear_screen>
	
	/* SW base address */
	volatile int * SW_ptr = (int *) 0xFF200040;	
	int before = * SW_ptr;
     f90:	e3a03000 	mov	r3, #0
     f94:	e34f3f20 	movt	r3, #65312	; 0xff20
     f98:	e5935040 	ldr	r5, [r3, #64]	; 0x40
	
    
	// start screen
	int current = * SW_ptr;
     f9c:	e5933040 	ldr	r3, [r3, #64]	; 0x40
	while (current == before) {		
     fa0:	e1550003 	cmp	r5, r3
     fa4:	1a000005 	bne	fc0 <main+0x94>
		load_title();
		current = * SW_ptr;
     fa8:	e3a04000 	mov	r4, #0
     fac:	e34f4f20 	movt	r4, #65312	; 0xff20
	
    
	// start screen
	int current = * SW_ptr;
	while (current == before) {		
		load_title();
     fb0:	ebfffec8 	bl	ad8 <load_title>
		current = * SW_ptr;
     fb4:	e5943040 	ldr	r3, [r4, #64]	; 0x40
	int before = * SW_ptr;
	
    
	// start screen
	int current = * SW_ptr;
	while (current == before) {		
     fb8:	e1550003 	cmp	r5, r3
     fbc:	0afffffb 	beq	fb0 <main+0x84>
		load_title();
		current = * SW_ptr;
	}
    clear_screen();
     fc0:	ebfffe12 	bl	810 <clear_screen>
 	
    score = 0;
     fc4:	e30c3d74 	movw	r3, #52596	; 0xcd74
     fc8:	e3403004 	movt	r3, #4
     fcc:	e3a02000 	mov	r2, #0
     fd0:	e58320ec 	str	r2, [r3, #236]	; 0xec
    score2 = 0;
     fd4:	e58320f0 	str	r2, [r3, #240]	; 0xf0
        clear();

        // code for drawing the boxes and lines
        draw();
        
        write_char(3, 6, 'S');
     fd8:	e3a0a003 	mov	r10, #3
     fdc:	e3a04006 	mov	r4, #6
     fe0:	e3a06053 	mov	r6, #83	; 0x53
		write_char(4, 6, 'C');
     fe4:	e3a08004 	mov	r8, #4
		write_char(5, 6, 'O');
		write_char(6, 6, 'R');
		write_char(7, 6, 'E');
		write_char(8, 6, ':');
		write_char(9, 6, ('0'+score));
     fe8:	e1a05003 	mov	r5, r3
        checkKeyPress();
        // code for updating the locations of boxes
        update();

        wait_for_sync();                            // swap front and back buffers on VGA vertical sync
        pixel_buffer_start = *(pixel_ctrl_ptr + 1); // new back buffer
     fec:	e30c7918 	movw	r7, #51480	; 0xc918
     ff0:	e3407004 	movt	r7, #4
		before = current;
        */
        
        
                // clear_screen_partial();
        clear();
     ff4:	ebfffe2e 	bl	8b4 <clear>

        // code for drawing the boxes and lines
        draw();
     ff8:	ebffff51 	bl	d44 <draw>
        
        write_char(3, 6, 'S');
     ffc:	e1a0000a 	mov	r0, r10
    1000:	e1a01004 	mov	r1, r4
    1004:	e1a02006 	mov	r2, r6
    1008:	ebffffc4 	bl	f20 <write_char>
		write_char(4, 6, 'C');
    100c:	e1a00008 	mov	r0, r8
    1010:	e1a01004 	mov	r1, r4
    1014:	e3a02043 	mov	r2, #67	; 0x43
    1018:	ebffffc0 	bl	f20 <write_char>
		write_char(5, 6, 'O');
    101c:	e3a00005 	mov	r0, #5
    1020:	e1a01004 	mov	r1, r4
    1024:	e3a0204f 	mov	r2, #79	; 0x4f
    1028:	ebffffbc 	bl	f20 <write_char>
		write_char(6, 6, 'R');
    102c:	e1a00004 	mov	r0, r4
    1030:	e1a01004 	mov	r1, r4
    1034:	e3a02052 	mov	r2, #82	; 0x52
    1038:	ebffffb8 	bl	f20 <write_char>
		write_char(7, 6, 'E');
    103c:	e3a00007 	mov	r0, #7
    1040:	e1a01004 	mov	r1, r4
    1044:	e3a02045 	mov	r2, #69	; 0x45
    1048:	ebffffb4 	bl	f20 <write_char>
		write_char(8, 6, ':');
    104c:	e3a00008 	mov	r0, #8
    1050:	e1a01004 	mov	r1, r4
    1054:	e3a0203a 	mov	r2, #58	; 0x3a
    1058:	ebffffb0 	bl	f20 <write_char>
		write_char(9, 6, ('0'+score));
    105c:	e59520ec 	ldr	r2, [r5, #236]	; 0xec
    1060:	e2822030 	add	r2, r2, #48	; 0x30
    1064:	e3a00009 	mov	r0, #9
    1068:	e1a01004 	mov	r1, r4
    106c:	e6ef2072 	uxtb	r2, r2
    1070:	ebffffaa 	bl	f20 <write_char>
        
        write_char(63, 6, 'S');
    1074:	e3a0003f 	mov	r0, #63	; 0x3f
    1078:	e1a01004 	mov	r1, r4
    107c:	e1a02006 	mov	r2, r6
    1080:	ebffffa6 	bl	f20 <write_char>
		write_char(64, 6, 'C');
    1084:	e3a00040 	mov	r0, #64	; 0x40
    1088:	e1a01004 	mov	r1, r4
    108c:	e3a02043 	mov	r2, #67	; 0x43
    1090:	ebffffa2 	bl	f20 <write_char>
		write_char(65, 6, 'O');
    1094:	e3a00041 	mov	r0, #65	; 0x41
    1098:	e1a01004 	mov	r1, r4
    109c:	e3a0204f 	mov	r2, #79	; 0x4f
    10a0:	ebffff9e 	bl	f20 <write_char>
		write_char(66, 6, 'R');
    10a4:	e3a00042 	mov	r0, #66	; 0x42
    10a8:	e1a01004 	mov	r1, r4
    10ac:	e3a02052 	mov	r2, #82	; 0x52
    10b0:	ebffff9a 	bl	f20 <write_char>
		write_char(67, 6, 'E');
    10b4:	e3a00043 	mov	r0, #67	; 0x43
    10b8:	e1a01004 	mov	r1, r4
    10bc:	e3a02045 	mov	r2, #69	; 0x45
    10c0:	ebffff96 	bl	f20 <write_char>
		write_char(68, 6, ':');
    10c4:	e3a00044 	mov	r0, #68	; 0x44
    10c8:	e1a01004 	mov	r1, r4
    10cc:	e3a0203a 	mov	r2, #58	; 0x3a
    10d0:	ebffff92 	bl	f20 <write_char>
		write_char(69, 6, ('0'+score2));
    10d4:	e59520f0 	ldr	r2, [r5, #240]	; 0xf0
    10d8:	e2822030 	add	r2, r2, #48	; 0x30
    10dc:	e3a00045 	mov	r0, #69	; 0x45
    10e0:	e1a01004 	mov	r1, r4
    10e4:	e6ef2072 	uxtb	r2, r2
    10e8:	ebffff8c 	bl	f20 <write_char>

        checkKeyPress();
    10ec:	ebfffc5a 	bl	25c <checkKeyPress>
        // code for updating the locations of boxes
        update();
    10f0:	ebfffd12 	bl	540 <update>

        wait_for_sync();                            // swap front and back buffers on VGA vertical sync
    10f4:	ebfffe5d 	bl	a70 <wait_for_sync>
        pixel_buffer_start = *(pixel_ctrl_ptr + 1); // new back buffer
    10f8:	e5973000 	ldr	r3, [r7]
    10fc:	e5933004 	ldr	r3, [r3, #4]
    1100:	e58530e8 	str	r3, [r5, #232]	; 0xe8
    1104:	eaffffba 	b	ff4 <main+0xc8>

00001108 <atexit>:
    1108:	e1a01000 	mov	r1, r0
    110c:	e3a00000 	mov	r0, #0
    1110:	e92d4008 	push	{r3, lr}
    1114:	e1a02000 	mov	r2, r0
    1118:	e1a03000 	mov	r3, r0
    111c:	eb00002c 	bl	11d4 <__register_exitproc>
    1120:	e8bd4008 	pop	{r3, lr}
    1124:	e12fff1e 	bx	lr

00001128 <exit>:
    1128:	e92d4008 	push	{r3, lr}
    112c:	e3a01000 	mov	r1, #0
    1130:	e1a04000 	mov	r4, r0
    1134:	eb000063 	bl	12c8 <__call_exitprocs>
    1138:	e59f3018 	ldr	r3, [pc, #24]	; 1158 <exit+0x30>
    113c:	e5930000 	ldr	r0, [r3]
    1140:	e590303c 	ldr	r3, [r0, #60]	; 0x3c
    1144:	e3530000 	cmp	r3, #0
    1148:	11a0e00f 	movne	lr, pc
    114c:	112fff13 	bxne	r3
    1150:	e1a00004 	mov	r0, r4
    1154:	eb0000e7 	bl	14f8 <_exit>
    1158:	0004c8b8 	.word	0x0004c8b8

0000115c <srand>:
    115c:	e59f3010 	ldr	r3, [pc, #16]	; 1174 <srand+0x18>
    1160:	e5933000 	ldr	r3, [r3]
    1164:	e3a02000 	mov	r2, #0
    1168:	e58300a8 	str	r0, [r3, #168]	; 0xa8
    116c:	e58320ac 	str	r2, [r3, #172]	; 0xac
    1170:	e12fff1e 	bx	lr
    1174:	0004c920 	.word	0x0004c920

00001178 <rand>:
    1178:	e52d4004 	push	{r4}		; (str r4, [sp, #-4]!)
    117c:	e59f3044 	ldr	r3, [pc, #68]	; 11c8 <rand+0x50>
    1180:	e593c000 	ldr	r12, [r3]
    1184:	e59f4040 	ldr	r4, [pc, #64]	; 11cc <rand+0x54>
    1188:	e59c20a8 	ldr	r2, [r12, #168]	; 0xa8
    118c:	e0040492 	mul	r4, r2, r4
    1190:	e59c10ac 	ldr	r1, [r12, #172]	; 0xac
    1194:	e59f3034 	ldr	r3, [pc, #52]	; 11d0 <rand+0x58>
    1198:	e0244193 	mla	r4, r3, r1, r4
    119c:	e0810392 	umull	r0, r1, r2, r3
    11a0:	e3a02001 	mov	r2, #1
    11a4:	e0922000 	adds	r2, r2, r0
    11a8:	e0841001 	add	r1, r4, r1
    11ac:	e3a03000 	mov	r3, #0
    11b0:	e0a33001 	adc	r3, r3, r1
    11b4:	e58c20a8 	str	r2, [r12, #168]	; 0xa8
    11b8:	e58c30ac 	str	r3, [r12, #172]	; 0xac
    11bc:	e3c30102 	bic	r0, r3, #-2147483648	; 0x80000000
    11c0:	e8bd0010 	ldmfd	sp!, {r4}
    11c4:	e12fff1e 	bx	lr
    11c8:	0004c920 	.word	0x0004c920
    11cc:	5851f42d 	.word	0x5851f42d
    11d0:	4c957f2d 	.word	0x4c957f2d

000011d4 <__register_exitproc>:
    11d4:	e59fc0e4 	ldr	r12, [pc, #228]	; 12c0 <__register_exitproc+0xec>
    11d8:	e92d41f0 	push	{r4, r5, r6, r7, r8, lr}
    11dc:	e59c4000 	ldr	r4, [r12]
    11e0:	e594c148 	ldr	r12, [r4, #328]	; 0x148
    11e4:	e35c0000 	cmp	r12, #0
    11e8:	0284cf53 	addeq	r12, r4, #332	; 0x14c
    11ec:	e59c5004 	ldr	r5, [r12, #4]
    11f0:	0584c148 	streq	r12, [r4, #328]	; 0x148
    11f4:	e355001f 	cmp	r5, #31
    11f8:	e24dd010 	sub	sp, sp, #16
    11fc:	e1a06000 	mov	r6, r0
    1200:	da000015 	ble	125c <__register_exitproc+0x88>
    1204:	e59f00b8 	ldr	r0, [pc, #184]	; 12c4 <__register_exitproc+0xf0>
    1208:	e3500000 	cmp	r0, #0
    120c:	1a000001 	bne	1218 <__register_exitproc+0x44>
    1210:	e3e00000 	mvn	r0, #0
    1214:	ea000018 	b	127c <__register_exitproc+0xa8>
    1218:	e3a00e19 	mov	r0, #400	; 0x190
    121c:	e58d100c 	str	r1, [sp, #12]
    1220:	e58d2008 	str	r2, [sp, #8]
    1224:	e58d3004 	str	r3, [sp, #4]
    1228:	e320f000 	nop	{0}
    122c:	e250c000 	subs	r12, r0, #0
    1230:	e59d100c 	ldr	r1, [sp, #12]
    1234:	e59d2008 	ldr	r2, [sp, #8]
    1238:	e59d3004 	ldr	r3, [sp, #4]
    123c:	0afffff3 	beq	1210 <__register_exitproc+0x3c>
    1240:	e5945148 	ldr	r5, [r4, #328]	; 0x148
    1244:	e3a00000 	mov	r0, #0
    1248:	e58c0004 	str	r0, [r12, #4]
    124c:	e58c5000 	str	r5, [r12]
    1250:	e584c148 	str	r12, [r4, #328]	; 0x148
    1254:	e58c0188 	str	r0, [r12, #392]	; 0x188
    1258:	e58c018c 	str	r0, [r12, #396]	; 0x18c
    125c:	e3560000 	cmp	r6, #0
    1260:	e59c4004 	ldr	r4, [r12, #4]
    1264:	1a000007 	bne	1288 <__register_exitproc+0xb4>
    1268:	e2843002 	add	r3, r4, #2
    126c:	e2844001 	add	r4, r4, #1
    1270:	e78c1103 	str	r1, [r12, r3, lsl #2]
    1274:	e58c4004 	str	r4, [r12, #4]
    1278:	e3a00000 	mov	r0, #0
    127c:	e28dd010 	add	sp, sp, #16
    1280:	e8bd41f0 	pop	{r4, r5, r6, r7, r8, lr}
    1284:	e12fff1e 	bx	lr
    1288:	e3a00001 	mov	r0, #1
    128c:	e1a00410 	lsl	r0, r0, r4
    1290:	e08c8104 	add	r8, r12, r4, lsl #2
    1294:	e3560002 	cmp	r6, #2
    1298:	e59c7188 	ldr	r7, [r12, #392]	; 0x188
    129c:	e5883108 	str	r3, [r8, #264]	; 0x108
    12a0:	059c318c 	ldreq	r3, [r12, #396]	; 0x18c
    12a4:	e1877000 	orr	r7, r7, r0
    12a8:	01830000 	orreq	r0, r3, r0
    12ac:	e1a05008 	mov	r5, r8
    12b0:	e5882088 	str	r2, [r8, #136]	; 0x88
    12b4:	e58c7188 	str	r7, [r12, #392]	; 0x188
    12b8:	058c018c 	streq	r0, [r12, #396]	; 0x18c
    12bc:	eaffffe9 	b	1268 <__register_exitproc+0x94>
    12c0:	0004c8b8 	.word	0x0004c8b8
    12c4:	00000000 	.word	0x00000000

000012c8 <__call_exitprocs>:
    12c8:	e92d4ff0 	push	{r4, r5, r6, r7, r8, r9, r10, r11, lr}
    12cc:	e59f3168 	ldr	r3, [pc, #360]	; 143c <__call_exitprocs+0x174>
    12d0:	e5933000 	ldr	r3, [r3]
    12d4:	e24dd014 	sub	sp, sp, #20
    12d8:	e58d3004 	str	r3, [sp, #4]
    12dc:	e2833f52 	add	r3, r3, #328	; 0x148
    12e0:	e58d0008 	str	r0, [sp, #8]
    12e4:	e58d300c 	str	r3, [sp, #12]
    12e8:	e1a07001 	mov	r7, r1
    12ec:	e3a08001 	mov	r8, #1
    12f0:	e59d3004 	ldr	r3, [sp, #4]
    12f4:	e5936148 	ldr	r6, [r3, #328]	; 0x148
    12f8:	e3560000 	cmp	r6, #0
    12fc:	e59db00c 	ldr	r11, [sp, #12]
    1300:	0a000033 	beq	13d4 <__call_exitprocs+0x10c>
    1304:	e5965004 	ldr	r5, [r6, #4]
    1308:	e2554001 	subs	r4, r5, #1
    130c:	5286a088 	addpl	r10, r6, #136	; 0x88
    1310:	5285501f 	addpl	r5, r5, #31
    1314:	508a5105 	addpl	r5, r10, r5, lsl #2
    1318:	5a000007 	bpl	133c <__call_exitprocs+0x74>
    131c:	ea000029 	b	13c8 <__call_exitprocs+0x100>
    1320:	e5953000 	ldr	r3, [r5]
    1324:	e1530007 	cmp	r3, r7
    1328:	0a000005 	beq	1344 <__call_exitprocs+0x7c>
    132c:	e2444001 	sub	r4, r4, #1
    1330:	e3740001 	cmn	r4, #1
    1334:	e2455004 	sub	r5, r5, #4
    1338:	0a000022 	beq	13c8 <__call_exitprocs+0x100>
    133c:	e3570000 	cmp	r7, #0
    1340:	1afffff6 	bne	1320 <__call_exitprocs+0x58>
    1344:	e5963004 	ldr	r3, [r6, #4]
    1348:	e06a2005 	rsb	r2, r10, r5
    134c:	e2433001 	sub	r3, r3, #1
    1350:	e0862002 	add	r2, r6, r2
    1354:	e1530004 	cmp	r3, r4
    1358:	e5123078 	ldr	r3, [r2, #-120]	; 0xffffff88
    135c:	13a01000 	movne	r1, #0
    1360:	05864004 	streq	r4, [r6, #4]
    1364:	15021078 	strne	r1, [r2, #-120]	; 0xffffff88
    1368:	e3530000 	cmp	r3, #0
    136c:	0affffee 	beq	132c <__call_exitprocs+0x64>
    1370:	e1a02418 	lsl	r2, r8, r4
    1374:	e5961188 	ldr	r1, [r6, #392]	; 0x188
    1378:	e1120001 	tst	r2, r1
    137c:	e5969004 	ldr	r9, [r6, #4]
    1380:	0a000016 	beq	13e0 <__call_exitprocs+0x118>
    1384:	e596118c 	ldr	r1, [r6, #396]	; 0x18c
    1388:	e1120001 	tst	r2, r1
    138c:	1a000016 	bne	13ec <__call_exitprocs+0x124>
    1390:	e59d0008 	ldr	r0, [sp, #8]
    1394:	e5151080 	ldr	r1, [r5, #-128]	; 0xffffff80
    1398:	e1a0e00f 	mov	lr, pc
    139c:	e12fff13 	bx	r3
    13a0:	e5963004 	ldr	r3, [r6, #4]
    13a4:	e1530009 	cmp	r3, r9
    13a8:	1affffd0 	bne	12f0 <__call_exitprocs+0x28>
    13ac:	e59b3000 	ldr	r3, [r11]
    13b0:	e1530006 	cmp	r3, r6
    13b4:	1affffcd 	bne	12f0 <__call_exitprocs+0x28>
    13b8:	e2444001 	sub	r4, r4, #1
    13bc:	e3740001 	cmn	r4, #1
    13c0:	e2455004 	sub	r5, r5, #4
    13c4:	1affffdc 	bne	133c <__call_exitprocs+0x74>
    13c8:	e59f1070 	ldr	r1, [pc, #112]	; 1440 <__call_exitprocs+0x178>
    13cc:	e3510000 	cmp	r1, #0
    13d0:	1a000009 	bne	13fc <__call_exitprocs+0x134>
    13d4:	e28dd014 	add	sp, sp, #20
    13d8:	e8bd4ff0 	pop	{r4, r5, r6, r7, r8, r9, r10, r11, lr}
    13dc:	e12fff1e 	bx	lr
    13e0:	e1a0e00f 	mov	lr, pc
    13e4:	e12fff13 	bx	r3
    13e8:	eaffffec 	b	13a0 <__call_exitprocs+0xd8>
    13ec:	e5150080 	ldr	r0, [r5, #-128]	; 0xffffff80
    13f0:	e1a0e00f 	mov	lr, pc
    13f4:	e12fff13 	bx	r3
    13f8:	eaffffe8 	b	13a0 <__call_exitprocs+0xd8>
    13fc:	e5963004 	ldr	r3, [r6, #4]
    1400:	e3530000 	cmp	r3, #0
    1404:	e5963000 	ldr	r3, [r6]
    1408:	1a000008 	bne	1430 <__call_exitprocs+0x168>
    140c:	e3530000 	cmp	r3, #0
    1410:	0a000006 	beq	1430 <__call_exitprocs+0x168>
    1414:	e1a00006 	mov	r0, r6
    1418:	e58b3000 	str	r3, [r11]
    141c:	e320f000 	nop	{0}
    1420:	e59b6000 	ldr	r6, [r11]
    1424:	e3560000 	cmp	r6, #0
    1428:	1affffb5 	bne	1304 <__call_exitprocs+0x3c>
    142c:	eaffffe8 	b	13d4 <__call_exitprocs+0x10c>
    1430:	e1a0b006 	mov	r11, r6
    1434:	e1a06003 	mov	r6, r3
    1438:	eafffff9 	b	1424 <__call_exitprocs+0x15c>
    143c:	0004c8b8 	.word	0x0004c8b8
    1440:	00000000 	.word	0x00000000

00001444 <register_fini>:
    1444:	e92d4008 	push	{r3, lr}
    1448:	e59f3010 	ldr	r3, [pc, #16]	; 1460 <register_fini+0x1c>
    144c:	e3530000 	cmp	r3, #0
    1450:	159f000c 	ldrne	r0, [pc, #12]	; 1464 <register_fini+0x20>
    1454:	1bffff2b 	blne	1108 <atexit>
    1458:	e8bd4008 	pop	{r3, lr}
    145c:	e12fff1e 	bx	lr
    1460:	0004c8e0 	.word	0x0004c8e0
    1464:	00001468 	.word	0x00001468

00001468 <__libc_fini_array>:
    1468:	e92d4038 	push	{r3, r4, r5, lr}
    146c:	e59f5030 	ldr	r5, [pc, #48]	; 14a4 <__libc_fini_array+0x3c>
    1470:	e59f4030 	ldr	r4, [pc, #48]	; 14a8 <__libc_fini_array+0x40>
    1474:	e0654004 	rsb	r4, r5, r4
    1478:	e1b04144 	asrs	r4, r4, #2
    147c:	10855104 	addne	r5, r5, r4, lsl #2
    1480:	0a000004 	beq	1498 <__libc_fini_array+0x30>
    1484:	e5353004 	ldr	r3, [r5, #-4]!
    1488:	e1a0e00f 	mov	lr, pc
    148c:	e12fff13 	bx	r3
    1490:	e2544001 	subs	r4, r4, #1
    1494:	1afffffa 	bne	1484 <__libc_fini_array+0x1c>
    1498:	eb012d10 	bl	4c8e0 <__libc_fini>
    149c:	e8bd4038 	pop	{r3, r4, r5, lr}
    14a0:	e12fff1e 	bx	lr
    14a4:	0004c8f8 	.word	0x0004c8f8
    14a8:	0004c8fc 	.word	0x0004c8fc

000014ac <__cs3_premain>:
    14ac:	e92d4008 	push	{r3, lr}
    14b0:	eb000017 	bl	1514 <__libc_init_array>
    14b4:	e59f3030 	ldr	r3, [pc, #48]	; 14ec <__cs3_premain+0x40>
    14b8:	e3530000 	cmp	r3, #0
    14bc:	15930000 	ldrne	r0, [r3]
    14c0:	01a00003 	moveq	r0, r3
    14c4:	e59f3024 	ldr	r3, [pc, #36]	; 14f0 <__cs3_premain+0x44>
    14c8:	e3530000 	cmp	r3, #0
    14cc:	15931000 	ldrne	r1, [r3]
    14d0:	01a01003 	moveq	r1, r3
    14d4:	e3a02000 	mov	r2, #0
    14d8:	ebfffe93 	bl	f2c <main>
    14dc:	e59f3010 	ldr	r3, [pc, #16]	; 14f4 <__cs3_premain+0x48>
    14e0:	e3530000 	cmp	r3, #0
    14e4:	1bffff0f 	blne	1128 <exit>
    14e8:	eafffffe 	b	14e8 <__cs3_premain+0x3c>
	...
    14f4:	00001128 	.word	0x00001128

000014f8 <_exit>:
    14f8:	e52de004 	push	{lr}		; (str lr, [sp, #-4]!)
    14fc:	e3a00018 	mov	r0, #24
    1500:	e59f1004 	ldr	r1, [pc, #4]	; 150c <_exit+0x14>
    1504:	ef123456 	svc	0x00123456
    1508:	eafffffe 	b	1508 <_exit+0x10>
    150c:	00020026 	.word	0x00020026

00001510 <__cs3_isr_interrupt>:
    1510:	eafffffe 	b	1510 <__cs3_isr_interrupt>

00001514 <__libc_init_array>:
    1514:	e92d4070 	push	{r4, r5, r6, lr}
    1518:	e59f506c 	ldr	r5, [pc, #108]	; 158c <__libc_init_array+0x78>
    151c:	e59f606c 	ldr	r6, [pc, #108]	; 1590 <__libc_init_array+0x7c>
    1520:	e0656006 	rsb	r6, r5, r6
    1524:	e1b06146 	asrs	r6, r6, #2
    1528:	12455004 	subne	r5, r5, #4
    152c:	13a04000 	movne	r4, #0
    1530:	0a000005 	beq	154c <__libc_init_array+0x38>
    1534:	e5b53004 	ldr	r3, [r5, #4]!
    1538:	e2844001 	add	r4, r4, #1
    153c:	e1a0e00f 	mov	lr, pc
    1540:	e12fff13 	bx	r3
    1544:	e1560004 	cmp	r6, r4
    1548:	1afffff9 	bne	1534 <__libc_init_array+0x20>
    154c:	e59f5040 	ldr	r5, [pc, #64]	; 1594 <__libc_init_array+0x80>
    1550:	e59f6040 	ldr	r6, [pc, #64]	; 1598 <__libc_init_array+0x84>
    1554:	e0656006 	rsb	r6, r5, r6
    1558:	eb012cd8 	bl	4c8c0 <_init>
    155c:	e1b06146 	asrs	r6, r6, #2
    1560:	12455004 	subne	r5, r5, #4
    1564:	13a04000 	movne	r4, #0
    1568:	0a000005 	beq	1584 <__libc_init_array+0x70>
    156c:	e5b53004 	ldr	r3, [r5, #4]!
    1570:	e2844001 	add	r4, r4, #1
    1574:	e1a0e00f 	mov	lr, pc
    1578:	e12fff13 	bx	r3
    157c:	e1560004 	cmp	r6, r4
    1580:	1afffff9 	bne	156c <__libc_init_array+0x58>
    1584:	e8bd4070 	pop	{r4, r5, r6, lr}
    1588:	e12fff1e 	bx	lr
    158c:	0004c8d8 	.word	0x0004c8d8
    1590:	0004c8d8 	.word	0x0004c8d8
    1594:	0004c8d8 	.word	0x0004c8d8
    1598:	0004c8e0 	.word	0x0004c8e0

Disassembly of section .rodata:

000015a0 <gameOver>:
    15a0:	ffffffff ffffffff ffffffff ffffffff     ................
    15b0:	ffffffff ffffffff ffffffff ffffffff     ................
    15c0:	ffffffff ffffffff ffffffff ffffffff     ................
    15d0:	ffffffff ffffffff ffffffff ffffffff     ................
    15e0:	ffffffff ffffffff ffffffff ffffffff     ................
    15f0:	ffffffff ffffffff ffffffff ffffffff     ................
    1600:	ffffffff ffffffff ffffffff ffffffff     ................
    1610:	ffffffff ffffffff ffffffff ffffffff     ................
    1620:	ffffffff ffffffff ffffffff ffffffff     ................
    1630:	ffffffff ffffffff ffffffff ffffffff     ................
    1640:	ffffffff ffffffff ffffffff ffffffff     ................
    1650:	ffffffff ffffffff ffffffff ffffffff     ................
    1660:	ffffffff ffffffff ffffffff ffffffff     ................
    1670:	ffffffff ffffffff ffffffff ffffffff     ................
    1680:	ffffffff ffffffff ffffffff ffffffff     ................
    1690:	ffffffff ffffffff ffffffff ffffffff     ................
    16a0:	ffffffff ffffffff ffffffff ffffffff     ................
    16b0:	ffffffff ffffffff ffffffff ffffffff     ................
    16c0:	ffffffff ffffffff ffffffff ffffffff     ................
    16d0:	ffffffff ffffffff ffffffff ffffffff     ................
    16e0:	ffffffff ffffffff ffffffff ffffffff     ................
    16f0:	ffffffff ffffffff ffffffff ffffffff     ................
    1700:	ffffffff ffffffff ffffffff ffffffff     ................
    1710:	ffffffff ffffffff ffffffff ffffffff     ................
    1720:	ffffffff ffffffff ffffffff ffffffff     ................
    1730:	ffffffff ffffffff ffffffff ffffffff     ................
    1740:	ffffffff ffffffff ffffffff ffffffff     ................
    1750:	ffffffff ffffffff ffffffff ffffffff     ................
    1760:	ffffffff ffffffff ffffffff ffffffff     ................
    1770:	ffffffff ffffffff ffffffff ffffffff     ................
    1780:	ffffffff ffffffff ffffffff ffffffff     ................
    1790:	ffffffff ffffffff ffffffff ffffffff     ................
    17a0:	ffffffff ffffffff ffffffff ffffffff     ................
    17b0:	ffffffff ffffffff ffffffff ffffffff     ................
    17c0:	ffffffff ffffffff ffffffff ffffffff     ................
    17d0:	ffffffff ffffffff ffffffff ffffffff     ................
    17e0:	ffffffff ffffffff ffffffff ffffffff     ................
    17f0:	ffffffff ffffffff ffffffff ffffffff     ................
    1800:	ffffffff ffffffff ffffffff ffffffff     ................
    1810:	ffffffff ffffffff ffffffff ffffffff     ................
    1820:	ffffffff ffffffff ffffffff ffffffff     ................
    1830:	ffffffff ffffffff ffffffff ffffffff     ................
    1840:	ffffffff ffffffff ffffffff ffffffff     ................
    1850:	ffffffff ffffffff ffffffff ffffffff     ................
    1860:	ffffffff ffffffff ffffffff ffffffff     ................
    1870:	ffffffff ffffffff ffffffff ffffffff     ................
    1880:	ffffffff ffffffff ffffffff ffffffff     ................
    1890:	ffffffff ffffffff ffffffff ffffffff     ................
    18a0:	ffffffff ffffffff ffffffff ffffffff     ................
    18b0:	ffffffff ffffffff ffffffff ffffffff     ................
    18c0:	ffffffff ffffffff ffffffff ffffffff     ................
    18d0:	ffffffff ffffffff ffffffff ffffffff     ................
    18e0:	ffffffff ffffffff ffffffff ffffffff     ................
    18f0:	ffffffff ffffffff ffffffff ffffffff     ................
    1900:	ffffffff ffffffff ffffffff ffffffff     ................
    1910:	ffffffff ffffffff ffffffff ffffffff     ................
    1920:	ffffffff ffffffff ffffffff ffffffff     ................
    1930:	ffffffff ffffffff ffffffff ffffffff     ................
    1940:	ffffffff ffffffff ffffffff ffffffff     ................
    1950:	ffffffff ffffffff ffffffff ffffffff     ................
    1960:	ffffffff ffffffff ffffffff ffffffff     ................
    1970:	ffffffff ffffffff ffffffff ffffffff     ................
    1980:	ffffffff ffffffff ffffffff ffffffff     ................
    1990:	ffffffff ffffffff ffffffff ffffffff     ................
    19a0:	ffffffff ffffffff ffffffff ffffffff     ................
    19b0:	ffffffff ffffffff ffffffff ffffffff     ................
    19c0:	ffffffff ffffffff ffffffff ffffffff     ................
    19d0:	ffffffff ffffffff ffffffff ffffffff     ................
    19e0:	ffffffff ffffffff ffffffff ffffffff     ................
    19f0:	ffffffff ffffffff ffffffff ffffffff     ................
    1a00:	ffffffff ffffffff ffffffff ffffffff     ................
    1a10:	ffffffff ffffffff ffffffff ffffffff     ................
    1a20:	ffffffff ffffffff ffffffff ffffffff     ................
    1a30:	ffffffff ffffffff ffffffff ffffffff     ................
    1a40:	ffffffff ffffffff ffffffff ffffffff     ................
    1a50:	ffffffff ffffffff ffffffff ffffffff     ................
    1a60:	ffffffff ffffffff ffffffff ffffffff     ................
    1a70:	ffffffff ffffffff ffffffff ffffffff     ................
    1a80:	ffffffff ffffffff ffffffff ffffffff     ................
    1a90:	ffffffff ffffffff ffffffff ffffffff     ................
    1aa0:	ffffffff ffffffff ffffffff ffffffff     ................
    1ab0:	ffffffff ffffffff ffffffff ffffffff     ................
    1ac0:	ffffffff ffffffff ffffffff ffffffff     ................
    1ad0:	ffffffff ffffffff ffffffff ffffffff     ................
    1ae0:	ffffffff ffffffff ffffffff ffffffff     ................
    1af0:	ffffffff ffffffff ffffffff ffffffff     ................
    1b00:	ffffffff ffffffff ffffffff ffffffff     ................
    1b10:	ffffffff ffffffff ffffffff ffffffff     ................
    1b20:	ffffffff ffffffff ffffffff ffffffff     ................
    1b30:	ffffffff ffffffff ffffffff ffffffff     ................
    1b40:	ffffffff ffffffff ffffffff ffffffff     ................
    1b50:	ffffffff ffffffff ffffffff ffffffff     ................
    1b60:	ffffffff ffffffff ffffffff ffffffff     ................
    1b70:	ffffffff ffffffff ffffffff ffffffff     ................
    1b80:	ffffffff ffffffff ffffffff ffffffff     ................
    1b90:	ffffffff ffffffff ffffffff ffffffff     ................
    1ba0:	ffffffff ffffffff ffffffff ffffffff     ................
    1bb0:	ffffffff ffffffff ffffffff ffffffff     ................
    1bc0:	ffffffff ffffffff ffffffff ffffffff     ................
    1bd0:	ffffffff ffffffff ffffffff ffffffff     ................
    1be0:	ffffffff ffffffff ffffffff ffffffff     ................
    1bf0:	ffffffff ffffffff ffffffff ffffffff     ................
    1c00:	ffffffff ffffffff ffffffff ffffffff     ................
    1c10:	ffffffff ffffffff ffffffff ffffffff     ................
    1c20:	ffffffff ffffffff ffffffff ffffffff     ................
    1c30:	ffffffff ffffffff ffffffff ffffffff     ................
    1c40:	ffffffff ffffffff ffffffff ffffffff     ................
    1c50:	ffffffff ffffffff ffffffff ffffffff     ................
    1c60:	ffffffff ffffffff ffffffff ffffffff     ................
    1c70:	ffffffff ffffffff ffffffff ffffffff     ................
    1c80:	ffffffff ffffffff ffffffff ffffffff     ................
    1c90:	ffffffff ffffffff ffffffff ffffffff     ................
    1ca0:	ffffffff ffffffff ffffffff ffffffff     ................
    1cb0:	ffffffff ffffffff ffffffff ffffffff     ................
    1cc0:	ffffffff ffffffff ffffffff ffffffff     ................
    1cd0:	ffffffff ffffffff ffffffff ffffffff     ................
    1ce0:	ffffffff ffffffff ffffffff ffffffff     ................
    1cf0:	ffffffff ffffffff ffffffff ffffffff     ................
    1d00:	ffffffff ffffffff ffffffff ffffffff     ................
    1d10:	ffffffff ffffffff ffffffff ffffffff     ................
    1d20:	ffffffff ffffffff ffffffff ffffffff     ................
    1d30:	ffffffff ffffffff ffffffff ffffffff     ................
    1d40:	ffffffff ffffffff ffffffff ffffffff     ................
    1d50:	ffffffff ffffffff ffffffff ffffffff     ................
    1d60:	ffffffff ffffffff ffffffff ffffffff     ................
    1d70:	ffffffff ffffffff ffffffff ffffffff     ................
    1d80:	ffffffff ffffffff ffffffff ffffffff     ................
    1d90:	ffffffff ffffffff ffffffff ffffffff     ................
    1da0:	ffffffff ffffffff ffffffff ffffffff     ................
    1db0:	ffffffff ffffffff ffffffff ffffffff     ................
    1dc0:	ffffffff ffffffff ffffffff ffffffff     ................
    1dd0:	ffffffff ffffffff ffffffff ffffffff     ................
    1de0:	ffffffff ffffffff ffffffff ffffffff     ................
    1df0:	ffffffff ffffffff ffffffff ffffffff     ................
    1e00:	ffffffff ffffffff ffffffff ffffffff     ................
    1e10:	ffffffff ffffffff ffffffff ffffffff     ................
    1e20:	ffffffff ffffffff ffffffff ffffffff     ................
    1e30:	ffffffff ffffffff ffffffff ffffffff     ................
    1e40:	ffffffff ffffffff ffffffff ffffffff     ................
    1e50:	ffffffff ffffffff ffffffff ffffffff     ................
    1e60:	ffffffff ffffffff ffffffff ffffffff     ................
    1e70:	ffffffff ffffffff ffffffff ffffffff     ................
    1e80:	ffffffff ffffffff ffffffff ffffffff     ................
    1e90:	ffffffff ffffffff ffffffff ffffffff     ................
    1ea0:	ffffffff ffffffff ffffffff ffffffff     ................
    1eb0:	ffffffff ffffffff ffffffff ffffffff     ................
    1ec0:	ffffffff ffffffff ffffffff ffffffff     ................
    1ed0:	ffffffff ffffffff ffffffff ffffffff     ................
    1ee0:	ffffffff ffffffff ffffffff ffffffff     ................
    1ef0:	ffffffff ffffffff ffffffff ffffffff     ................
    1f00:	ffffffff ffffffff ffffffff ffffffff     ................
    1f10:	ffffffff ffffffff ffffffff ffffffff     ................
    1f20:	ffffffff ffffffff ffffffff ffffffff     ................
    1f30:	ffffffff ffffffff ffffffff ffffffff     ................
    1f40:	ffffffff ffffffff ffffffff ffffffff     ................
    1f50:	ffffffff ffffffff ffffffff ffffffff     ................
    1f60:	ffffffff ffffffff ffffffff ffffffff     ................
    1f70:	ffffffff ffffffff ffffffff ffffffff     ................
    1f80:	ffffffff ffffffff ffffffff ffffffff     ................
    1f90:	ffffffff ffffffff ffffffff ffffffff     ................
    1fa0:	ffffffff ffffffff ffffffff ffffffff     ................
    1fb0:	ffffffff ffffffff ffffffff ffffffff     ................
    1fc0:	ffffffff ffffffff ffffffff ffffffff     ................
    1fd0:	ffffffff ffffffff ffffffff ffffffff     ................
    1fe0:	ffffffff ffffffff ffffffff ffffffff     ................
    1ff0:	ffffffff ffffffff ffffffff ffffffff     ................
    2000:	ffffffff ffffffff ffffffff ffffffff     ................
    2010:	ffffffff ffffffff ffffffff ffffffff     ................
    2020:	ffffffff ffffffff ffffffff ffffffff     ................
    2030:	ffffffff ffffffff ffffffff ffffffff     ................
    2040:	ffffffff ffffffff ffffffff ffffffff     ................
    2050:	ffffffff ffffffff ffffffff ffffffff     ................
    2060:	ffffffff ffffffff ffffffff ffffffff     ................
    2070:	ffffffff ffffffff ffffffff ffffffff     ................
    2080:	ffffffff ffffffff ffffffff ffffffff     ................
    2090:	ffffffff ffffffff ffffffff ffffffff     ................
    20a0:	ffffffff ffffffff ffffffff ffffffff     ................
    20b0:	ffffffff ffffffff ffffffff ffffffff     ................
    20c0:	ffffffff ffffffff ffffffff ffffffff     ................
    20d0:	ffffffff ffffffff ffffffff ffffffff     ................
    20e0:	ffffffff ffffffff ffffffff ffffffff     ................
    20f0:	ffffffff ffffffff ffffffff ffffffff     ................
    2100:	ffffffff ffffffff ffffffff ffffffff     ................
    2110:	ffffffff ffffffff ffffffff ffffffff     ................
    2120:	ffffffff ffffffff ffffffff ffffffff     ................
    2130:	ffffffff ffffffff ffffffff ffffffff     ................
    2140:	ffffffff ffffffff ffffffff ffffffff     ................
    2150:	ffffffff ffffffff ffffffff ffffffff     ................
    2160:	ffffffff ffffffff ffffffff ffffffff     ................
    2170:	ffffffff ffffffff ffffffff ffffffff     ................
    2180:	ffffffff ffffffff ffffffff ffffffff     ................
    2190:	ffffffff ffffffff ffffffff ffffffff     ................
    21a0:	ffffffff ffffffff ffffffff ffffffff     ................
    21b0:	ffffffff ffffffff ffffffff ffffffff     ................
    21c0:	ffffffff ffffffff ffffffff ffffffff     ................
    21d0:	ffffffff ffffffff ffffffff ffffffff     ................
    21e0:	ffffffff ffffffff ffffffff ffffffff     ................
    21f0:	ffffffff ffffffff ffffffff ffffffff     ................
    2200:	ffffffff ffffffff ffffffff ffffffff     ................
    2210:	ffffffff ffffffff ffffffff ffffffff     ................
    2220:	ffffffff ffffffff ffffffff ffffffff     ................
    2230:	ffffffff ffffffff ffffffff ffffffff     ................
    2240:	ffffffff ffffffff ffffffff ffffffff     ................
    2250:	ffffffff ffffffff ffffffff ffffffff     ................
    2260:	ffffffff ffffffff ffffffff ffffffff     ................
    2270:	ffffffff ffffffff ffffffff ffffffff     ................
    2280:	ffffffff ffffffff ffffffff ffffffff     ................
    2290:	ffffffff ffffffff ffffffff ffffffff     ................
    22a0:	ffffffff ffffffff ffffffff ffffffff     ................
    22b0:	ffffffff ffffffff ffffffff ffffffff     ................
    22c0:	ffffffff ffffffff ffffffff ffffffff     ................
    22d0:	ffffffff ffffffff ffffffff ffffffff     ................
    22e0:	ffffffff ffffffff ffffffff ffffffff     ................
    22f0:	ffffffff ffffffff ffffffff ffffffff     ................
    2300:	ffffffff ffffffff ffffffff ffffffff     ................
    2310:	ffffffff ffffffff ffffffff ffffffff     ................
    2320:	ffffffff ffffffff ffffffff ffffffff     ................
    2330:	ffffffff ffffffff ffffffff ffffffff     ................
    2340:	ffffffff ffffffff ffffffff ffffffff     ................
    2350:	ffffffff ffffffff ffffffff ffffffff     ................
    2360:	ffffffff ffffffff ffffffff ffffffff     ................
    2370:	ffffffff ffffffff ffffffff ffffffff     ................
    2380:	ffffffff ffffffff ffffffff ffffffff     ................
    2390:	ffffffff ffffffff ffffffff ffffffff     ................
    23a0:	ffffffff ffffffff ffffffff ffffffff     ................
    23b0:	ffffffff ffffffff ffffffff ffffffff     ................
    23c0:	ffffffff ffffffff ffffffff ffffffff     ................
    23d0:	ffffffff ffffffff ffffffff ffffffff     ................
    23e0:	ffffffff ffffffff ffffffff ffffffff     ................
    23f0:	ffffffff ffffffff ffffffff ffffffff     ................
    2400:	ffffffff ffffffff ffffffff ffffffff     ................
    2410:	ffffffff ffffffff ffffffff ffffffff     ................
    2420:	ffffffff ffffffff ffffffff ffffffff     ................
    2430:	ffffffff ffffffff ffffffff ffffffff     ................
    2440:	ffffffff ffffffff ffffffff ffffffff     ................
    2450:	ffffffff ffffffff ffffffff ffffffff     ................
    2460:	ffffffff ffffffff ffffffff ffffffff     ................
    2470:	ffffffff ffffffff ffffffff ffffffff     ................
    2480:	ffffffff ffffffff ffffffff ffffffff     ................
    2490:	ffffffff ffffffff ffffffff ffffffff     ................
    24a0:	ffffffff ffffffff ffffffff ffffffff     ................
    24b0:	ffffffff ffffffff ffffffff ffffffff     ................
    24c0:	ffffffff ffffffff ffffffff ffffffff     ................
    24d0:	ffffffff ffffffff ffffffff ffffffff     ................
    24e0:	ffffffff ffffffff ffffffff ffffffff     ................
    24f0:	ffffffff ffffffff ffffffff ffffffff     ................
    2500:	ffffffff ffffffff ffffffff ffffffff     ................
    2510:	ffffffff ffffffff ffffffff ffffffff     ................
    2520:	ffffffff ffffffff ffffffff ffffffff     ................
    2530:	ffffffff ffffffff ffffffff ffffffff     ................
    2540:	ffffffff ffffffff ffffffff ffffffff     ................
    2550:	ffffffff ffffffff ffffffff ffffffff     ................
    2560:	ffffffff ffffffff ffffffff ffffffff     ................
    2570:	ffffffff ffffffff ffffffff ffffffff     ................
    2580:	ffffffff ffffffff ffffffff ffffffff     ................
    2590:	ffffffff ffffffff ffffffff ffffffff     ................
    25a0:	ffffffff ffffffff ffffffff ffffffff     ................
    25b0:	ffffffff ffffffff ffffffff ffffffff     ................
    25c0:	ffffffff ffffffff ffffffff ffffffff     ................
    25d0:	ffffffff ffffffff ffffffff ffffffff     ................
    25e0:	ffffffff ffffffff ffffffff ffffffff     ................
    25f0:	ffffffff ffffffff ffffffff ffffffff     ................
    2600:	ffffffff ffffffff ffffffff ffffffff     ................
    2610:	ffffffff ffffffff ffffffff ffffffff     ................
    2620:	ffffffff ffffffff ffffffff ffffffff     ................
    2630:	ffffffff ffffffff ffffffff ffffffff     ................
    2640:	ffffffff ffffffff ffffffff ffffffff     ................
    2650:	ffffffff ffffffff ffffffff ffffffff     ................
    2660:	ffffffff ffffffff ffffffff ffffffff     ................
    2670:	ffffffff ffffffff ffffffff ffffffff     ................
    2680:	ffffffff ffffffff ffffffff ffffffff     ................
    2690:	ffffffff ffffffff ffffffff ffffffff     ................
    26a0:	ffffffff ffffffff ffffffff ffffffff     ................
    26b0:	ffffffff ffffffff ffffffff ffffffff     ................
    26c0:	ffffffff ffffffff ffffffff ffffffff     ................
    26d0:	ffffffff ffffffff ffffffff ffffffff     ................
    26e0:	ffffffff ffffffff ffffffff ffffffff     ................
    26f0:	ffffffff ffffffff ffffffff ffffffff     ................
    2700:	ffffffff ffffffff ffffffff ffffffff     ................
    2710:	ffffffff ffffffff ffffffff ffffffff     ................
    2720:	ffffffff ffffffff ffffffff ffffffff     ................
    2730:	ffffffff ffffffff ffffffff ffffffff     ................
    2740:	ffffffff ffffffff ffffffff ffffffff     ................
    2750:	ffffffff ffffffff ffffffff ffffffff     ................
    2760:	ffffffff ffffffff ffffffff ffffffff     ................
    2770:	ffffffff ffffffff ffffffff ffffffff     ................
    2780:	ffffffff ffffffff ffffffff ffffffff     ................
    2790:	ffffffff ffffffff ffffffff ffffffff     ................
    27a0:	ffffffff ffffffff ffffffff ffffffff     ................
    27b0:	ffffffff ffffffff ffffffff ffffffff     ................
    27c0:	ffffffff ffffffff ffffffff ffffffff     ................
    27d0:	ffffffff ffffffff ffffffff ffffffff     ................
    27e0:	ffffffff ffffffff ffffffff ffffffff     ................
    27f0:	ffffffff ffffffff ffffffff ffffffff     ................
    2800:	ffffffff ffffffff ffffffff ffffffff     ................
    2810:	ffffffff ffffffff ffffffff ffffffff     ................
    2820:	ffffffff ffffffff ffffffff ffffffff     ................
    2830:	ffffffff ffffffff ffffffff ffffffff     ................
    2840:	ffffffff ffffffff ffffffff ffffffff     ................
    2850:	ffffffff ffffffff ffffffff ffffffff     ................
    2860:	ffffffff ffffffff ffffffff ffffffff     ................
    2870:	ffffffff ffffffff ffffffff ffffffff     ................
    2880:	ffffffff ffffffff ffffffff ffffffff     ................
    2890:	ffffffff ffffffff ffffffff ffffffff     ................
    28a0:	ffffffff ffffffff ffffffff ffffffff     ................
    28b0:	ffffffff ffffffff ffffffff ffffffff     ................
    28c0:	ffffffff ffffffff ffffffff ffffffff     ................
    28d0:	ffffffff ffffffff ffffffff ffffffff     ................
    28e0:	ffffffff ffffffff ffffffff ffffffff     ................
    28f0:	ffffffff ffffffff ffffffff ffffffff     ................
    2900:	ffffffff ffffffff ffffffff ffffffff     ................
    2910:	ffffffff ffffffff ffffffff ffffffff     ................
    2920:	ffffffff ffffffff ffffffff ffffffff     ................
    2930:	ffffffff ffffffff ffffffff ffffffff     ................
    2940:	ffffffff ffffffff ffffffff ffffffff     ................
    2950:	ffffffff ffffffff ffffffff ffffffff     ................
    2960:	ffffffff ffffffff ffffffff ffffffff     ................
    2970:	ffffffff ffffffff ffffffff ffffffff     ................
    2980:	ffffffff ffffffff ffffffff ffffffff     ................
    2990:	ffffffff ffffffff ffffffff ffffffff     ................
    29a0:	ffffffff ffffffff ffffffff ffffffff     ................
    29b0:	ffffffff ffffffff ffffffff ffffffff     ................
    29c0:	ffffffff ffffffff ffffffff ffffffff     ................
    29d0:	ffffffff ffffffff ffffffff ffffffff     ................
    29e0:	ffffffff ffffffff ffffffff ffffffff     ................
    29f0:	ffffffff ffffffff ffffffff ffffffff     ................
    2a00:	ffffffff ffffffff ffffffff ffffffff     ................
    2a10:	ffffffff ffffffff ffffffff ffffffff     ................
    2a20:	ffffffff ffffffff ffffffff ffffffff     ................
    2a30:	ffffffff ffffffff ffffffff ffffffff     ................
    2a40:	ffffffff ffffffff ffffffff ffffffff     ................
    2a50:	ffffffff ffffffff ffffffff ffffffff     ................
    2a60:	ffffffff ffffffff ffffffff ffffffff     ................
    2a70:	ffffffff ffffffff ffffffff ffffffff     ................
    2a80:	ffffffff ffffffff ffffffff ffffffff     ................
    2a90:	ffffffff ffffffff ffffffff ffffffff     ................
    2aa0:	ffffffff ffffffff ffffffff ffffffff     ................
    2ab0:	ffffffff ffffffff ffffffff ffffffff     ................
    2ac0:	ffffffff ffffffff ffffffff ffffffff     ................
    2ad0:	ffffffff ffffffff ffffffff ffffffff     ................
    2ae0:	ffffffff ffffffff ffffffff ffffffff     ................
    2af0:	ffffffff ffffffff ffffffff ffffffff     ................
    2b00:	ffffffff ffffffff ffffffff ffffffff     ................
    2b10:	ffffffff ffffffff ffffffff ffffffff     ................
    2b20:	ffffffff ffffffff ffffffff ffffffff     ................
    2b30:	ffffffff ffffffff ffffffff ffffffff     ................
    2b40:	ffffffff ffffffff ffffffff ffffffff     ................
    2b50:	ffffffff ffffffff ffffffff ffffffff     ................
    2b60:	ffffffff ffffffff ffffffff ffffffff     ................
    2b70:	ffffffff ffffffff ffffffff ffffffff     ................
    2b80:	ffffffff ffffffff ffffffff ffffffff     ................
    2b90:	ffffffff ffffffff ffffffff ffffffff     ................
    2ba0:	ffffffff ffffffff ffffffff ffffffff     ................
    2bb0:	ffffffff ffffffff ffffffff ffffffff     ................
    2bc0:	ffffffff ffffffff ffffffff ffffffff     ................
    2bd0:	ffffffff ffffffff ffffffff ffffffff     ................
    2be0:	ffffffff ffffffff ffffffff ffffffff     ................
    2bf0:	ffffffff ffffffff ffffffff ffffffff     ................
    2c00:	ffffffff ffffffff ffffffff ffffffff     ................
    2c10:	ffffffff ffffffff ffffffff ffffffff     ................
    2c20:	ffffffff ffffffff ffffffff ffffffff     ................
    2c30:	ffffffff ffffffff ffffffff ffffffff     ................
    2c40:	ffffffff ffffffff ffffffff ffffffff     ................
    2c50:	ffffffff ffffffff ffffffff ffffffff     ................
    2c60:	ffffffff ffffffff ffffffff ffffffff     ................
    2c70:	ffffffff ffffffff ffffffff ffffffff     ................
    2c80:	ffffffff ffffffff ffffffff ffffffff     ................
    2c90:	ffffffff ffffffff ffffffff ffffffff     ................
    2ca0:	ffffffff ffffffff ffffffff ffffffff     ................
    2cb0:	ffffffff ffffffff ffffffff ffffffff     ................
    2cc0:	ffffffff ffffffff ffffffff ffffffff     ................
    2cd0:	ffffffff ffffffff ffffffff ffffffff     ................
    2ce0:	ffffffff ffffffff ffffffff ffffffff     ................
    2cf0:	ffffffff ffffffff ffffffff ffffffff     ................
    2d00:	ffffffff ffffffff ffffffff ffffffff     ................
    2d10:	ffffffff ffffffff ffffffff ffffffff     ................
    2d20:	ffffffff ffffffff ffffffff ffffffff     ................
    2d30:	ffffffff ffffffff ffffffff ffffffff     ................
    2d40:	ffffffff ffffffff ffffffff ffffffff     ................
    2d50:	ffffffff ffffffff ffffffff ffffffff     ................
    2d60:	ffffffff ffffffff ffffffff ffffffff     ................
    2d70:	ffffffff ffffffff ffffffff ffffffff     ................
    2d80:	ffffffff ffffffff ffffffff ffffffff     ................
    2d90:	ffffffff ffffffff ffffffff ffffffff     ................
    2da0:	ffffffff ffffffff ffffffff ffffffff     ................
    2db0:	ffffffff ffffffff ffffffff ffffffff     ................
    2dc0:	ffffffff ffffffff ffffffff ffffffff     ................
    2dd0:	ffffffff ffffffff ffffffff ffffffff     ................
    2de0:	ffffffff ffffffff ffffffff ffffffff     ................
    2df0:	ffffffff ffffffff ffffffff ffffffff     ................
    2e00:	ffffffff ffffffff ffffffff ffffffff     ................
    2e10:	ffffffff ffffffff ffffffff ffffffff     ................
    2e20:	ffffffff ffffffff ffffffff ffffffff     ................
    2e30:	ffffffff ffffffff ffffffff ffffffff     ................
    2e40:	ffffffff ffffffff ffffffff ffffffff     ................
    2e50:	ffffffff ffffffff ffffffff ffffffff     ................
    2e60:	ffffffff ffffffff ffffffff ffffffff     ................
    2e70:	ffffffff ffffffff ffffffff ffffffff     ................
    2e80:	ffffffff ffffffff ffffffff ffffffff     ................
    2e90:	ffffffff ffffffff ffffffff ffffffff     ................
    2ea0:	ffffffff ffffffff ffffffff ffffffff     ................
    2eb0:	ffffffff ffffffff ffffffff ffffffff     ................
    2ec0:	ffffffff ffffffff ffffffff ffffffff     ................
    2ed0:	ffffffff ffffffff ffffffff ffffffff     ................
    2ee0:	ffffffff ffffffff ffffffff ffffffff     ................
    2ef0:	ffffffff ffffffff ffffffff ffffffff     ................
    2f00:	ffffffff ffffffff ffffffff ffffffff     ................
    2f10:	ffffffff ffffffff ffffffff ffffffff     ................
    2f20:	ffffffff ffffffff ffffffff ffffffff     ................
    2f30:	ffffffff ffffffff ffffffff ffffffff     ................
    2f40:	ffffffff ffffffff ffffffff ffffffff     ................
    2f50:	ffffffff ffffffff ffffffff ffffffff     ................
    2f60:	ffffffff ffffffff ffffffff ffffffff     ................
    2f70:	ffffffff ffffffff ffffffff ffffffff     ................
    2f80:	ffffffff ffffffff ffffffff ffffffff     ................
    2f90:	ffffffff ffffffff ffffffff ffffffff     ................
    2fa0:	ffffffff ffffffff ffffffff ffffffff     ................
    2fb0:	ffffffff ffffffff ffffffff ffffffff     ................
    2fc0:	ffffffff ffffffff ffffffff ffffffff     ................
    2fd0:	ffffffff ffffffff ffffffff ffffffff     ................
    2fe0:	ffffffff ffffffff ffffffff ffffffff     ................
    2ff0:	ffffffff ffffffff ffffffff ffffffff     ................
    3000:	ffffffff ffffffff ffffffff ffffffff     ................
    3010:	ffffffff ffffffff ffffffff ffffffff     ................
    3020:	ffffffff ffffffff ffffffff ffffffff     ................
    3030:	ffffffff ffffffff ffffffff ffffffff     ................
    3040:	ffffffff ffffffff ffffffff ffffffff     ................
    3050:	ffffffff ffffffff ffffffff ffffffff     ................
    3060:	ffffffff ffffffff ffffffff ffffffff     ................
    3070:	ffffffff ffffffff ffffffff ffffffff     ................
    3080:	ffffffff ffffffff ffffffff ffffffff     ................
    3090:	ffffffff ffffffff ffffffff ffffffff     ................
    30a0:	ffffffff ffffffff ffffffff ffffffff     ................
    30b0:	ffffffff ffffffff ffffffff ffffffff     ................
    30c0:	ffffffff ffffffff ffffffff ffffffff     ................
    30d0:	ffffffff ffffffff ffffffff ffffffff     ................
    30e0:	ffffffff ffffffff ffffffff ffffffff     ................
    30f0:	ffffffff ffffffff ffffffff ffffffff     ................
    3100:	ffffffff ffffffff ffffffff ffffffff     ................
    3110:	ffffffff ffffffff ffffffff ffffffff     ................
    3120:	ffffffff ffffffff ffffffff ffffffff     ................
    3130:	ffffffff ffffffff ffffffff ffffffff     ................
    3140:	ffffffff ffffffff ffffffff ffffffff     ................
    3150:	ffffffff ffffffff ffffffff ffffffff     ................
    3160:	ffffffff ffffffff ffffffff ffffffff     ................
    3170:	ffffffff ffffffff ffffffff ffffffff     ................
    3180:	ffffffff ffffffff ffffffff ffffffff     ................
    3190:	ffffffff ffffffff ffffffff ffffffff     ................
    31a0:	ffffffff ffffffff ffffffff ffffffff     ................
    31b0:	ffffffff ffffffff ffffffff ffffffff     ................
    31c0:	ffffffff ffffffff ffffffff ffffffff     ................
    31d0:	ffffffff ffffffff ffffffff ffffffff     ................
    31e0:	ffffffff ffffffff ffffffff ffffffff     ................
    31f0:	ffffffff ffffffff ffffffff ffffffff     ................
    3200:	ffffffff ffffffff ffffffff ffffffff     ................
    3210:	ffffffff ffffffff ffffffff ffffffff     ................
    3220:	ffffffff ffffffff ffffffff ffffffff     ................
    3230:	ffffffff ffffffff ffffffff ffffffff     ................
    3240:	ffffffff ffffffff ffffffff ffffffff     ................
    3250:	ffffffff ffffffff ffffffff ffffffff     ................
    3260:	ffffffff ffffffff ffffffff ffffffff     ................
    3270:	ffffffff ffffffff ffffffff ffffffff     ................
    3280:	ffffffff ffffffff ffffffff ffffffff     ................
    3290:	ffffffff ffffffff ffffffff ffffffff     ................
    32a0:	ffffffff ffffffff ffffffff ffffffff     ................
    32b0:	ffffffff ffffffff ffffffff ffffffff     ................
    32c0:	ffffffff ffffffff ffffffff ffffffff     ................
    32d0:	ffffffff ffffffff ffffffff ffffffff     ................
    32e0:	ffffffff ffffffff ffffffff ffffffff     ................
    32f0:	ffffffff ffffffff ffffffff ffffffff     ................
    3300:	ffffffff ffffffff ffffffff ffffffff     ................
    3310:	ffffffff ffffffff ffffffff ffffffff     ................
    3320:	ffffffff ffffffff ffffffff ffffffff     ................
    3330:	ffffffff ffffffff ffffffff ffffffff     ................
    3340:	ffffffff ffffffff ffffffff ffffffff     ................
    3350:	ffffffff ffffffff ffffffff ffffffff     ................
    3360:	ffffffff ffffffff ffffffff ffffffff     ................
    3370:	ffffffff ffffffff ffffffff ffffffff     ................
    3380:	ffffffff ffffffff ffffffff ffffffff     ................
    3390:	ffffffff ffffffff ffffffff ffffffff     ................
    33a0:	ffffffff ffffffff ffffffff ffffffff     ................
    33b0:	ffffffff ffffffff ffffffff ffffffff     ................
    33c0:	ffffffff ffffffff ffffffff ffffffff     ................
    33d0:	ffffffff ffffffff ffffffff ffffffff     ................
    33e0:	ffffffff ffffffff ffffffff ffffffff     ................
    33f0:	ffffffff ffffffff ffffffff ffffffff     ................
    3400:	ffffffff ffffffff ffffffff ffffffff     ................
    3410:	ffffffff ffffffff ffffffff ffffffff     ................
    3420:	ffffffff ffffffff ffffffff ffffffff     ................
    3430:	ffffffff ffffffff ffffffff ffffffff     ................
    3440:	ffffffff ffffffff ffffffff ffffffff     ................
    3450:	ffffffff ffffffff ffffffff ffffffff     ................
    3460:	ffffffff ffffffff ffffffff ffffffff     ................
    3470:	ffffffff ffffffff ffffffff ffffffff     ................
    3480:	ffffffff ffffffff ffffffff ffffffff     ................
    3490:	ffffffff ffffffff ffffffff ffffffff     ................
    34a0:	ffffffff ffffffff ffffffff ffffffff     ................
    34b0:	ffffffff ffffffff ffffffff ffffffff     ................
    34c0:	ffffffff ffffffff ffffffff ffffffff     ................
    34d0:	ffffffff ffffffff ffffffff ffffffff     ................
    34e0:	ffffffff ffffffff ffffffff ffffffff     ................
    34f0:	ffffffff ffffffff ffffffff ffffffff     ................
    3500:	ffffffff ffffffff ffffffff ffffffff     ................
    3510:	ffffffff ffffffff ffffffff ffffffff     ................
    3520:	ffffffff ffffffff ffffffff ffffffff     ................
    3530:	ffffffff ffffffff ffffffff ffffffff     ................
    3540:	ffffffff ffffffff ffffffff ffffffff     ................
    3550:	ffffffff ffffffff ffffffff ffffffff     ................
    3560:	ffffffff ffffffff ffffffff ffffffff     ................
    3570:	ffffffff ffffffff ffffffff ffffffff     ................
    3580:	ffffffff ffffffff ffffffff ffffffff     ................
    3590:	ffffffff ffffffff ffffffff ffffffff     ................
    35a0:	ffffffff ffffffff ffffffff ffffffff     ................
    35b0:	ffffffff ffffffff ffffffff ffffffff     ................
    35c0:	ffffffff ffffffff ffffffff ffffffff     ................
    35d0:	ffffffff ffffffff ffffffff ffffffff     ................
    35e0:	ffffffff ffffffff ffffffff ffffffff     ................
    35f0:	ffffffff ffffffff ffffffff ffffffff     ................
    3600:	ffffffff ffffffff ffffffff ffffffff     ................
    3610:	ffffffff ffffffff ffffffff ffffffff     ................
    3620:	e7ffe7ff e7ffe7ff e7ffe7ff e7ffe7ff     ................
    3630:	e7ffe7ff e7ffe7ff e7ffe7ff e7ffe7ff     ................
    3640:	e7ffe7ff e7ffe7ff e7ffe7ff e7ffe7ff     ................
    3650:	e7ffe7ff e7ffe7ff e7ffe7ff e7ffe7ff     ................
    3660:	e7ffe7ff e7ffe7ff e7ffe7ff e7ffe7ff     ................
    3670:	e7ffe7ff e7ffe7ff e7ffe7ff e7ffe7ff     ................
    3680:	e7ffe7ff e7ffe7ff e7ffe7ff e7ffe7ff     ................
    3690:	e7ffe7ff e7ffe7ff e7ffe7ff e7ffe7ff     ................
    36a0:	e7ffe7ff e7ffe7ff e7ffe7ff e7ffe7ff     ................
    36b0:	e7ffe7ff e7ffe7ff e7ffe7ff e7ffe7ff     ................
    36c0:	e7ffe7ff e7ffe7ff e7ffe7ff e7ffe7ff     ................
    36d0:	e7ffe7ff e7ffe7ff e7ffe7ff e7ffe7ff     ................
    36e0:	e7ffe7ff e7ffe7ff e7ffe7ff e7ffe7ff     ................
    36f0:	e7ffe7ff e7ffe7ff e7ffe7ff e7ffe7ff     ................
    3700:	e7ffe7ff e7ffe7ff e7ffe7ff e7ffe7ff     ................
    3710:	e7ffe7ff e7ffe7ff e7ffe7ff e7ffe7ff     ................
    3720:	e7ffe7ff e7ffe7ff e7ffe7ff e7ffe7ff     ................
    3730:	e7ffe7ff e7ffe7ff e7ffe7ff e7ffe7ff     ................
    3740:	e7ffe7ff e7ffe7ff e7ffe7ff e7ffe7ff     ................
    3750:	e7ffe7ff e7ffe7ff e7ffe7ff e7ffe7ff     ................
    3760:	e7ffe7ff e7ffe7ff e7ffe7ff e7ffe7ff     ................
    3770:	e7ffe7ff e7ffe7ff e7ffe7ff e7ffe7ff     ................
    3780:	e7ffe7ff e7ffe7ff e7ffe7ff e7ffe7ff     ................
    3790:	e7ffe7ff e7ffe7ff e7ffe7ff e7ffe7ff     ................
    37a0:	e7ffe7ff e7ffe7ff e7ffe7ff e7ffe7ff     ................
    37b0:	e7ffe7ff e7ffe7ff e7ffe7ff e7ffe7ff     ................
    37c0:	e7ffe7ff e7ffe7ff e7ffe7ff e7ffe7ff     ................
    37d0:	e7ffe7ff e7ffe7ff e7ffe7ff e7ffe7ff     ................
    37e0:	e7ffe7ff e7ffe7ff e7ffe7ff e7ffe7ff     ................
    37f0:	e7ffe7ff e7ffe7ff e7ffe7ff e7ffe7ff     ................
    3800:	e7ffe7ff e7ffe7ff e7ffe7ff e7ffe7ff     ................
    3810:	e7ffe7ff e7ffe7ff e7ffe7ff e7ffe7ff     ................
    3820:	e7ffe7ff e7ffe7ff e7ffe7ff e7ffe7ff     ................
    3830:	e7ffe7ff e7ffe7ff e7ffe7ff e7ffe7ff     ................
    3840:	e7ffe7ff e7ffe7ff e7ffe7ff e7ffe7ff     ................
    3850:	e7ffe7ff e7ffe7ff e7ffe7ff e7ffe7ff     ................
    3860:	e7ffe7ff e7ffe7ff e7ffe7ff e7ffe7ff     ................
    3870:	e7ffe7ff e7ffe7ff e7ffe7ff e7ffe7ff     ................
    3880:	e7ffe7ff e7ffe7ff e7ffe7ff e7ffe7ff     ................
    3890:	e7ffe7ff e7ffe7ff e7ffe7ff e7ffe7ff     ................
    38a0:	3d563d56 3d563d56 3d563d56 3d563d56     V=V=V=V=V=V=V=V=
    38b0:	3d563d56 3d563d56 3d563d56 3d563d56     V=V=V=V=V=V=V=V=
    38c0:	3d563d56 3d563d56 3d563d56 3d563d56     V=V=V=V=V=V=V=V=
    38d0:	3d563d56 3d563d56 3d563d56 3d563d56     V=V=V=V=V=V=V=V=
    38e0:	3d563d56 3d563d56 3d563d56 3d563d56     V=V=V=V=V=V=V=V=
    38f0:	3d563d56 3d563d56 3d563d56 3d563d56     V=V=V=V=V=V=V=V=
    3900:	3d563d56 3d563d56 3d563d56 3d563d56     V=V=V=V=V=V=V=V=
    3910:	3d563d56 3d563d56 3d563d56 3d563d56     V=V=V=V=V=V=V=V=
    3920:	3d563d56 3d563d56 3d563d56 3d563d56     V=V=V=V=V=V=V=V=
    3930:	3d563d56 3d563d56 3d563d56 3d563d56     V=V=V=V=V=V=V=V=
    3940:	3d563d56 3d563d56 3d563d56 3d563d56     V=V=V=V=V=V=V=V=
    3950:	3d563d56 3d563d56 3d563d56 3d563d56     V=V=V=V=V=V=V=V=
    3960:	3d563d56 3d563d56 3d563d56 3d563d56     V=V=V=V=V=V=V=V=
    3970:	3d563d56 3d563d56 3d563d56 3d563d56     V=V=V=V=V=V=V=V=
    3980:	3d563d56 3d563d56 3d563d56 3d563d56     V=V=V=V=V=V=V=V=
    3990:	3d563d56 3d563d56 3d563d56 3d563d56     V=V=V=V=V=V=V=V=
    39a0:	3d563d56 3d563d56 3d563d56 3d563d56     V=V=V=V=V=V=V=V=
    39b0:	3d563d56 3d563d56 3d563d56 3d563d56     V=V=V=V=V=V=V=V=
    39c0:	3d563d56 3d563d56 3d563d56 3d563d56     V=V=V=V=V=V=V=V=
    39d0:	3d563d56 3d563d56 3d563d56 3d563d56     V=V=V=V=V=V=V=V=
    39e0:	3d563d56 3d563d56 3d563d56 3d563d56     V=V=V=V=V=V=V=V=
    39f0:	3d563d56 3d563d56 3d563d56 3d563d56     V=V=V=V=V=V=V=V=
    3a00:	3d563d56 3d563d56 3d563d56 3d563d56     V=V=V=V=V=V=V=V=
    3a10:	3d563d56 3d563d56 3d563d56 3d563d56     V=V=V=V=V=V=V=V=
    3a20:	3d563d56 3d563d56 3d563d56 3d563d56     V=V=V=V=V=V=V=V=
    3a30:	3d563d56 3d563d56 3d563d56 3d563d56     V=V=V=V=V=V=V=V=
    3a40:	3d563d56 3d563d56 3d563d56 3d563d56     V=V=V=V=V=V=V=V=
    3a50:	3d563d56 3d563d56 3d563d56 3d563d56     V=V=V=V=V=V=V=V=
    3a60:	3d563d56 3d563d56 3d563d56 3d563d56     V=V=V=V=V=V=V=V=
    3a70:	3d563d56 3d563d56 3d563d56 3d563d56     V=V=V=V=V=V=V=V=
    3a80:	3d563d56 3d563d56 3d563d56 3d563d56     V=V=V=V=V=V=V=V=
    3a90:	3d563d56 3d563d56 3d563d56 3d563d56     V=V=V=V=V=V=V=V=
    3aa0:	3d563d56 3d563d56 3d563d56 3d563d56     V=V=V=V=V=V=V=V=
    3ab0:	3d563d56 3d563d56 3d563d56 3d563d56     V=V=V=V=V=V=V=V=
    3ac0:	3d563d56 3d563d56 3d563d56 3d563d56     V=V=V=V=V=V=V=V=
    3ad0:	3d563d56 3d563d56 3d563d56 3d563d56     V=V=V=V=V=V=V=V=
    3ae0:	3d563d56 3d563d56 3d563d56 3d563d56     V=V=V=V=V=V=V=V=
    3af0:	3d563d56 3d563d56 3d563d56 3d563d56     V=V=V=V=V=V=V=V=
    3b00:	3d563d56 3d563d56 3d563d56 3d563d56     V=V=V=V=V=V=V=V=
    3b10:	3d563d56 3d563d56 3d563d56 2cf53d56     V=V=V=V=V=V=V=.,
    3b20:	25b825b8 25b825b8 25b825b8 25b825b8     .%.%.%.%.%.%.%.%
    3b30:	25b825b8 25b825b8 25b825b8 25b825b8     .%.%.%.%.%.%.%.%
    3b40:	25b825b8 25b825b8 25b825b8 25b825b8     .%.%.%.%.%.%.%.%
    3b50:	25b825b8 25b825b8 25b825b8 25b825b8     .%.%.%.%.%.%.%.%
    3b60:	25b825b8 25b825b8 25b825b8 25b825b8     .%.%.%.%.%.%.%.%
    3b70:	25b825b8 25b825b8 25b825b8 25b825b8     .%.%.%.%.%.%.%.%
    3b80:	25b825b8 25b825b8 25b825b8 25b825b8     .%.%.%.%.%.%.%.%
    3b90:	25b825b8 25b825b8 25b825b8 25b825b8     .%.%.%.%.%.%.%.%
    3ba0:	25b825b8 25b825b8 25b825b8 25b825b8     .%.%.%.%.%.%.%.%
    3bb0:	25b825b8 25b825b8 25b825b8 25b825b8     .%.%.%.%.%.%.%.%
    3bc0:	25b825b8 25b825b8 25b825b8 25b825b8     .%.%.%.%.%.%.%.%
    3bd0:	25b825b8 25b825b8 25b825b8 25b825b8     .%.%.%.%.%.%.%.%
    3be0:	25b825b8 25b825b8 25b825b8 25b825b8     .%.%.%.%.%.%.%.%
    3bf0:	25b825b8 25b825b8 25b825b8 25b825b8     .%.%.%.%.%.%.%.%
    3c00:	25b825b8 25b825b8 25b825b8 25b825b8     .%.%.%.%.%.%.%.%
    3c10:	25b825b8 25b825b8 25b825b8 25b825b8     .%.%.%.%.%.%.%.%
    3c20:	25b825b8 25b825b8 25b825b8 25b825b8     .%.%.%.%.%.%.%.%
    3c30:	25b825b8 25b825b8 25b825b8 25b825b8     .%.%.%.%.%.%.%.%
    3c40:	25b825b8 25b825b8 25b825b8 25b825b8     .%.%.%.%.%.%.%.%
    3c50:	25b825b8 25b825b8 25b825b8 25b825b8     .%.%.%.%.%.%.%.%
    3c60:	25b825b8 25b825b8 25b825b8 25b825b8     .%.%.%.%.%.%.%.%
    3c70:	25b825b8 25b825b8 25b825b8 25b825b8     .%.%.%.%.%.%.%.%
    3c80:	25b825b8 25b825b8 25b825b8 25b825b8     .%.%.%.%.%.%.%.%
    3c90:	25b825b8 25b825b8 25b825b8 25b825b8     .%.%.%.%.%.%.%.%
    3ca0:	25b825b8 25b825b8 25b825b8 25b825b8     .%.%.%.%.%.%.%.%
    3cb0:	25b825b8 25b825b8 25b825b8 25b825b8     .%.%.%.%.%.%.%.%
    3cc0:	25b825b8 25b825b8 25b825b8 25b825b8     .%.%.%.%.%.%.%.%
    3cd0:	25b825b8 25b825b8 25b825b8 25b825b8     .%.%.%.%.%.%.%.%
    3ce0:	25b825b8 25b825b8 25b825b8 25b825b8     .%.%.%.%.%.%.%.%
    3cf0:	25b825b8 25b825b8 25b825b8 25b825b8     .%.%.%.%.%.%.%.%
    3d00:	25b825b8 25b825b8 25b825b8 25b825b8     .%.%.%.%.%.%.%.%
    3d10:	25b825b8 25b825b8 25b825b8 25b825b8     .%.%.%.%.%.%.%.%
    3d20:	25b825b8 25b825b8 25b825b8 25b825b8     .%.%.%.%.%.%.%.%
    3d30:	25b825b8 25b825b8 25b825b8 25b825b8     .%.%.%.%.%.%.%.%
    3d40:	25b825b8 25b825b8 25b825b8 25b825b8     .%.%.%.%.%.%.%.%
    3d50:	25b825b8 25b825b8 25b825b8 25b825b8     .%.%.%.%.%.%.%.%
    3d60:	25b825b8 25b825b8 25b825b8 25b825b8     .%.%.%.%.%.%.%.%
    3d70:	25b825b8 25b825b8 25b825b8 25b825b8     .%.%.%.%.%.%.%.%
    3d80:	25b825b8 25b825b8 25b825b8 25b825b8     .%.%.%.%.%.%.%.%
    3d90:	25b825b8 25b825b8 1d9825b8 155625b8     .%.%.%.%.%...%V.
    3da0:	25b825b8 25b825b8 25b825b8 25b825b8     .%.%.%.%.%.%.%.%
    3db0:	25b825b8 25b825b8 25b825b8 25b825b8     .%.%.%.%.%.%.%.%
    3dc0:	25b825b8 25b825b8 25b825b8 25b825b8     .%.%.%.%.%.%.%.%
    3dd0:	25b825b8 25b825b8 25b825b8 25b825b8     .%.%.%.%.%.%.%.%
    3de0:	25b825b8 25b825b8 25b825b8 25b825b8     .%.%.%.%.%.%.%.%
    3df0:	25b825b8 25b825b8 25b825b8 25b825b8     .%.%.%.%.%.%.%.%
    3e00:	25b825b8 25b825b8 25b825b8 25b825b8     .%.%.%.%.%.%.%.%
    3e10:	25b825b8 25b825b8 25b825b8 25b825b8     .%.%.%.%.%.%.%.%
    3e20:	25b825b8 25b825b8 25b825b8 25b825b8     .%.%.%.%.%.%.%.%
    3e30:	25b825b8 25b825b8 25b825b8 25b825b8     .%.%.%.%.%.%.%.%
    3e40:	25b825b8 25b825b8 25b825b8 25b825b8     .%.%.%.%.%.%.%.%
    3e50:	25b825b8 25b825b8 25b825b8 25b825b8     .%.%.%.%.%.%.%.%
    3e60:	25b825b8 25b825b8 25b825b8 25b825b8     .%.%.%.%.%.%.%.%
    3e70:	25b825b8 25b825b8 25b825b8 25b825b8     .%.%.%.%.%.%.%.%
    3e80:	25b825b8 25b825b8 25b825b8 25b825b8     .%.%.%.%.%.%.%.%
    3e90:	25b825b8 25b825b8 25b825b8 25b825b8     .%.%.%.%.%.%.%.%
    3ea0:	25b825b8 25b825b8 25b825b8 25b825b8     .%.%.%.%.%.%.%.%
    3eb0:	25b825b8 25b825b8 25b825b8 25b825b8     .%.%.%.%.%.%.%.%
    3ec0:	25b825b8 25b825b8 25b825b8 25b825b8     .%.%.%.%.%.%.%.%
    3ed0:	25b825b8 25b825b8 25b825b8 25b825b8     .%.%.%.%.%.%.%.%
    3ee0:	25b825b8 25b825b8 25b825b8 25b825b8     .%.%.%.%.%.%.%.%
    3ef0:	25b825b8 25b825b8 25b825b8 25b825b8     .%.%.%.%.%.%.%.%
    3f00:	25b825b8 25b825b8 25b825b8 25b825b8     .%.%.%.%.%.%.%.%
    3f10:	25b825b8 25b825b8 25b825b8 25b825b8     .%.%.%.%.%.%.%.%
    3f20:	25b825b8 25b825b8 25b825b8 25b825b8     .%.%.%.%.%.%.%.%
    3f30:	25b825b8 25b825b8 25b825b8 25b825b8     .%.%.%.%.%.%.%.%
    3f40:	25b825b8 25b825b8 25b825b8 25b825b8     .%.%.%.%.%.%.%.%
    3f50:	25b825b8 25b825b8 25b825b8 25b825b8     .%.%.%.%.%.%.%.%
    3f60:	25b825b8 25b825b8 25b825b8 25b825b8     .%.%.%.%.%.%.%.%
    3f70:	25b825b8 25b825b8 25b825b8 25b825b8     .%.%.%.%.%.%.%.%
    3f80:	25b825b8 25b825b8 25b825b8 25b825b8     .%.%.%.%.%.%.%.%
    3f90:	25b825b8 25b825b8 25b825b8 25b825b8     .%.%.%.%.%.%.%.%
    3fa0:	25b825b8 25b825b8 25b825b8 25b825b8     .%.%.%.%.%.%.%.%
    3fb0:	25b825b8 25b825b8 25b825b8 25b825b8     .%.%.%.%.%.%.%.%
    3fc0:	25b825b8 25b825b8 25b825b8 25b825b8     .%.%.%.%.%.%.%.%
    3fd0:	25b825b8 25b825b8 25b825b8 25b825b8     .%.%.%.%.%.%.%.%
    3fe0:	25b825b8 25b825b8 25b825b8 25b825b8     .%.%.%.%.%.%.%.%
    3ff0:	25b825b8 25b825b8 25b825b8 25b825b8     .%.%.%.%.%.%.%.%
    4000:	25b825b8 25b825b8 25b825b8 25b825b8     .%.%.%.%.%.%.%.%
    4010:	25b825b8 25b825b8 1db71db8 155625b8     .%.%.%.%.....%V.
    4020:	25b825b8 25b825b8 25b825b8 25b825b8     .%.%.%.%.%.%.%.%
    4030:	25b825b8 25b825b8 25b825b8 25b825b8     .%.%.%.%.%.%.%.%
    4040:	25b825b8 25b825b8 25b825b8 25b825b8     .%.%.%.%.%.%.%.%
    4050:	25b825b8 25b825b8 25b825b8 25b825b8     .%.%.%.%.%.%.%.%
    4060:	25b825b8 25b825b8 25b825b8 25b825b8     .%.%.%.%.%.%.%.%
    4070:	25b825b8 25b825b8 25b825b8 25b825b8     .%.%.%.%.%.%.%.%
    4080:	25b825b8 25b825b8 25b825b8 25b825b8     .%.%.%.%.%.%.%.%
    4090:	25b825b8 25b825b8 25b825b8 25b825b8     .%.%.%.%.%.%.%.%
    40a0:	25b825b8 25b825b8 25b825b8 25b825b8     .%.%.%.%.%.%.%.%
    40b0:	25b825b8 25b825b8 25b825b8 25b825b8     .%.%.%.%.%.%.%.%
    40c0:	25b825b8 25b825b8 25b825b8 25b825b8     .%.%.%.%.%.%.%.%
    40d0:	25b825b8 25b825b8 25b825b8 25b825b8     .%.%.%.%.%.%.%.%
    40e0:	25b825b8 25b825b8 25b825b8 25b825b8     .%.%.%.%.%.%.%.%
    40f0:	25b825b8 25b825b8 25b825b8 25b825b8     .%.%.%.%.%.%.%.%
    4100:	25b825b8 25b825b8 25b825b8 25b825b8     .%.%.%.%.%.%.%.%
    4110:	25b825b8 25b825b8 25b825b8 25b825b8     .%.%.%.%.%.%.%.%
    4120:	25b825b8 25b825b8 25b825b8 25b825b8     .%.%.%.%.%.%.%.%
    4130:	25b825b8 25b825b8 25b825b8 25b825b8     .%.%.%.%.%.%.%.%
    4140:	25b825b8 25b825b8 25b825b8 25b825b8     .%.%.%.%.%.%.%.%
    4150:	25b825b8 25b825b8 25b825b8 25b825b8     .%.%.%.%.%.%.%.%
    4160:	25b825b8 25b825b8 25b825b8 25b825b8     .%.%.%.%.%.%.%.%
    4170:	25b825b8 25b825b8 25b825b8 25b825b8     .%.%.%.%.%.%.%.%
    4180:	25b825b8 25b825b8 25b825b8 25b825b8     .%.%.%.%.%.%.%.%
    4190:	25b825b8 25b825b8 25b825b8 25b825b8     .%.%.%.%.%.%.%.%
    41a0:	25b825b8 25b825b8 25b825b8 25b825b8     .%.%.%.%.%.%.%.%
    41b0:	25b825b8 25b825b8 25b825b8 25b825b8     .%.%.%.%.%.%.%.%
    41c0:	25b825b8 25b825b8 25b825b8 25b825b8     .%.%.%.%.%.%.%.%
    41d0:	25b825b8 25b825b8 25b825b8 25b825b8     .%.%.%.%.%.%.%.%
    41e0:	25b825b8 25b825b8 25b825b8 25b825b8     .%.%.%.%.%.%.%.%
    41f0:	25b825b8 25b825b8 25b825b8 25b825b8     .%.%.%.%.%.%.%.%
    4200:	25b825b8 25b825b8 25b825b8 25b825b8     .%.%.%.%.%.%.%.%
    4210:	25b825b8 25b825b8 25b825b8 25b825b8     .%.%.%.%.%.%.%.%
    4220:	25b825b8 25b825b8 25b825b8 25b825b8     .%.%.%.%.%.%.%.%
    4230:	25b825b8 25b825b8 25b825b8 25b825b8     .%.%.%.%.%.%.%.%
    4240:	25b825b8 25b825b8 25b825b8 25b825b8     .%.%.%.%.%.%.%.%
    4250:	25b825b8 25b825b8 25b825b8 25b825b8     .%.%.%.%.%.%.%.%
    4260:	25b825b8 25b825b8 25b825b8 25b825b8     .%.%.%.%.%.%.%.%
    4270:	25b825b8 25b825b8 25b825b8 25b825b8     .%.%.%.%.%.%.%.%
    4280:	25b825b8 25b825b8 25b825b8 25b825b8     .%.%.%.%.%.%.%.%
    4290:	25b825b8 25b825b8 1db71db8 155625b8     .%.%.%.%.....%V.
    42a0:	25b825b8 25b825b8 25b825b8 25b825b8     .%.%.%.%.%.%.%.%
    42b0:	25b825b8 25b825b8 25b825b8 25b825b8     .%.%.%.%.%.%.%.%
    42c0:	25b825b8 25b825b8 25b825b8 25b825b8     .%.%.%.%.%.%.%.%
    42d0:	25b825b8 25b825b8 25b825b8 25b825b8     .%.%.%.%.%.%.%.%
    42e0:	25b825b8 25b825b8 25b825b8 25b825b8     .%.%.%.%.%.%.%.%
    42f0:	25b825b8 25b825b8 25b825b8 25b825b8     .%.%.%.%.%.%.%.%
    4300:	25b825b8 25b825b8 25b825b8 25b825b8     .%.%.%.%.%.%.%.%
    4310:	25b825b8 25b825b8 25b825b8 25b825b8     .%.%.%.%.%.%.%.%
    4320:	25b825b8 25b825b8 25b825b8 25b825b8     .%.%.%.%.%.%.%.%
    4330:	25b825b8 25b825b8 25b825b8 25b825b8     .%.%.%.%.%.%.%.%
    4340:	25b825b8 25b825b8 25b825b8 25b825b8     .%.%.%.%.%.%.%.%
    4350:	25b825b8 25b825b8 25b825b8 25b825b8     .%.%.%.%.%.%.%.%
    4360:	25b825b8 25b825b8 25b825b8 25b825b8     .%.%.%.%.%.%.%.%
    4370:	25b825b8 25b825b8 25b825b8 25b825b8     .%.%.%.%.%.%.%.%
    4380:	25b825b8 25b825b8 25b825b8 25b825b8     .%.%.%.%.%.%.%.%
    4390:	25b825b8 25b825b8 25b825b8 25b825b8     .%.%.%.%.%.%.%.%
    43a0:	25b825b8 25b825b8 25b825b8 25b825b8     .%.%.%.%.%.%.%.%
    43b0:	25b825b8 25b825b8 25b825b8 25b825b8     .%.%.%.%.%.%.%.%
    43c0:	25b825b8 25b825b8 25b825b8 25b825b8     .%.%.%.%.%.%.%.%
    43d0:	25b825b8 25b825b8 25b825b8 25b825b8     .%.%.%.%.%.%.%.%
    43e0:	25b825b8 25b825b8 25b825b8 25b825b8     .%.%.%.%.%.%.%.%
    43f0:	25b825b8 25b825b8 25b825b8 25b825b8     .%.%.%.%.%.%.%.%
    4400:	25b825b8 25b825b8 25b825b8 25b825b8     .%.%.%.%.%.%.%.%
    4410:	25b825b8 25b825b8 25b825b8 25b825b8     .%.%.%.%.%.%.%.%
    4420:	25b825b8 25b825b8 25b825b8 25b825b8     .%.%.%.%.%.%.%.%
    4430:	25b825b8 25b825b8 25b825b8 25b825b8     .%.%.%.%.%.%.%.%
    4440:	25b825b8 25b825b8 25b825b8 25b825b8     .%.%.%.%.%.%.%.%
    4450:	25b825b8 25b825b8 25b825b8 25b825b8     .%.%.%.%.%.%.%.%
    4460:	25b825b8 25b825b8 25b825b8 25b825b8     .%.%.%.%.%.%.%.%
    4470:	25b825b8 25b825b8 25b825b8 25b825b8     .%.%.%.%.%.%.%.%
    4480:	25b825b8 25b825b8 25b825b8 25b825b8     .%.%.%.%.%.%.%.%
    4490:	25b825b8 25b825b8 25b825b8 25b825b8     .%.%.%.%.%.%.%.%
    44a0:	25b825b8 25b825b8 25b825b8 25b825b8     .%.%.%.%.%.%.%.%
    44b0:	25b825b8 25b825b8 25b825b8 25b825b8     .%.%.%.%.%.%.%.%
    44c0:	25b825b8 25b825b8 25b825b8 25b825b8     .%.%.%.%.%.%.%.%
    44d0:	25b825b8 25b825b8 25b825b8 25b825b8     .%.%.%.%.%.%.%.%
    44e0:	25b825b8 25b825b8 25b825b8 25b825b8     .%.%.%.%.%.%.%.%
    44f0:	25b825b8 25b825b8 25b825b8 25b825b8     .%.%.%.%.%.%.%.%
    4500:	25b825b8 25b825b8 25b825b8 25b825b8     .%.%.%.%.%.%.%.%
    4510:	25b825b8 25b825b8 1db71db8 155625b8     .%.%.%.%.....%V.
    4520:	25b825b8 25b825b8 25b825b8 25b825b8     .%.%.%.%.%.%.%.%
    4530:	25b825b8 25b825b8 25b825b8 25b825b8     .%.%.%.%.%.%.%.%
    4540:	25b825b8 25b825b8 25b825b8 25b825b8     .%.%.%.%.%.%.%.%
    4550:	25b825b8 25b825b8 25b825b8 25b825b8     .%.%.%.%.%.%.%.%
    4560:	25b825b8 25b825b8 25b825b8 25b825b8     .%.%.%.%.%.%.%.%
    4570:	25b825b8 25b825b8 25b825b8 25b825b8     .%.%.%.%.%.%.%.%
    4580:	25b825b8 25b825b8 25b825b8 25b825b8     .%.%.%.%.%.%.%.%
    4590:	25b825b8 25b825b8 25b825b8 25b825b8     .%.%.%.%.%.%.%.%
    45a0:	25b825b8 25b825b8 25b825b8 25b825b8     .%.%.%.%.%.%.%.%
    45b0:	25b825b8 25b825b8 25b825b8 25b825b8     .%.%.%.%.%.%.%.%
    45c0:	25b825b8 25b825b8 25b825b8 25b825b8     .%.%.%.%.%.%.%.%
    45d0:	25b825b8 25b825b8 25b825b8 25b825b8     .%.%.%.%.%.%.%.%
    45e0:	25b825b8 25b825b8 25b825b8 25b825b8     .%.%.%.%.%.%.%.%
    45f0:	25b825b8 25b825b8 25b825b8 25b825b8     .%.%.%.%.%.%.%.%
    4600:	25b825b8 25b825b8 25b825b8 25b825b8     .%.%.%.%.%.%.%.%
    4610:	25b825b8 25b825b8 25b825b8 25b825b8     .%.%.%.%.%.%.%.%
    4620:	25b825b8 25b825b8 25b825b8 25b825b8     .%.%.%.%.%.%.%.%
    4630:	25b825b8 25b825b8 25b825b8 25b825b8     .%.%.%.%.%.%.%.%
    4640:	25b825b8 25b825b8 25b825b8 25b825b8     .%.%.%.%.%.%.%.%
    4650:	25b825b8 25b825b8 25b825b8 25b825b8     .%.%.%.%.%.%.%.%
    4660:	25b825b8 25b825b8 25b825b8 25b825b8     .%.%.%.%.%.%.%.%
    4670:	25b825b8 25b825b8 25b825b8 25b825b8     .%.%.%.%.%.%.%.%
    4680:	25b825b8 25b825b8 25b825b8 25b825b8     .%.%.%.%.%.%.%.%
    4690:	25b825b8 25b825b8 25b825b8 25b825b8     .%.%.%.%.%.%.%.%
    46a0:	25b825b8 25b825b8 25b825b8 25b825b8     .%.%.%.%.%.%.%.%
    46b0:	25b825b8 25b825b8 25b825b8 25b825b8     .%.%.%.%.%.%.%.%
    46c0:	25b825b8 25b825b8 25b825b8 25b825b8     .%.%.%.%.%.%.%.%
    46d0:	25b825b8 25b825b8 25b825b8 25b825b8     .%.%.%.%.%.%.%.%
    46e0:	25b825b8 25b825b8 25b825b8 25b825b8     .%.%.%.%.%.%.%.%
    46f0:	25b825b8 25b825b8 25b825b8 25b825b8     .%.%.%.%.%.%.%.%
    4700:	25b825b8 25b825b8 25b825b8 25b825b8     .%.%.%.%.%.%.%.%
    4710:	25b825b8 25b825b8 25b825b8 25b825b8     .%.%.%.%.%.%.%.%
    4720:	25b825b8 25b825b8 25b825b8 25b825b8     .%.%.%.%.%.%.%.%
    4730:	25b825b8 25b825b8 25b825b8 25b825b8     .%.%.%.%.%.%.%.%
    4740:	25b825b8 25b825b8 25b825b8 25b825b8     .%.%.%.%.%.%.%.%
    4750:	25b825b8 25b825b8 25b825b8 25b825b8     .%.%.%.%.%.%.%.%
    4760:	25b825b8 25b825b8 25b825b8 25b825b8     .%.%.%.%.%.%.%.%
    4770:	25b825b8 25b825b8 25b825b8 25b825b8     .%.%.%.%.%.%.%.%
    4780:	25b825b8 25b825b8 25b825b8 25b825b8     .%.%.%.%.%.%.%.%
    4790:	25b825b8 25b825b8 1db71db8 155625b8     .%.%.%.%.....%V.
    47a0:	25b825b8 25b825b8 25b825b8 25b825b8     .%.%.%.%.%.%.%.%
    47b0:	25b825b8 25b825b8 25b825b8 25b825b8     .%.%.%.%.%.%.%.%
    47c0:	25b825b8 25b825b8 25b825b8 25b825b8     .%.%.%.%.%.%.%.%
    47d0:	25b825b8 25b825b8 25b825b8 25b825b8     .%.%.%.%.%.%.%.%
    47e0:	25b825b8 25b825b8 25b825b8 25b825b8     .%.%.%.%.%.%.%.%
    47f0:	25b825b8 25b825b8 25b825b8 25b825b8     .%.%.%.%.%.%.%.%
    4800:	25b825b8 25b825b8 25b825b8 25b825b8     .%.%.%.%.%.%.%.%
    4810:	25b825b8 25b825b8 25b825b8 25b825b8     .%.%.%.%.%.%.%.%
    4820:	25b825b8 25b825b8 25b825b8 25b825b8     .%.%.%.%.%.%.%.%
    4830:	25b825b8 25b825b8 25b825b8 25b825b8     .%.%.%.%.%.%.%.%
    4840:	25b825b8 25b825b8 25b825b8 25b825b8     .%.%.%.%.%.%.%.%
    4850:	25b825b8 25b825b8 25b825b8 25b825b8     .%.%.%.%.%.%.%.%
    4860:	25b825b8 25b825b8 25b825b8 25b825b8     .%.%.%.%.%.%.%.%
    4870:	25b825b8 25b825b8 25b825b8 25b825b8     .%.%.%.%.%.%.%.%
    4880:	25b825b8 25b825b8 25b825b8 25b825b8     .%.%.%.%.%.%.%.%
    4890:	25b825b8 25b825b8 25b825b8 25b825b8     .%.%.%.%.%.%.%.%
    48a0:	25b825b8 25b825b8 25b825b8 25b825b8     .%.%.%.%.%.%.%.%
    48b0:	25b825b8 25b825b8 25b825b8 25b825b8     .%.%.%.%.%.%.%.%
    48c0:	25b825b8 25b825b8 25b825b8 25b825b8     .%.%.%.%.%.%.%.%
    48d0:	25b825b8 25b825b8 25b825b8 25b825b8     .%.%.%.%.%.%.%.%
    48e0:	25b825b8 25b825b8 25b825b8 25b825b8     .%.%.%.%.%.%.%.%
    48f0:	25b825b8 25b825b8 25b825b8 25b825b8     .%.%.%.%.%.%.%.%
    4900:	25b825b8 25b825b8 25b825b8 25b825b8     .%.%.%.%.%.%.%.%
    4910:	25b825b8 25b825b8 25b825b8 25b825b8     .%.%.%.%.%.%.%.%
    4920:	25b825b8 25b825b8 25b825b8 25b825b8     .%.%.%.%.%.%.%.%
    4930:	25b825b8 25b825b8 25b825b8 25b825b8     .%.%.%.%.%.%.%.%
    4940:	25b825b8 25b825b8 25b825b8 25b825b8     .%.%.%.%.%.%.%.%
    4950:	25b825b8 25b825b8 25b825b8 25b825b8     .%.%.%.%.%.%.%.%
    4960:	25b825b8 25b825b8 25b825b8 25b825b8     .%.%.%.%.%.%.%.%
    4970:	25b825b8 25b825b8 25b825b8 25b825b8     .%.%.%.%.%.%.%.%
    4980:	25b825b8 25b825b8 25b825b8 25b825b8     .%.%.%.%.%.%.%.%
    4990:	25b825b8 25b825b8 25b825b8 25b825b8     .%.%.%.%.%.%.%.%
    49a0:	25b825b8 25b825b8 25b825b8 25b825b8     .%.%.%.%.%.%.%.%
    49b0:	25b825b8 25b825b8 25b825b8 25b825b8     .%.%.%.%.%.%.%.%
    49c0:	25b825b8 25b825b8 25b825b8 25b825b8     .%.%.%.%.%.%.%.%
    49d0:	25b825b8 25b825b8 25b825b8 25b825b8     .%.%.%.%.%.%.%.%
    49e0:	25b825b8 25b825b8 25b825b8 25b825b8     .%.%.%.%.%.%.%.%
    49f0:	25b825b8 25b825b8 25b825b8 25b825b8     .%.%.%.%.%.%.%.%
    4a00:	25b825b8 25b825b8 25b825b8 25b825b8     .%.%.%.%.%.%.%.%
    4a10:	25b825b8 25b825b8 1db71db8 155625b8     .%.%.%.%.....%V.
    4a20:	25b825b8 25b825b8 25b825b8 25b825b8     .%.%.%.%.%.%.%.%
    4a30:	25b825b8 25b825b8 25b825b8 25b825b8     .%.%.%.%.%.%.%.%
    4a40:	25b825b8 25b825b8 25b825b8 25b825b8     .%.%.%.%.%.%.%.%
    4a50:	25b825b8 25b825b8 25b825b8 25b825b8     .%.%.%.%.%.%.%.%
    4a60:	25b825b8 25b825b8 25b825b8 25b825b8     .%.%.%.%.%.%.%.%
    4a70:	25b825b8 25b825b8 25b825b8 25b825b8     .%.%.%.%.%.%.%.%
    4a80:	25b825b8 25b825b8 25b825b8 25b825b8     .%.%.%.%.%.%.%.%
    4a90:	25b825b8 25b825b8 25b825b8 25b825b8     .%.%.%.%.%.%.%.%
    4aa0:	25b825b8 25b825b8 25b825b8 25b825b8     .%.%.%.%.%.%.%.%
    4ab0:	25b825b8 25b825b8 25b825b8 25b825b8     .%.%.%.%.%.%.%.%
    4ac0:	25b825b8 25b825b8 25b825b8 25b825b8     .%.%.%.%.%.%.%.%
    4ad0:	25b825b8 25b825b8 25b825b8 25b825b8     .%.%.%.%.%.%.%.%
    4ae0:	25b825b8 25b825b8 25b825b8 25b825b8     .%.%.%.%.%.%.%.%
    4af0:	25b825b8 25b825b8 25b825b8 25b825b8     .%.%.%.%.%.%.%.%
    4b00:	25b825b8 25b825b8 25b825b8 25b825b8     .%.%.%.%.%.%.%.%
    4b10:	25b825b8 25b825b8 25b825b8 25b825b8     .%.%.%.%.%.%.%.%
    4b20:	25b825b8 25b825b8 25b825b8 25b825b8     .%.%.%.%.%.%.%.%
    4b30:	25b825b8 25b825b8 25b825b8 25b825b8     .%.%.%.%.%.%.%.%
    4b40:	25b825b8 25b825b8 25b825b8 25b825b8     .%.%.%.%.%.%.%.%
    4b50:	25b825b8 25b825b8 25b825b8 25b825b8     .%.%.%.%.%.%.%.%
    4b60:	25b825b8 25b825b8 25b825b8 25b825b8     .%.%.%.%.%.%.%.%
    4b70:	25b825b8 25b825b8 25b825b8 25b825b8     .%.%.%.%.%.%.%.%
    4b80:	25b825b8 25b825b8 25b825b8 25b825b8     .%.%.%.%.%.%.%.%
    4b90:	25b825b8 25b825b8 25b825b8 25b825b8     .%.%.%.%.%.%.%.%
    4ba0:	25b825b8 25b825b8 25b825b8 25b825b8     .%.%.%.%.%.%.%.%
    4bb0:	25b825b8 25b825b8 25b825b8 25b825b8     .%.%.%.%.%.%.%.%
    4bc0:	25b825b8 25b825b8 25b825b8 25b825b8     .%.%.%.%.%.%.%.%
    4bd0:	25b825b8 25b825b8 25b825b8 25b825b8     .%.%.%.%.%.%.%.%
    4be0:	25b825b8 25b825b8 25b825b8 25b825b8     .%.%.%.%.%.%.%.%
    4bf0:	25b825b8 25b825b8 25b825b8 25b825b8     .%.%.%.%.%.%.%.%
    4c00:	25b825b8 25b825b8 25b825b8 25b825b8     .%.%.%.%.%.%.%.%
    4c10:	25b825b8 25b825b8 25b825b8 25b825b8     .%.%.%.%.%.%.%.%
    4c20:	25b825b8 25b825b8 25b825b8 25b825b8     .%.%.%.%.%.%.%.%
    4c30:	25b825b8 25b825b8 25b825b8 25b825b8     .%.%.%.%.%.%.%.%
    4c40:	25b825b8 25b825b8 25b825b8 25b825b8     .%.%.%.%.%.%.%.%
    4c50:	25b825b8 25b825b8 25b825b8 25b825b8     .%.%.%.%.%.%.%.%
    4c60:	25b825b8 25b825b8 25b825b8 25b825b8     .%.%.%.%.%.%.%.%
    4c70:	25b825b8 25b825b8 25b825b8 25b825b8     .%.%.%.%.%.%.%.%
    4c80:	25b825b8 25b825b8 25b825b8 25b825b8     .%.%.%.%.%.%.%.%
    4c90:	25b825b8 25b825b8 1db71db8 155625b8     .%.%.%.%.....%V.
    4ca0:	25b825b8 25b825b8 25b825b8 25b825b8     .%.%.%.%.%.%.%.%
    4cb0:	25b825b8 25b825b8 25b825b8 25b825b8     .%.%.%.%.%.%.%.%
    4cc0:	25b825b8 25b825b8 25b825b8 25b825b8     .%.%.%.%.%.%.%.%
    4cd0:	25b825b8 25b825b8 25b825b8 25b825b8     .%.%.%.%.%.%.%.%
    4ce0:	25b825b8 25b825b8 25b825b8 25b825b8     .%.%.%.%.%.%.%.%
    4cf0:	25b825b8 25b825b8 25b825b8 25b825b8     .%.%.%.%.%.%.%.%
    4d00:	25b825b8 25b825b8 25b825b8 25b825b8     .%.%.%.%.%.%.%.%
    4d10:	25b825b8 25b825b8 25b825b8 25b825b8     .%.%.%.%.%.%.%.%
    4d20:	25b825b8 25b825b8 25b825b8 25b825b8     .%.%.%.%.%.%.%.%
    4d30:	25b825b8 25b825b8 25b825b8 25b825b8     .%.%.%.%.%.%.%.%
    4d40:	25b825b8 25b825b8 25b825b8 25b825b8     .%.%.%.%.%.%.%.%
    4d50:	25b825b8 25b825b8 25b825b8 25b825b8     .%.%.%.%.%.%.%.%
    4d60:	25b825b8 25b825b8 25b825b8 25b825b8     .%.%.%.%.%.%.%.%
    4d70:	25b825b8 25b825b8 25b825b8 25b825b8     .%.%.%.%.%.%.%.%
    4d80:	25b825b8 25b825b8 25b825b8 25b825b8     .%.%.%.%.%.%.%.%
    4d90:	25b825b8 25b825b8 25b825b8 25b825b8     .%.%.%.%.%.%.%.%
    4da0:	25b825b8 25b825b8 25b825b8 25b825b8     .%.%.%.%.%.%.%.%
    4db0:	25b825b8 25b825b8 25b825b8 25b825b8     .%.%.%.%.%.%.%.%
    4dc0:	25b825b8 25b825b8 25b825b8 25b825b8     .%.%.%.%.%.%.%.%
    4dd0:	25b825b8 25b825b8 25b825b8 25b825b8     .%.%.%.%.%.%.%.%
    4de0:	25b825b8 25b825b8 25b825b8 25b825b8     .%.%.%.%.%.%.%.%
    4df0:	25b825b8 25b825b8 25b825b8 25b825b8     .%.%.%.%.%.%.%.%
    4e00:	25b825b8 25b825b8 25b825b8 25b825b8     .%.%.%.%.%.%.%.%
    4e10:	25b825b8 25b825b8 25b825b8 25b825b8     .%.%.%.%.%.%.%.%
    4e20:	25b825b8 25b825b8 25b825b8 25b825b8     .%.%.%.%.%.%.%.%
    4e30:	25b825b8 25b825b8 25b825b8 25b825b8     .%.%.%.%.%.%.%.%
    4e40:	25b825b8 25b825b8 25b825b8 25b825b8     .%.%.%.%.%.%.%.%
    4e50:	25b825b8 25b825b8 25b825b8 25b825b8     .%.%.%.%.%.%.%.%
    4e60:	25b825b8 25b825b8 25b825b8 25b825b8     .%.%.%.%.%.%.%.%
    4e70:	25b825b8 25b825b8 25b825b8 25b825b8     .%.%.%.%.%.%.%.%
    4e80:	25b825b8 25b825b8 25b825b8 25b825b8     .%.%.%.%.%.%.%.%
    4e90:	25b825b8 25b825b8 25b825b8 25b825b8     .%.%.%.%.%.%.%.%
    4ea0:	25b825b8 25b825b8 25b825b8 25b825b8     .%.%.%.%.%.%.%.%
    4eb0:	25b825b8 25b825b8 25b825b8 25b825b8     .%.%.%.%.%.%.%.%
    4ec0:	25b825b8 25b825b8 25b825b8 25b825b8     .%.%.%.%.%.%.%.%
    4ed0:	25b825b8 25b825b8 25b825b8 25b825b8     .%.%.%.%.%.%.%.%
    4ee0:	25b825b8 25b825b8 25b825b8 25b825b8     .%.%.%.%.%.%.%.%
    4ef0:	25b825b8 25b825b8 25b825b8 25b825b8     .%.%.%.%.%.%.%.%
    4f00:	25b825b8 25b825b8 25b825b8 25b825b8     .%.%.%.%.%.%.%.%
    4f10:	25b825b8 25b825b8 1db71db8 155625b8     .%.%.%.%.....%V.
    4f20:	25b825b8 25b825b8 25b825b8 25b825b8     .%.%.%.%.%.%.%.%
    4f30:	25b825b8 25b825b8 25b825b8 25b825b8     .%.%.%.%.%.%.%.%
    4f40:	25b825b8 25b825b8 25b825b8 25b825b8     .%.%.%.%.%.%.%.%
    4f50:	25b825b8 25b825b8 25b825b8 25b825b8     .%.%.%.%.%.%.%.%
    4f60:	25b825b8 25b825b8 25b825b8 25b825b8     .%.%.%.%.%.%.%.%
    4f70:	25b825b8 25b825b8 25b825b8 25b825b8     .%.%.%.%.%.%.%.%
    4f80:	25b825b8 25b825b8 25b825b8 25b825b8     .%.%.%.%.%.%.%.%
    4f90:	25b825b8 25b825b8 25b825b8 25b825b8     .%.%.%.%.%.%.%.%
    4fa0:	25b825b8 25b825b8 25b825b8 25b825b8     .%.%.%.%.%.%.%.%
    4fb0:	25b825b8 25b825b8 25b825b8 25b825b8     .%.%.%.%.%.%.%.%
    4fc0:	25b825b8 25b825b8 25b825b8 25b825b8     .%.%.%.%.%.%.%.%
    4fd0:	25b825b8 25b825b8 25b825b8 25b825b8     .%.%.%.%.%.%.%.%
    4fe0:	25b825b8 25b825b8 25b825b8 25b825b8     .%.%.%.%.%.%.%.%
    4ff0:	25b825b8 25b825b8 25b825b8 25b825b8     .%.%.%.%.%.%.%.%
    5000:	25b825b8 25b825b8 25b825b8 25b825b8     .%.%.%.%.%.%.%.%
    5010:	25b825b8 25b825b8 25b825b8 25b825b8     .%.%.%.%.%.%.%.%
    5020:	25b825b8 25b825b8 25b825b8 25b825b8     .%.%.%.%.%.%.%.%
    5030:	25b825b8 25b825b8 25b825b8 25b825b8     .%.%.%.%.%.%.%.%
    5040:	25b825b8 25b825b8 25b825b8 25b825b8     .%.%.%.%.%.%.%.%
    5050:	25b825b8 25b825b8 25b825b8 25b825b8     .%.%.%.%.%.%.%.%
    5060:	25b825b8 25b825b8 25b825b8 25b825b8     .%.%.%.%.%.%.%.%
    5070:	25b825b8 25b825b8 25b825b8 25b825b8     .%.%.%.%.%.%.%.%
    5080:	25b825b8 25b825b8 25b825b8 25b825b8     .%.%.%.%.%.%.%.%
    5090:	25b825b8 25b825b8 25b825b8 25b825b8     .%.%.%.%.%.%.%.%
    50a0:	25b825b8 25b825b8 25b825b8 25b825b8     .%.%.%.%.%.%.%.%
    50b0:	25b825b8 25b825b8 25b825b8 25b825b8     .%.%.%.%.%.%.%.%
    50c0:	25b825b8 25b825b8 25b825b8 25b825b8     .%.%.%.%.%.%.%.%
    50d0:	25b825b8 25b825b8 25b825b8 25b825b8     .%.%.%.%.%.%.%.%
    50e0:	25b825b8 25b825b8 25b825b8 25b825b8     .%.%.%.%.%.%.%.%
    50f0:	25b825b8 25b825b8 25b825b8 25b825b8     .%.%.%.%.%.%.%.%
    5100:	25b825b8 25b825b8 25b825b8 25b825b8     .%.%.%.%.%.%.%.%
    5110:	25b825b8 25b825b8 25b825b8 25b825b8     .%.%.%.%.%.%.%.%
    5120:	25b825b8 25b825b8 25b825b8 25b825b8     .%.%.%.%.%.%.%.%
    5130:	25b825b8 25b825b8 25b825b8 25b825b8     .%.%.%.%.%.%.%.%
    5140:	25b825b8 25b825b8 25b825b8 25b825b8     .%.%.%.%.%.%.%.%
    5150:	25b825b8 25b825b8 25b825b8 25b825b8     .%.%.%.%.%.%.%.%
    5160:	25b825b8 25b825b8 25b825b8 25b825b8     .%.%.%.%.%.%.%.%
    5170:	25b825b8 25b825b8 25b825b8 25b825b8     .%.%.%.%.%.%.%.%
    5180:	25b825b8 25b825b8 25b825b8 25b825b8     .%.%.%.%.%.%.%.%
    5190:	25b825b8 25b825b8 1db71db8 155625b8     .%.%.%.%.....%V.
    51a0:	25b825b8 25b825b8 25b825b8 25b825b8     .%.%.%.%.%.%.%.%
    51b0:	25b825b8 25b825b8 25b825b8 25b825b8     .%.%.%.%.%.%.%.%
    51c0:	25b825b8 25b825b8 25b825b8 25b825b8     .%.%.%.%.%.%.%.%
    51d0:	25b825b8 25b825b8 25b825b8 25b825b8     .%.%.%.%.%.%.%.%
    51e0:	25b825b8 25b825b8 25b825b8 25b825b8     .%.%.%.%.%.%.%.%
    51f0:	25b825b8 25b825b8 25b825b8 25b825b8     .%.%.%.%.%.%.%.%
    5200:	25b825b8 25b825b8 25b825b8 25b825b8     .%.%.%.%.%.%.%.%
    5210:	25b825b8 25b825b8 25b825b8 25b825b8     .%.%.%.%.%.%.%.%
    5220:	25b825b8 25b825b8 25b825b8 25b825b8     .%.%.%.%.%.%.%.%
    5230:	25b825b8 25b825b8 25b825b8 25b825b8     .%.%.%.%.%.%.%.%
    5240:	25b825b8 25b825b8 25b825b8 25b825b8     .%.%.%.%.%.%.%.%
    5250:	25b825b8 25b825b8 25b825b8 25b825b8     .%.%.%.%.%.%.%.%
    5260:	25b825b8 25b825b8 25b825b8 25b825b8     .%.%.%.%.%.%.%.%
    5270:	25b825b8 25b825b8 25b825b8 25b825b8     .%.%.%.%.%.%.%.%
    5280:	25b825b8 25b825b8 25b825b8 25b825b8     .%.%.%.%.%.%.%.%
    5290:	25b825b8 25b825b8 25b825b8 25b825b8     .%.%.%.%.%.%.%.%
    52a0:	25b825b8 25b825b8 25b825b8 25b825b8     .%.%.%.%.%.%.%.%
    52b0:	25b825b8 25b825b8 25b825b8 25b825b8     .%.%.%.%.%.%.%.%
    52c0:	25b825b8 25b825b8 25b825b8 25b825b8     .%.%.%.%.%.%.%.%
    52d0:	25b825b8 25b825b8 25b825b8 25b825b8     .%.%.%.%.%.%.%.%
    52e0:	25b825b8 25b825b8 25b825b8 25b825b8     .%.%.%.%.%.%.%.%
    52f0:	25b825b8 25b825b8 25b825b8 25b825b8     .%.%.%.%.%.%.%.%
    5300:	25b825b8 25b825b8 25b825b8 25b825b8     .%.%.%.%.%.%.%.%
    5310:	25b825b8 25b825b8 25b825b8 25b825b8     .%.%.%.%.%.%.%.%
    5320:	25b825b8 25b825b8 25b825b8 25b825b8     .%.%.%.%.%.%.%.%
    5330:	25b825b8 25b825b8 25b825b8 25b825b8     .%.%.%.%.%.%.%.%
    5340:	25b825b8 25b825b8 25b825b8 25b825b8     .%.%.%.%.%.%.%.%
    5350:	25b825b8 25b825b8 25b825b8 25b825b8     .%.%.%.%.%.%.%.%
    5360:	25b825b8 25b825b8 25b825b8 25b825b8     .%.%.%.%.%.%.%.%
    5370:	25b825b8 25b825b8 25b825b8 25b825b8     .%.%.%.%.%.%.%.%
    5380:	25b825b8 25b825b8 25b825b8 25b825b8     .%.%.%.%.%.%.%.%
    5390:	25b825b8 25b825b8 25b825b8 25b825b8     .%.%.%.%.%.%.%.%
    53a0:	25b825b8 25b825b8 25b825b8 25b825b8     .%.%.%.%.%.%.%.%
    53b0:	25b825b8 25b825b8 25b825b8 25b825b8     .%.%.%.%.%.%.%.%
    53c0:	25b825b8 25b825b8 25b825b8 25b825b8     .%.%.%.%.%.%.%.%
    53d0:	25b825b8 25b825b8 25b825b8 25b825b8     .%.%.%.%.%.%.%.%
    53e0:	25b825b8 25b825b8 25b825b8 25b825b8     .%.%.%.%.%.%.%.%
    53f0:	25b825b8 25b825b8 25b825b8 25b825b8     .%.%.%.%.%.%.%.%
    5400:	25b825b8 25b825b8 25b825b8 25b825b8     .%.%.%.%.%.%.%.%
    5410:	25b825b8 25b825b8 1db71db8 155625b8     .%.%.%.%.....%V.
    5420:	25b825b8 25b825b8 25b825b8 25b825b8     .%.%.%.%.%.%.%.%
    5430:	25b825b8 25b825b8 25b825b8 25b825b8     .%.%.%.%.%.%.%.%
    5440:	25b825b8 25b825b8 25b825b8 25b825b8     .%.%.%.%.%.%.%.%
    5450:	25b825b8 25b825b8 25b825b8 25b825b8     .%.%.%.%.%.%.%.%
    5460:	25b825b8 25b825b8 25b825b8 25b825b8     .%.%.%.%.%.%.%.%
    5470:	25b825b8 25b825b8 25b825b8 25b825b8     .%.%.%.%.%.%.%.%
    5480:	25b825b8 25b825b8 25b825b8 25b825b8     .%.%.%.%.%.%.%.%
    5490:	25b825b8 25b825b8 25b825b8 25b825b8     .%.%.%.%.%.%.%.%
    54a0:	25b825b8 25b825b8 25b825b8 25b825b8     .%.%.%.%.%.%.%.%
    54b0:	25b825b8 25b825b8 25b825b8 25b825b8     .%.%.%.%.%.%.%.%
    54c0:	25b825b8 25b825b8 25b825b8 25b825b8     .%.%.%.%.%.%.%.%
    54d0:	25b825b8 25b825b8 25b825b8 25b825b8     .%.%.%.%.%.%.%.%
    54e0:	25b825b8 25b825b8 25b825b8 25b825b8     .%.%.%.%.%.%.%.%
    54f0:	25b825b8 25b825b8 25b825b8 25b825b8     .%.%.%.%.%.%.%.%
    5500:	25b825b8 25b825b8 25b825b8 25b825b8     .%.%.%.%.%.%.%.%
    5510:	25b825b8 25b825b8 25b825b8 25b825b8     .%.%.%.%.%.%.%.%
    5520:	25b825b8 25b825b8 25b825b8 25b825b8     .%.%.%.%.%.%.%.%
    5530:	25b825b8 25b825b8 25b825b8 25b825b8     .%.%.%.%.%.%.%.%
    5540:	25b825b8 25b825b8 25b825b8 25b825b8     .%.%.%.%.%.%.%.%
    5550:	25b825b8 25b825b8 25b825b8 25b825b8     .%.%.%.%.%.%.%.%
    5560:	25b825b8 25b825b8 25b825b8 25b825b8     .%.%.%.%.%.%.%.%
    5570:	25b825b8 25b825b8 25b825b8 25b825b8     .%.%.%.%.%.%.%.%
    5580:	25b825b8 25b825b8 25b825b8 25b825b8     .%.%.%.%.%.%.%.%
    5590:	25b825b8 25b825b8 25b825b8 25b825b8     .%.%.%.%.%.%.%.%
    55a0:	25b825b8 25b825b8 25b825b8 25b825b8     .%.%.%.%.%.%.%.%
    55b0:	25b825b8 25b825b8 25b825b8 25b825b8     .%.%.%.%.%.%.%.%
    55c0:	25b825b8 25b825b8 25b825b8 25b825b8     .%.%.%.%.%.%.%.%
    55d0:	25b825b8 25b825b8 25b825b8 25b825b8     .%.%.%.%.%.%.%.%
    55e0:	25b825b8 25b825b8 25b825b8 25b825b8     .%.%.%.%.%.%.%.%
    55f0:	25b825b8 25b825b8 25b825b8 25b825b8     .%.%.%.%.%.%.%.%
    5600:	25b825b8 25b825b8 25b825b8 25b825b8     .%.%.%.%.%.%.%.%
    5610:	25b825b8 25b825b8 25b825b8 25b825b8     .%.%.%.%.%.%.%.%
    5620:	25b825b8 25b825b8 25b825b8 25b825b8     .%.%.%.%.%.%.%.%
    5630:	25b825b8 25b825b8 25b825b8 25b825b8     .%.%.%.%.%.%.%.%
    5640:	25b825b8 25b825b8 25b825b8 25b825b8     .%.%.%.%.%.%.%.%
    5650:	25b825b8 25b825b8 25b825b8 25b825b8     .%.%.%.%.%.%.%.%
    5660:	25b825b8 25b825b8 25b825b8 25b825b8     .%.%.%.%.%.%.%.%
    5670:	25b825b8 25b825b8 25b825b8 25b825b8     .%.%.%.%.%.%.%.%
    5680:	25b825b8 25b825b8 25b825b8 25b825b8     .%.%.%.%.%.%.%.%
    5690:	25b825b8 25b825b8 1db71db8 155625b8     .%.%.%.%.....%V.
    56a0:	25b825b8 25b825b8 25b825b8 25b825b8     .%.%.%.%.%.%.%.%
    56b0:	25b825b8 25b825b8 25b825b8 25b825b8     .%.%.%.%.%.%.%.%
    56c0:	25b825b8 25b825b8 25b825b8 25b825b8     .%.%.%.%.%.%.%.%
    56d0:	25b825b8 25b825b8 25b825b8 25b825b8     .%.%.%.%.%.%.%.%
    56e0:	25b825b8 25b825b8 25b825b8 25b825b8     .%.%.%.%.%.%.%.%
    56f0:	25b825b8 25b825b8 25b825b8 25b825b8     .%.%.%.%.%.%.%.%
    5700:	25b825b8 25b825b8 25b825b8 25b825b8     .%.%.%.%.%.%.%.%
    5710:	25b825b8 25b825b8 25b825b8 25b825b8     .%.%.%.%.%.%.%.%
    5720:	25b825b8 25b825b8 25b825b8 25b825b8     .%.%.%.%.%.%.%.%
    5730:	25b825b8 25b825b8 25b825b8 25b825b8     .%.%.%.%.%.%.%.%
    5740:	25b825b8 25b825b8 25b825b8 25b825b8     .%.%.%.%.%.%.%.%
    5750:	25b825b8 25b825b8 25b825b8 25b825b8     .%.%.%.%.%.%.%.%
    5760:	25b825b8 25b825b8 25b825b8 25b825b8     .%.%.%.%.%.%.%.%
    5770:	25b825b8 25b825b8 25b825b8 25b825b8     .%.%.%.%.%.%.%.%
    5780:	25b825b8 25b825b8 25b825b8 25b825b8     .%.%.%.%.%.%.%.%
    5790:	25b825b8 25b825b8 25b825b8 25b825b8     .%.%.%.%.%.%.%.%
    57a0:	25b825b8 25b825b8 25b825b8 25b825b8     .%.%.%.%.%.%.%.%
    57b0:	25b825b8 25b825b8 25b825b8 25b825b8     .%.%.%.%.%.%.%.%
    57c0:	25b825b8 25b825b8 25b825b8 25b825b8     .%.%.%.%.%.%.%.%
    57d0:	25b825b8 25b825b8 25b825b8 25b825b8     .%.%.%.%.%.%.%.%
    57e0:	25b825b8 25b825b8 25b825b8 25b825b8     .%.%.%.%.%.%.%.%
    57f0:	25b825b8 25b825b8 25b825b8 25b825b8     .%.%.%.%.%.%.%.%
    5800:	25b825b8 25b825b8 25b825b8 25b825b8     .%.%.%.%.%.%.%.%
    5810:	25b825b8 25b825b8 25b825b8 25b825b8     .%.%.%.%.%.%.%.%
    5820:	25b825b8 25b825b8 25b825b8 25b825b8     .%.%.%.%.%.%.%.%
    5830:	25b825b8 25b825b8 25b825b8 25b825b8     .%.%.%.%.%.%.%.%
    5840:	25b825b8 25b825b8 25b825b8 25b825b8     .%.%.%.%.%.%.%.%
    5850:	25b825b8 25b825b8 25b825b8 25b825b8     .%.%.%.%.%.%.%.%
    5860:	25b825b8 25b825b8 25b825b8 25b825b8     .%.%.%.%.%.%.%.%
    5870:	25b825b8 25b825b8 25b825b8 25b825b8     .%.%.%.%.%.%.%.%
    5880:	25b825b8 25b825b8 25b825b8 25b825b8     .%.%.%.%.%.%.%.%
    5890:	25b825b8 25b825b8 25b825b8 25b825b8     .%.%.%.%.%.%.%.%
    58a0:	25b825b8 25b825b8 25b825b8 25b825b8     .%.%.%.%.%.%.%.%
    58b0:	25b825b8 25b825b8 25b825b8 25b825b8     .%.%.%.%.%.%.%.%
    58c0:	25b825b8 25b825b8 25b825b8 25b825b8     .%.%.%.%.%.%.%.%
    58d0:	25b825b8 25b825b8 25b825b8 25b825b8     .%.%.%.%.%.%.%.%
    58e0:	25b825b8 25b825b8 25b825b8 25b825b8     .%.%.%.%.%.%.%.%
    58f0:	25b825b8 25b825b8 25b825b8 25b825b8     .%.%.%.%.%.%.%.%
    5900:	25b825b8 25b825b8 25b825b8 25b825b8     .%.%.%.%.%.%.%.%
    5910:	25b825b8 25b825b8 1db71db8 155625b8     .%.%.%.%.....%V.
    5920:	25b825b8 25b825b8 25b825b8 25b825b8     .%.%.%.%.%.%.%.%
    5930:	25b825b8 25b825b8 25b825b8 25b825b8     .%.%.%.%.%.%.%.%
    5940:	25b825b8 25b825b8 25b825b8 25b825b8     .%.%.%.%.%.%.%.%
    5950:	25b825b8 25b825b8 25b825b8 25b825b8     .%.%.%.%.%.%.%.%
    5960:	25b825b8 25b825b8 25b825b8 25b825b8     .%.%.%.%.%.%.%.%
    5970:	25b825b8 25b825b8 25b825b8 25b825b8     .%.%.%.%.%.%.%.%
    5980:	25b825b8 25b825b8 25b825b8 25b825b8     .%.%.%.%.%.%.%.%
    5990:	25b825b8 25b825b8 25b825b8 25b825b8     .%.%.%.%.%.%.%.%
    59a0:	25b825b8 25b825b8 25b825b8 25b825b8     .%.%.%.%.%.%.%.%
    59b0:	25b825b8 25b825b8 25b825b8 25b825b8     .%.%.%.%.%.%.%.%
    59c0:	25b825b8 25b825b8 25b825b8 25b825b8     .%.%.%.%.%.%.%.%
    59d0:	25b825b8 25b825b8 25b825b8 25b825b8     .%.%.%.%.%.%.%.%
    59e0:	25b825b8 25b825b8 25b825b8 25b825b8     .%.%.%.%.%.%.%.%
    59f0:	25b825b8 25b825b8 25b825b8 25b825b8     .%.%.%.%.%.%.%.%
    5a00:	25b825b8 25b825b8 25b825b8 25b825b8     .%.%.%.%.%.%.%.%
    5a10:	25b825b8 25b825b8 25b825b8 25b825b8     .%.%.%.%.%.%.%.%
    5a20:	25b825b8 25b825b8 25b825b8 25b825b8     .%.%.%.%.%.%.%.%
    5a30:	25b825b8 25b825b8 25b825b8 25b825b8     .%.%.%.%.%.%.%.%
    5a40:	25b825b8 25b825b8 25b825b8 25b825b8     .%.%.%.%.%.%.%.%
    5a50:	25b825b8 25b825b8 25b825b8 25b825b8     .%.%.%.%.%.%.%.%
    5a60:	25b825b8 25b825b8 25b825b8 25b825b8     .%.%.%.%.%.%.%.%
    5a70:	25b825b8 25b825b8 25b825b8 25b825b8     .%.%.%.%.%.%.%.%
    5a80:	25b825b8 25b825b8 25b825b8 25b825b8     .%.%.%.%.%.%.%.%
    5a90:	25b825b8 25b825b8 25b825b8 25b825b8     .%.%.%.%.%.%.%.%
    5aa0:	25b825b8 25b825b8 25b825b8 25b825b8     .%.%.%.%.%.%.%.%
    5ab0:	25b825b8 25b825b8 25b825b8 25b825b8     .%.%.%.%.%.%.%.%
    5ac0:	25b825b8 25b825b8 25b825b8 25b825b8     .%.%.%.%.%.%.%.%
    5ad0:	25b825b8 25b825b8 25b825b8 25b825b8     .%.%.%.%.%.%.%.%
    5ae0:	25b825b8 25b825b8 25b825b8 25b825b8     .%.%.%.%.%.%.%.%
    5af0:	25b825b8 25b825b8 25b825b8 25b825b8     .%.%.%.%.%.%.%.%
    5b00:	25b825b8 25b825b8 25b825b8 25b825b8     .%.%.%.%.%.%.%.%
    5b10:	25b825b8 25b825b8 25b825b8 25b825b8     .%.%.%.%.%.%.%.%
    5b20:	25b825b8 25b825b8 25b825b8 25b825b8     .%.%.%.%.%.%.%.%
    5b30:	25b825b8 25b825b8 25b825b8 25b825b8     .%.%.%.%.%.%.%.%
    5b40:	25b825b8 25b825b8 25b825b8 25b825b8     .%.%.%.%.%.%.%.%
    5b50:	25b825b8 25b825b8 25b825b8 25b825b8     .%.%.%.%.%.%.%.%
    5b60:	25b825b8 25b825b8 25b825b8 25b825b8     .%.%.%.%.%.%.%.%
    5b70:	25b825b8 25b825b8 25b825b8 25b825b8     .%.%.%.%.%.%.%.%
    5b80:	25b825b8 25b825b8 25b825b8 25b825b8     .%.%.%.%.%.%.%.%
    5b90:	25b825b8 25b825b8 1db71db8 155625b8     .%.%.%.%.....%V.
    5ba0:	25b825b8 25b825b8 25b825b8 25b825b8     .%.%.%.%.%.%.%.%
    5bb0:	25b825b8 25b825b8 25b825b8 25b825b8     .%.%.%.%.%.%.%.%
    5bc0:	25b825b8 25b825b8 25b825b8 25b825b8     .%.%.%.%.%.%.%.%
    5bd0:	25b825b8 25b825b8 25b825b8 25b825b8     .%.%.%.%.%.%.%.%
    5be0:	25b825b8 25b825b8 25b825b8 25b825b8     .%.%.%.%.%.%.%.%
    5bf0:	25b825b8 25b825b8 25b825b8 25b825b8     .%.%.%.%.%.%.%.%
    5c00:	25b825b8 25b825b8 25b825b8 25b825b8     .%.%.%.%.%.%.%.%
    5c10:	25b825b8 25b825b8 25b825b8 25b825b8     .%.%.%.%.%.%.%.%
    5c20:	25b825b8 25b825b8 25b825b8 25b825b8     .%.%.%.%.%.%.%.%
    5c30:	25b825b8 25b825b8 25b825b8 25b825b8     .%.%.%.%.%.%.%.%
    5c40:	25b825b8 25b825b8 25b825b8 25b825b8     .%.%.%.%.%.%.%.%
    5c50:	25b825b8 25b825b8 25b825b8 25b825b8     .%.%.%.%.%.%.%.%
    5c60:	25b825b8 25b825b8 25b825b8 25b825b8     .%.%.%.%.%.%.%.%
    5c70:	25b825b8 25b825b8 25b825b8 25b825b8     .%.%.%.%.%.%.%.%
    5c80:	25b825b8 25b825b8 25b825b8 25b825b8     .%.%.%.%.%.%.%.%
    5c90:	25b825b8 25b825b8 25b825b8 25b825b8     .%.%.%.%.%.%.%.%
    5ca0:	25b825b8 25b825b8 25b825b8 25b825b8     .%.%.%.%.%.%.%.%
    5cb0:	25b825b8 25b825b8 25b825b8 25b825b8     .%.%.%.%.%.%.%.%
    5cc0:	25b825b8 25b825b8 25b825b8 25b825b8     .%.%.%.%.%.%.%.%
    5cd0:	25b825b8 25b825b8 25b825b8 25b825b8     .%.%.%.%.%.%.%.%
    5ce0:	25b825b8 25b825b8 25b825b8 25b825b8     .%.%.%.%.%.%.%.%
    5cf0:	25b825b8 25b825b8 25b825b8 25b825b8     .%.%.%.%.%.%.%.%
    5d00:	25b825b8 25b825b8 25b825b8 25b825b8     .%.%.%.%.%.%.%.%
    5d10:	25b825b8 25b825b8 25b825b8 25b825b8     .%.%.%.%.%.%.%.%
    5d20:	25b825b8 25b825b8 25b825b8 25b825b8     .%.%.%.%.%.%.%.%
    5d30:	25b825b8 25b825b8 25b825b8 25b825b8     .%.%.%.%.%.%.%.%
    5d40:	25b825b8 25b825b8 25b825b8 25b825b8     .%.%.%.%.%.%.%.%
    5d50:	25b825b8 25b825b8 25b825b8 25b825b8     .%.%.%.%.%.%.%.%
    5d60:	25b825b8 25b825b8 25b825b8 25b825b8     .%.%.%.%.%.%.%.%
    5d70:	25b825b8 25b825b8 25b825b8 25b825b8     .%.%.%.%.%.%.%.%
    5d80:	25b825b8 25b825b8 25b825b8 25b825b8     .%.%.%.%.%.%.%.%
    5d90:	25b825b8 25b825b8 25b825b8 25b825b8     .%.%.%.%.%.%.%.%
    5da0:	25b825b8 25b825b8 25b825b8 25b825b8     .%.%.%.%.%.%.%.%
    5db0:	25b825b8 25b825b8 25b825b8 25b825b8     .%.%.%.%.%.%.%.%
    5dc0:	25b825b8 25b825b8 25b825b8 25b825b8     .%.%.%.%.%.%.%.%
    5dd0:	25b825b8 25b825b8 25b825b8 25b825b8     .%.%.%.%.%.%.%.%
    5de0:	25b825b8 25b825b8 25b825b8 25b825b8     .%.%.%.%.%.%.%.%
    5df0:	25b825b8 25b825b8 25b825b8 25b825b8     .%.%.%.%.%.%.%.%
    5e00:	25b825b8 25b825b8 25b825b8 25b825b8     .%.%.%.%.%.%.%.%
    5e10:	25b825b8 25b825b8 1db71db8 155625b8     .%.%.%.%.....%V.
    5e20:	25b825b8 25b825b8 25b825b8 25b825b8     .%.%.%.%.%.%.%.%
    5e30:	25b825b8 25b825b8 25b825b8 25b825b8     .%.%.%.%.%.%.%.%
    5e40:	25b825b8 25b825b8 25b825b8 25b825b8     .%.%.%.%.%.%.%.%
    5e50:	25b825b8 25b825b8 25b825b8 25b825b8     .%.%.%.%.%.%.%.%
    5e60:	25b825b8 25b825b8 25b825b8 25b825b8     .%.%.%.%.%.%.%.%
    5e70:	25b825b8 25b825b8 25b825b8 25b825b8     .%.%.%.%.%.%.%.%
    5e80:	25b825b8 25b825b8 25b825b8 25b825b8     .%.%.%.%.%.%.%.%
    5e90:	25b825b8 25b825b8 25b825b8 25b825b8     .%.%.%.%.%.%.%.%
    5ea0:	25b825b8 25b825b8 25b825b8 25b825b8     .%.%.%.%.%.%.%.%
    5eb0:	25b825b8 25b825b8 25b825b8 25b825b8     .%.%.%.%.%.%.%.%
    5ec0:	25b825b8 25b825b8 25b825b8 25b825b8     .%.%.%.%.%.%.%.%
    5ed0:	25b825b8 25b825b8 25b825b8 25b825b8     .%.%.%.%.%.%.%.%
    5ee0:	25b825b8 25b825b8 25b825b8 25b825b8     .%.%.%.%.%.%.%.%
    5ef0:	25b825b8 25b825b8 25b825b8 25b825b8     .%.%.%.%.%.%.%.%
    5f00:	25b825b8 25b825b8 25b825b8 25b825b8     .%.%.%.%.%.%.%.%
    5f10:	25b825b8 25b825b8 25b825b8 25b825b8     .%.%.%.%.%.%.%.%
    5f20:	25b825b8 25b825b8 25b825b8 25b825b8     .%.%.%.%.%.%.%.%
    5f30:	25b825b8 25b825b8 25b825b8 25b825b8     .%.%.%.%.%.%.%.%
    5f40:	25b825b8 25b825b8 25b825b8 25b825b8     .%.%.%.%.%.%.%.%
    5f50:	25b825b8 25b825b8 25b825b8 25b825b8     .%.%.%.%.%.%.%.%
    5f60:	25b825b8 25b825b8 25b825b8 25b825b8     .%.%.%.%.%.%.%.%
    5f70:	25b825b8 25b825b8 25b825b8 25b825b8     .%.%.%.%.%.%.%.%
    5f80:	25b825b8 25b825b8 25b825b8 25b825b8     .%.%.%.%.%.%.%.%
    5f90:	25b825b8 25b825b8 25b825b8 25b825b8     .%.%.%.%.%.%.%.%
    5fa0:	25b825b8 25b825b8 25b825b8 25b825b8     .%.%.%.%.%.%.%.%
    5fb0:	25b825b8 25b825b8 25b825b8 25b825b8     .%.%.%.%.%.%.%.%
    5fc0:	25b825b8 25b825b8 25b825b8 25b825b8     .%.%.%.%.%.%.%.%
    5fd0:	25b825b8 25b825b8 25b825b8 25b825b8     .%.%.%.%.%.%.%.%
    5fe0:	25b825b8 25b825b8 25b825b8 25b825b8     .%.%.%.%.%.%.%.%
    5ff0:	25b825b8 25b825b8 25b825b8 25b825b8     .%.%.%.%.%.%.%.%
    6000:	25b825b8 25b825b8 25b825b8 25b825b8     .%.%.%.%.%.%.%.%
    6010:	25b825b8 25b825b8 25b825b8 25b825b8     .%.%.%.%.%.%.%.%
    6020:	25b825b8 25b825b8 25b825b8 25b825b8     .%.%.%.%.%.%.%.%
    6030:	25b825b8 25b825b8 25b825b8 25b825b8     .%.%.%.%.%.%.%.%
    6040:	25b825b8 25b825b8 25b825b8 25b825b8     .%.%.%.%.%.%.%.%
    6050:	25b825b8 25b825b8 25b825b8 25b825b8     .%.%.%.%.%.%.%.%
    6060:	25b825b8 25b825b8 25b825b8 25b825b8     .%.%.%.%.%.%.%.%
    6070:	25b825b8 25b825b8 25b825b8 25b825b8     .%.%.%.%.%.%.%.%
    6080:	25b825b8 25b825b8 25b825b8 25b825b8     .%.%.%.%.%.%.%.%
    6090:	25b825b8 25b825b8 1db71db8 155625b8     .%.%.%.%.....%V.
    60a0:	25b825b8 25b825b8 25b825b8 25b825b8     .%.%.%.%.%.%.%.%
    60b0:	25b825b8 25b825b8 25b825b8 25b825b8     .%.%.%.%.%.%.%.%
    60c0:	25b825b8 25b825b8 25b825b8 25b825b8     .%.%.%.%.%.%.%.%
    60d0:	25b825b8 25b825b8 25b825b8 25b825b8     .%.%.%.%.%.%.%.%
    60e0:	25b825b8 25b825b8 25b825b8 25b825b8     .%.%.%.%.%.%.%.%
    60f0:	25b825b8 25b825b8 25b825b8 25b825b8     .%.%.%.%.%.%.%.%
    6100:	25b825b8 25b825b8 25b825b8 25b825b8     .%.%.%.%.%.%.%.%
    6110:	25b825b8 25b825b8 25b825b8 25b825b8     .%.%.%.%.%.%.%.%
    6120:	25b825b8 25b825b8 25b825b8 25b825b8     .%.%.%.%.%.%.%.%
    6130:	25b825b8 25b825b8 25b825b8 25b825b8     .%.%.%.%.%.%.%.%
    6140:	25b825b8 25b825b8 25b825b8 25b825b8     .%.%.%.%.%.%.%.%
    6150:	25b825b8 25b825b8 25b825b8 25b825b8     .%.%.%.%.%.%.%.%
    6160:	25b825b8 25b825b8 25b825b8 25b825b8     .%.%.%.%.%.%.%.%
    6170:	25b825b8 25b825b8 25b825b8 25b825b8     .%.%.%.%.%.%.%.%
    6180:	25b825b8 25b825b8 25b825b8 25b825b8     .%.%.%.%.%.%.%.%
    6190:	25b825b8 25b825b8 25b825b8 25b825b8     .%.%.%.%.%.%.%.%
    61a0:	25b825b8 25b825b8 25b825b8 25b825b8     .%.%.%.%.%.%.%.%
    61b0:	25b825b8 25b825b8 25b825b8 25b825b8     .%.%.%.%.%.%.%.%
    61c0:	25b825b8 25b825b8 25b825b8 25b825b8     .%.%.%.%.%.%.%.%
    61d0:	25b825b8 25b825b8 25b825b8 25b825b8     .%.%.%.%.%.%.%.%
    61e0:	25b825b8 25b825b8 25b825b8 25b825b8     .%.%.%.%.%.%.%.%
    61f0:	25b825b8 25b825b8 25b825b8 25b825b8     .%.%.%.%.%.%.%.%
    6200:	25b825b8 25b825b8 25b825b8 25b825b8     .%.%.%.%.%.%.%.%
    6210:	25b825b8 25b825b8 25b825b8 25b825b8     .%.%.%.%.%.%.%.%
    6220:	25b825b8 25b825b8 25b825b8 25b825b8     .%.%.%.%.%.%.%.%
    6230:	25b825b8 25b825b8 25b825b8 25b825b8     .%.%.%.%.%.%.%.%
    6240:	25b825b8 25b825b8 25b825b8 25b825b8     .%.%.%.%.%.%.%.%
    6250:	25b825b8 25b825b8 25b825b8 25b825b8     .%.%.%.%.%.%.%.%
    6260:	25b825b8 25b825b8 25b825b8 25b825b8     .%.%.%.%.%.%.%.%
    6270:	25b825b8 25b825b8 25b825b8 25b825b8     .%.%.%.%.%.%.%.%
    6280:	25b825b8 25b825b8 25b825b8 25b825b8     .%.%.%.%.%.%.%.%
    6290:	25b825b8 25b825b8 25b825b8 25b825b8     .%.%.%.%.%.%.%.%
    62a0:	25b825b8 25b825b8 25b825b8 25b825b8     .%.%.%.%.%.%.%.%
    62b0:	25b825b8 25b825b8 25b825b8 25b825b8     .%.%.%.%.%.%.%.%
    62c0:	25b825b8 25b825b8 25b825b8 25b825b8     .%.%.%.%.%.%.%.%
    62d0:	25b825b8 25b825b8 25b825b8 25b825b8     .%.%.%.%.%.%.%.%
    62e0:	25b825b8 25b825b8 25b825b8 25b825b8     .%.%.%.%.%.%.%.%
    62f0:	25b825b8 25b825b8 25b825b8 25b825b8     .%.%.%.%.%.%.%.%
    6300:	25b825b8 25b825b8 25b825b8 25b825b8     .%.%.%.%.%.%.%.%
    6310:	25b825b8 25b825b8 1db71db8 155625b8     .%.%.%.%.....%V.
    6320:	25b825b8 25b825b8 25b825b8 25b825b8     .%.%.%.%.%.%.%.%
    6330:	25b825b8 25b825b8 25b825b8 25b825b8     .%.%.%.%.%.%.%.%
    6340:	25b825b8 25b825b8 25b825b8 25b825b8     .%.%.%.%.%.%.%.%
    6350:	25b825b8 25b825b8 25b825b8 25b825b8     .%.%.%.%.%.%.%.%
    6360:	25b825b8 25b825b8 25b825b8 25b825b8     .%.%.%.%.%.%.%.%
    6370:	25b825b8 25b825b8 25b825b8 25b825b8     .%.%.%.%.%.%.%.%
    6380:	25b825b8 25b825b8 25b825b8 25b825b8     .%.%.%.%.%.%.%.%
    6390:	25b825b8 25b825b8 25b825b8 25b825b8     .%.%.%.%.%.%.%.%
    63a0:	25b825b8 25b825b8 25b825b8 25b825b8     .%.%.%.%.%.%.%.%
    63b0:	25b825b8 25b825b8 25b825b8 25b825b8     .%.%.%.%.%.%.%.%
    63c0:	25b825b8 25b825b8 25b825b8 25b825b8     .%.%.%.%.%.%.%.%
    63d0:	25b825b8 25b825b8 25b825b8 25b825b8     .%.%.%.%.%.%.%.%
    63e0:	25b825b8 25b825b8 25b825b8 25b825b8     .%.%.%.%.%.%.%.%
    63f0:	25b825b8 25b825b8 25b825b8 25b825b8     .%.%.%.%.%.%.%.%
    6400:	25b825b8 25b825b8 25b825b8 25b825b8     .%.%.%.%.%.%.%.%
    6410:	25b825b8 25b825b8 25b825b8 25b825b8     .%.%.%.%.%.%.%.%
    6420:	25b825b8 25b825b8 25b825b8 25b825b8     .%.%.%.%.%.%.%.%
    6430:	25b825b8 25b825b8 25b825b8 25b825b8     .%.%.%.%.%.%.%.%
    6440:	25b825b8 25b825b8 25b825b8 25b825b8     .%.%.%.%.%.%.%.%
    6450:	25b825b8 25b825b8 25b825b8 25b825b8     .%.%.%.%.%.%.%.%
    6460:	25b825b8 25b825b8 25b825b8 25b825b8     .%.%.%.%.%.%.%.%
    6470:	25b825b8 25b825b8 25b825b8 25b825b8     .%.%.%.%.%.%.%.%
    6480:	25b825b8 25b825b8 25b825b8 25b825b8     .%.%.%.%.%.%.%.%
    6490:	25b825b8 25b825b8 25b825b8 25b825b8     .%.%.%.%.%.%.%.%
    64a0:	25b825b8 25b825b8 25b825b8 25b825b8     .%.%.%.%.%.%.%.%
    64b0:	25b825b8 25b825b8 25b825b8 25b825b8     .%.%.%.%.%.%.%.%
    64c0:	25b825b8 25b825b8 25b825b8 25b825b8     .%.%.%.%.%.%.%.%
    64d0:	25b825b8 25b825b8 25b825b8 25b825b8     .%.%.%.%.%.%.%.%
    64e0:	25b825b8 25b825b8 25b825b8 25b825b8     .%.%.%.%.%.%.%.%
    64f0:	25b825b8 25b825b8 25b825b8 25b825b8     .%.%.%.%.%.%.%.%
    6500:	25b825b8 25b825b8 25b825b8 25b825b8     .%.%.%.%.%.%.%.%
    6510:	25b825b8 25b825b8 25b825b8 25b825b8     .%.%.%.%.%.%.%.%
    6520:	25b825b8 25b825b8 25b825b8 25b825b8     .%.%.%.%.%.%.%.%
    6530:	25b825b8 25b825b8 25b825b8 25b825b8     .%.%.%.%.%.%.%.%
    6540:	25b825b8 25b825b8 25b825b8 25b825b8     .%.%.%.%.%.%.%.%
    6550:	25b825b8 25b825b8 25b825b8 25b825b8     .%.%.%.%.%.%.%.%
    6560:	25b825b8 25b825b8 25b825b8 25b825b8     .%.%.%.%.%.%.%.%
    6570:	25b825b8 25b825b8 25b825b8 25b825b8     .%.%.%.%.%.%.%.%
    6580:	25b825b8 25b825b8 25b825b8 25b825b8     .%.%.%.%.%.%.%.%
    6590:	25b825b8 25b825b8 1db71db8 155625b8     .%.%.%.%.....%V.
    65a0:	25b825b8 25b825b8 25b825b8 25b825b8     .%.%.%.%.%.%.%.%
    65b0:	25b825b8 25b825b8 25b825b8 25b825b8     .%.%.%.%.%.%.%.%
    65c0:	25b825b8 25b825b8 25b825b8 25b825b8     .%.%.%.%.%.%.%.%
    65d0:	25b825b8 25b825b8 25b825b8 25b825b8     .%.%.%.%.%.%.%.%
    65e0:	25b825b8 25b825b8 25b825b8 25b825b8     .%.%.%.%.%.%.%.%
    65f0:	25b825b8 25b825b8 25b825b8 25b825b8     .%.%.%.%.%.%.%.%
    6600:	25b825b8 25b825b8 25b825b8 25b825b8     .%.%.%.%.%.%.%.%
    6610:	25b825b8 25b825b8 25b825b8 25b825b8     .%.%.%.%.%.%.%.%
    6620:	25b825b8 25b825b8 25b825b8 25b825b8     .%.%.%.%.%.%.%.%
    6630:	1db81db8 25b825b8 25b825b8 25b825b8     .....%.%.%.%.%.%
    6640:	25b825b8 25b825b8 25b825b8 25b825b8     .%.%.%.%.%.%.%.%
    6650:	25b825b8 25b825b8 25982598 25b825b8     .%.%.%.%.%.%.%.%
    6660:	25b825b8 25b825b8 25b825b8 25b825b8     .%.%.%.%.%.%.%.%
    6670:	25b825b8 25b825b8 25b825b8 25b825b8     .%.%.%.%.%.%.%.%
    6680:	25b825b8 25b825b8 25b825b8 25b825b8     .%.%.%.%.%.%.%.%
    6690:	25b825b8 25b825b8 25b825b8 25b825b8     .%.%.%.%.%.%.%.%
    66a0:	25b825b8 25b825b8 25b825b8 25b825b8     .%.%.%.%.%.%.%.%
    66b0:	25b825b8 25b825b8 25b825b8 25b825b8     .%.%.%.%.%.%.%.%
    66c0:	25b825b8 25b825b8 25b825b8 25b825b8     .%.%.%.%.%.%.%.%
    66d0:	25b825b8 25b825b8 25b825b8 25b825b8     .%.%.%.%.%.%.%.%
    66e0:	25b825b8 25b825b8 25b825b8 25b825b8     .%.%.%.%.%.%.%.%
    66f0:	25b825b8 25982598 25b825b8 25b825b8     .%.%.%.%.%.%.%.%
    6700:	25b825b8 25b825b8 25b825b8 25b825b8     .%.%.%.%.%.%.%.%
    6710:	25b825b8 1db81db8 25b825b8 25b825b8     .%.%.....%.%.%.%
    6720:	25b825b8 25982598 25b825b8 25b825b8     .%.%.%.%.%.%.%.%
    6730:	25b825b8 25b825b8 25b825b8 25b825b8     .%.%.%.%.%.%.%.%
    6740:	25b825b8 25b825b8 25b825b8 25b825b8     .%.%.%.%.%.%.%.%
    6750:	25b825b8 25b825b8 25b825b8 25b825b8     .%.%.%.%.%.%.%.%
    6760:	25b825b8 25b825b8 25b825b8 25b825b8     .%.%.%.%.%.%.%.%
    6770:	25b825b8 25b825b8 25b825b8 25b825b8     .%.%.%.%.%.%.%.%
    6780:	25b825b8 25b825b8 25b81d98 25b825b8     .%.%.%.%...%.%.%
    6790:	25b825b8 25b825b8 25b825b8 25b825b8     .%.%.%.%.%.%.%.%
    67a0:	25b825b8 25b825b8 25b825b8 25b825b8     .%.%.%.%.%.%.%.%
    67b0:	25b825b8 25b825b8 25b825b8 25b825b8     .%.%.%.%.%.%.%.%
    67c0:	25b825b8 25b825b8 25b825b8 25b825b8     .%.%.%.%.%.%.%.%
    67d0:	25b825b8 25b825b8 25b825b8 25b825b8     .%.%.%.%.%.%.%.%
    67e0:	25b825b8 25b825b8 25b825b8 25b825b8     .%.%.%.%.%.%.%.%
    67f0:	25b825b8 25b825b8 25b825b8 25b825b8     .%.%.%.%.%.%.%.%
    6800:	25b825b8 25b825b8 25b825b8 25b825b8     .%.%.%.%.%.%.%.%
    6810:	25b825b8 25b825b8 1d981db8 155725b8     .%.%.%.%.....%W.
    6820:	25b825b8 25b825b8 25b825b8 25b825b8     .%.%.%.%.%.%.%.%
    6830:	25b825b8 25b825b8 25b825b8 25b825b8     .%.%.%.%.%.%.%.%
    6840:	25b825b8 25b825b8 25b825b8 25b825b8     .%.%.%.%.%.%.%.%
    6850:	25b825b8 25b825b8 25b825b8 25b825b8     .%.%.%.%.%.%.%.%
    6860:	25b825b8 25b825b8 25b825b8 25b825b8     .%.%.%.%.%.%.%.%
    6870:	25b825b8 25b825b8 25b825b8 25b825b8     .%.%.%.%.%.%.%.%
    6880:	25b825b8 25b825b8 25b825b8 25b825b8     .%.%.%.%.%.%.%.%
    6890:	25b825b8 25b825b8 25b825b8 25b825b8     .%.%.%.%.%.%.%.%
    68a0:	25b825b8 25b825b8 25b825b8 25b825b8     .%.%.%.%.%.%.%.%
    68b0:	1db81db8 25b825b8 25b825b8 25b825b8     .....%.%.%.%.%.%
    68c0:	25b825b8 25b825b8 25b825b8 25b825b8     .%.%.%.%.%.%.%.%
    68d0:	25b825b8 25b825b8 25982598 25b825b8     .%.%.%.%.%.%.%.%
    68e0:	25b825b8 25b825b8 25b825b8 25b825b8     .%.%.%.%.%.%.%.%
    68f0:	25b825b8 25b825b8 25b825b8 25b825b8     .%.%.%.%.%.%.%.%
    6900:	25b825b8 25b825b8 25b825b8 25b825b8     .%.%.%.%.%.%.%.%
    6910:	25b825b8 25b825b8 25b825b8 25b825b8     .%.%.%.%.%.%.%.%
    6920:	25b825b8 25b825b8 25b825b8 25b825b8     .%.%.%.%.%.%.%.%
    6930:	25b825b8 25b825b8 25b825b8 25b825b8     .%.%.%.%.%.%.%.%
    6940:	25b825b8 25b825b8 25b825b8 25b825b8     .%.%.%.%.%.%.%.%
    6950:	25b825b8 25b825b8 25b825b8 25b825b8     .%.%.%.%.%.%.%.%
    6960:	25b825b8 25b825b8 25b825b8 25b825b8     .%.%.%.%.%.%.%.%
    6970:	25b825b8 25982598 25b825b8 25b825b8     .%.%.%.%.%.%.%.%
    6980:	25b825b8 25b825b8 25b825b8 1d9825b8     .%.%.%.%.%.%.%..
    6990:	25b825b8 1db81db8 25b825b8 25b825b8     .%.%.....%.%.%.%
    69a0:	25b825b8 25982598 25b825b8 25b825b8     .%.%.%.%.%.%.%.%
    69b0:	25b825b8 25b825b8 25b825b8 25b825b8     .%.%.%.%.%.%.%.%
    69c0:	25b825b8 25b825b8 25b825b8 25b825b8     .%.%.%.%.%.%.%.%
    69d0:	25b825b8 25b825b8 25b825b8 25b825b8     .%.%.%.%.%.%.%.%
    69e0:	25b825b8 25b825b8 25b825b8 25b825b8     .%.%.%.%.%.%.%.%
    69f0:	25b825b8 25b825b8 25b825b8 25b825b8     .%.%.%.%.%.%.%.%
    6a00:	25b825b8 25b825b8 25b825b8 25b81d98     .%.%.%.%.%.%...%
    6a10:	25b825b8 25b825b8 25b825b8 25b825b8     .%.%.%.%.%.%.%.%
    6a20:	25b825b8 25b81d98 25b825b8 25b825b8     .%.%...%.%.%.%.%
    6a30:	25b825b8 25b825b8 25b825b8 25b825b8     .%.%.%.%.%.%.%.%
    6a40:	25b825b8 25b825b8 25b825b8 25b825b8     .%.%.%.%.%.%.%.%
    6a50:	25b825b8 25b825b8 25b825b8 25b825b8     .%.%.%.%.%.%.%.%
    6a60:	25b825b8 25b825b8 25b825b8 25b825b8     .%.%.%.%.%.%.%.%
    6a70:	25b825b8 25b825b8 25b825b8 25b825b8     .%.%.%.%.%.%.%.%
    6a80:	25b825b8 25b825b8 25b825b8 25b825b8     .%.%.%.%.%.%.%.%
    6a90:	25b825b8 25b825b8 1d981db8 155625b8     .%.%.%.%.....%V.
    6aa0:	25b825b8 25b825b8 25b825b8 25b825b8     .%.%.%.%.%.%.%.%
    6ab0:	25b825b8 25b825b8 25b825b8 25b825b8     .%.%.%.%.%.%.%.%
    6ac0:	25b825b8 25b825b8 25b825b8 25b825b8     .%.%.%.%.%.%.%.%
    6ad0:	25b825b8 25b825b8 25b825b8 25b825b8     .%.%.%.%.%.%.%.%
    6ae0:	25b825b8 25b825b8 25b825b8 25b825b8     .%.%.%.%.%.%.%.%
    6af0:	25b825b8 25b825b8 25b825b8 25b825b8     .%.%.%.%.%.%.%.%
    6b00:	25b825b8 25b825b8 25b825b8 25982598     .%.%.%.%.%.%.%.%
    6b10:	25b825b8 25b825b8 25b825b8 25b825b8     .%.%.%.%.%.%.%.%
    6b20:	25b825b8 25b825b8 25b825b8 25b825b8     .%.%.%.%.%.%.%.%
    6b30:	25b825b8 25b825b8 25b825b8 25b825b8     .%.%.%.%.%.%.%.%
    6b40:	25b825b8 25b825b8 25b825b8 25b825b8     .%.%.%.%.%.%.%.%
    6b50:	25b82598 1d9825b8 25b825b8 25b825b8     .%.%.%...%.%.%.%
    6b60:	25b825b8 25b825b8 25b825b8 25b825b8     .%.%.%.%.%.%.%.%
    6b70:	25b825b8 25b825b8 25b825b8 25b825b8     .%.%.%.%.%.%.%.%
    6b80:	25b825b8 25b825b8 25b825b8 25b825b8     .%.%.%.%.%.%.%.%
    6b90:	25b825b8 25b825b8 25b825b8 25b825b8     .%.%.%.%.%.%.%.%
    6ba0:	25b825b8 25b825b8 25b825b8 25b825b8     .%.%.%.%.%.%.%.%
    6bb0:	25b825b8 25b825b8 25b825b8 25b825b8     .%.%.%.%.%.%.%.%
    6bc0:	25b825b8 25b825b8 25b825b8 25b825b8     .%.%.%.%.%.%.%.%
    6bd0:	25b825b8 25b825b8 25b825b8 25b825b8     .%.%.%.%.%.%.%.%
    6be0:	25b825b8 25b825b8 25b825b8 25b825b8     .%.%.%.%.%.%.%.%
    6bf0:	25b825b8 25982598 25b825b8 25982598     .%.%.%.%.%.%.%.%
    6c00:	25b825b8 25b81d98 25b825b8 25b825b8     .%.%...%.%.%.%.%
    6c10:	25b825b8 25b825b8 25b825b8 25b825b8     .%.%.%.%.%.%.%.%
    6c20:	1d9825b8 25b825b8 25b825b8 25b825b8     .%...%.%.%.%.%.%
    6c30:	25b81db8 259825b8 25b825b8 25b825b8     ...%.%.%.%.%.%.%
    6c40:	25b825b8 25b825b8 25b825b8 25b825b8     .%.%.%.%.%.%.%.%
    6c50:	25b825b8 25b825b8 1db81db8 25b825b8     .%.%.%.%.....%.%
    6c60:	25b825b8 25b825b8 25b825b8 25b825b8     .%.%.%.%.%.%.%.%
    6c70:	25b825b8 25b825b8 25b825b8 25b825b8     .%.%.%.%.%.%.%.%
    6c80:	25b825b8 25b825b8 25b825b8 25b825b8     .%.%.%.%.%.%.%.%
    6c90:	25b825b8 25b825b8 25b825b8 25982598     .%.%.%.%.%.%.%.%
    6ca0:	25982598 25b825b8 25b825b8 25b825b8     .%.%.%.%.%.%.%.%
    6cb0:	25b825b8 25b825b8 25b825b8 25b825b8     .%.%.%.%.%.%.%.%
    6cc0:	25b825b8 25b825b8 25b825b8 25b825b8     .%.%.%.%.%.%.%.%
    6cd0:	25b825b8 25b825b8 25b825b8 25b825b8     .%.%.%.%.%.%.%.%
    6ce0:	25b825b8 25b825b8 25b825b8 25b825b8     .%.%.%.%.%.%.%.%
    6cf0:	25b825b8 25b825b8 25b825b8 25b825b8     .%.%.%.%.%.%.%.%
    6d00:	25b825b8 25b825b8 25b825b8 25b825b8     .%.%.%.%.%.%.%.%
    6d10:	25b825b8 25b825b8 1db81db8 155725b8     .%.%.%.%.....%W.
    6d20:	25b825b8 25b825b8 25b825b8 25b825b8     .%.%.%.%.%.%.%.%
    6d30:	25b825b8 25b825b8 25b825b8 25b825b8     .%.%.%.%.%.%.%.%
    6d40:	25b825b8 25b825b8 25b825b8 25b825b8     .%.%.%.%.%.%.%.%
    6d50:	25b825b8 25b825b8 25b825b8 25b825b8     .%.%.%.%.%.%.%.%
    6d60:	25b825b8 25b825b8 25b825b8 25b825b8     .%.%.%.%.%.%.%.%
    6d70:	25b825b8 25b825b8 25b825b8 25b825b8     .%.%.%.%.%.%.%.%
    6d80:	25b825b8 25b825b8 25b825b8 25982598     .%.%.%.%.%.%.%.%
    6d90:	25b825b8 25b825b8 25b825b8 25b81d97     .%.%.%.%.%.%...%
    6da0:	25b825b8 25b825b8 25b825b8 25b825b8     .%.%.%.%.%.%.%.%
    6db0:	25b825b8 25b825b8 25b825b8 25b825b8     .%.%.%.%.%.%.%.%
    6dc0:	25b825b8 25b825b8 25b825b8 25b825b8     .%.%.%.%.%.%.%.%
    6dd0:	25982598 25b825b8 25b825b8 25b825b8     .%.%.%.%.%.%.%.%
    6de0:	25b825b8 25b825b8 25b825b8 25b825b8     .%.%.%.%.%.%.%.%
    6df0:	25b825b8 25b825b8 25b825b8 25b825b8     .%.%.%.%.%.%.%.%
    6e00:	25b825b8 25b825b8 25b825b8 25b825b8     .%.%.%.%.%.%.%.%
    6e10:	25b825b8 25b825b8 25b825b8 25b825b8     .%.%.%.%.%.%.%.%
    6e20:	25b825b8 25b825b8 25b825b8 25b825b8     .%.%.%.%.%.%.%.%
    6e30:	25b825b8 25b825b8 25b825b8 25b825b8     .%.%.%.%.%.%.%.%
    6e40:	25b825b8 25b825b8 25b825b8 25b825b8     .%.%.%.%.%.%.%.%
    6e50:	25b825b8 25b825b8 25b825b8 25b825b8     .%.%.%.%.%.%.%.%
    6e60:	25b825b8 25b825b8 25b825b8 25b825b8     .%.%.%.%.%.%.%.%
    6e70:	25b825b8 25982598 25b825b8 25982598     .%.%.%.%.%.%.%.%
    6e80:	25b825b8 25b81d98 25b825b8 25b825b8     .%.%...%.%.%.%.%
    6e90:	25b825b8 25b825b8 25b825b8 25b825b8     .%.%.%.%.%.%.%.%
    6ea0:	25b825b8 1d9825b8 25b825b8 25b825b8     .%.%.%...%.%.%.%
    6eb0:	25b81db8 25b825b8 25b825b8 25b825b8     ...%.%.%.%.%.%.%
    6ec0:	25b825b8 25b825b8 25b825b8 25b825b8     .%.%.%.%.%.%.%.%
    6ed0:	25b825b8 25b825b8 1db81db8 25b825b8     .%.%.%.%.....%.%
    6ee0:	25b825b8 25b825b8 25b825b8 25b825b8     .%.%.%.%.%.%.%.%
    6ef0:	25b825b8 25b825b8 25b825b8 25b825b8     .%.%.%.%.%.%.%.%
    6f00:	25b825b8 25b825b8 25b825b8 25b825b8     .%.%.%.%.%.%.%.%
    6f10:	25b825b8 25b825b8 25b825b8 25982598     .%.%.%.%.%.%.%.%
    6f20:	25982598 25b825b8 25b825b8 25b825b8     .%.%.%.%.%.%.%.%
    6f30:	25b825b8 25b825b8 25b825b8 25b825b8     .%.%.%.%.%.%.%.%
    6f40:	25b825b8 25b825b8 25b825b8 25b825b8     .%.%.%.%.%.%.%.%
    6f50:	25b825b8 25b825b8 25b825b8 25b825b8     .%.%.%.%.%.%.%.%
    6f60:	25b825b8 25b825b8 25b825b8 25b825b8     .%.%.%.%.%.%.%.%
    6f70:	25b825b8 25b825b8 25b825b8 25b825b8     .%.%.%.%.%.%.%.%
    6f80:	25b825b8 25b825b8 25b825b8 25b825b8     .%.%.%.%.%.%.%.%
    6f90:	25b825b8 25b825b8 1db81db8 1d7725b8     .%.%.%.%.....%w.
    6fa0:	25b825b8 25b825b8 25b825b8 25b825b8     .%.%.%.%.%.%.%.%
    6fb0:	25b825b8 25b825b8 25b825b8 25b825b8     .%.%.%.%.%.%.%.%
    6fc0:	25b825b8 25b825b8 25b825b8 25b825b8     .%.%.%.%.%.%.%.%
    6fd0:	25b825b8 25b825b8 25b825b8 25b825b8     .%.%.%.%.%.%.%.%
    6fe0:	25b825b8 25b825b8 25b825b8 25b825b8     .%.%.%.%.%.%.%.%
    6ff0:	25b825b8 25b825b8 25b825b8 25b825b8     .%.%.%.%.%.%.%.%
    7000:	25b825b8 25b825b8 25b825b8 25b825b8     .%.%.%.%.%.%.%.%
    7010:	25b825b8 1db81db8 25b825b8 25982598     .%.%.....%.%.%.%
    7020:	25b825b8 25b825b8 25b825b8 25982598     .%.%.%.%.%.%.%.%
    7030:	25b825b8 25b825b8 25b825b8 25b825b8     .%.%.%.%.%.%.%.%
    7040:	25b825b8 25b825b8 25982598 25b825b8     .%.%.%.%.%.%.%.%
    7050:	25b825b8 25b825b8 25b81d98 25b825b8     .%.%.%.%...%.%.%
    7060:	25b825b8 25b825b8 25b825b8 25b825b8     .%.%.%.%.%.%.%.%
    7070:	25b825b8 25b825b8 25b825b8 25b825b8     .%.%.%.%.%.%.%.%
    7080:	25b825b8 25b825b8 25b825b8 25b825b8     .%.%.%.%.%.%.%.%
    7090:	25b825b8 25b825b8 25b825b8 25b825b8     .%.%.%.%.%.%.%.%
    70a0:	25b825b8 25b825b8 25b825b8 25b825b8     .%.%.%.%.%.%.%.%
    70b0:	25b825b8 25b825b8 25b825b8 25b825b8     .%.%.%.%.%.%.%.%
    70c0:	25b825b8 25b825b8 25b825b8 25b825b8     .%.%.%.%.%.%.%.%
    70d0:	25b825b8 25b825b8 25b825b8 25b825b8     .%.%.%.%.%.%.%.%
    70e0:	25b825b8 25b825b8 25b825b8 25b825b8     .%.%.%.%.%.%.%.%
    70f0:	25b825b8 25b825b8 25b825b8 25b825b8     .%.%.%.%.%.%.%.%
    7100:	1db81db8 25b825b8 25b825b8 25982598     .....%.%.%.%.%.%
    7110:	25b825b8 25b825b8 25b825b8 1db81db8     .%.%.%.%.%.%....
    7120:	25b825b8 25b825b8 25b825b8 25b825b8     .%.%.%.%.%.%.%.%
    7130:	25b825b8 25b825b8 1db825b8 25b825b8     .%.%.%.%.%...%.%
    7140:	25b825b8 25b825b8 25b825b8 25b825b8     .%.%.%.%.%.%.%.%
    7150:	25b825b8 25b825b8 25b825b8 25b825b8     .%.%.%.%.%.%.%.%
    7160:	25b825b8 25b825b8 25b825b8 25b825b8     .%.%.%.%.%.%.%.%
    7170:	25b825b8 25b825b8 25b825b8 25b825b8     .%.%.%.%.%.%.%.%
    7180:	1db81db8 25b825b8 25b825b8 25b825b8     .....%.%.%.%.%.%
    7190:	25b825b8 25b825b8 25b825b8 25b825b8     .%.%.%.%.%.%.%.%
    71a0:	25b81d98 25b825b8 1d982598 25b825b8     ...%.%.%.%...%.%
    71b0:	25b82598 25b825b8 25b825b8 1db81db8     .%.%.%.%.%.%....
    71c0:	25b825b8 25b825b8 25b825b8 25b825b8     .%.%.%.%.%.%.%.%
    71d0:	25b825b8 25b825b8 25b825b8 25b825b8     .%.%.%.%.%.%.%.%
    71e0:	25b825b8 25b825b8 25b825b8 25b825b8     .%.%.%.%.%.%.%.%
    71f0:	25b825b8 25b825b8 25b825b8 25b825b8     .%.%.%.%.%.%.%.%
    7200:	25b825b8 25b825b8 25b825b8 25b825b8     .%.%.%.%.%.%.%.%
    7210:	25b825b8 25b825b8 1d981db8 155725b8     .%.%.%.%.....%W.
    7220:	25b825b8 25b825b8 25b825b8 25b825b8     .%.%.%.%.%.%.%.%
    7230:	25b825b8 25b825b8 25b825b8 25b825b8     .%.%.%.%.%.%.%.%
    7240:	25b825b8 25b825b8 25b825b8 25b825b8     .%.%.%.%.%.%.%.%
    7250:	25b825b8 25b825b8 25b825b8 25b825b8     .%.%.%.%.%.%.%.%
    7260:	25b825b8 25b825b8 25b825b8 25b825b8     .%.%.%.%.%.%.%.%
    7270:	25b825b8 25b825b8 25b825b8 25b825b8     .%.%.%.%.%.%.%.%
    7280:	25b825b8 25b825b8 25b825b8 25b825b8     .%.%.%.%.%.%.%.%
    7290:	25b825b8 1db81db8 25b825b8 25982598     .%.%.....%.%.%.%
    72a0:	25972598 25972597 25972597 25972597     .%.%.%.%.%.%.%.%
    72b0:	25972597 25972597 25972597 25972597     .%.%.%.%.%.%.%.%
    72c0:	25972597 25972597 25972597 25972597     .%.%.%.%.%.%.%.%
    72d0:	25982597 25b82598 25b825b8 25b825b8     .%.%.%.%.%.%.%.%
    72e0:	25b825b8 25b825b8 25b825b8 25b825b8     .%.%.%.%.%.%.%.%
    72f0:	25b825b8 25b825b8 25b825b8 25b825b8     .%.%.%.%.%.%.%.%
    7300:	25b825b8 25b825b8 25b825b8 25b825b8     .%.%.%.%.%.%.%.%
    7310:	25b825b8 25b825b8 25b825b8 25b825b8     .%.%.%.%.%.%.%.%
    7320:	25b825b8 25b825b8 25b825b8 25b825b8     .%.%.%.%.%.%.%.%
    7330:	25b825b8 25b825b8 25b825b8 25b825b8     .%.%.%.%.%.%.%.%
    7340:	25b825b8 25b825b8 25b825b8 25b825b8     .%.%.%.%.%.%.%.%
    7350:	25b825b8 25b825b8 25b825b8 25b825b8     .%.%.%.%.%.%.%.%
    7360:	25b825b8 25b825b8 25b825b8 25b825b8     .%.%.%.%.%.%.%.%
    7370:	25b825b8 25b825b8 25b825b8 25b825b8     .%.%.%.%.%.%.%.%
    7380:	259825b8 25972598 25972597 25772577     .%.%.%.%.%.%w%w%
    7390:	25972597 25972597 25972597 25972597     .%.%.%.%.%.%.%.%
    73a0:	25982597 25982597 25b82598 25b825b8     .%.%.%.%.%.%.%.%
    73b0:	25b825b8 25b825b8 1db81db8 25b825b8     .%.%.%.%.....%.%
    73c0:	25b825b8 25b825b8 25b825b8 25b825b8     .%.%.%.%.%.%.%.%
    73d0:	25b825b8 25b825b8 25b825b8 25b825b8     .%.%.%.%.%.%.%.%
    73e0:	25b825b8 25b825b8 25b825b8 25b825b8     .%.%.%.%.%.%.%.%
    73f0:	25b825b8 25b825b8 25b825b8 25b82598     .%.%.%.%.%.%.%.%
    7400:	25b81db8 25982598 25972597 25972597     ...%.%.%.%.%.%.%
    7410:	25972597 25972598 25772598 25972598     .%.%.%.%.%w%.%.%
    7420:	25982598 25b82598 25982598 25b825b8     .%.%.%.%.%.%.%.%
    7430:	25982598 25b825b8 25b825b8 1db81db8     .%.%.%.%.%.%....
    7440:	25b825b8 25b825b8 25b825b8 25b825b8     .%.%.%.%.%.%.%.%
    7450:	25b825b8 25b825b8 25b825b8 25b825b8     .%.%.%.%.%.%.%.%
    7460:	25b825b8 25b825b8 25b825b8 25b825b8     .%.%.%.%.%.%.%.%
    7470:	25b825b8 25b825b8 25b825b8 25b825b8     .%.%.%.%.%.%.%.%
    7480:	25b825b8 25b825b8 25b825b8 25b825b8     .%.%.%.%.%.%.%.%
    7490:	25b825b8 25b825b8 1db81db8 1d7725b8     .%.%.%.%.....%w.
    74a0:	25b825b8 25b825b8 25b825b8 25b825b8     .%.%.%.%.%.%.%.%
    74b0:	25b825b8 25b825b8 25b825b8 25b825b8     .%.%.%.%.%.%.%.%
    74c0:	25b825b8 25b825b8 25b825b8 25b825b8     .%.%.%.%.%.%.%.%
    74d0:	25b825b8 25b825b8 25b825b8 25b825b8     .%.%.%.%.%.%.%.%
    74e0:	25b825b8 25b825b8 25b825b8 25b825b8     .%.%.%.%.%.%.%.%
    74f0:	25b825b8 25b825b8 25b825b8 25b825b8     .%.%.%.%.%.%.%.%
    7500:	25b825b8 25982598 25982598 25982598     .%.%.%.%.%.%.%.%
    7510:	25b825b8 1db81db7 25b725b7 2d972597     .%.%.....%.%.%.-
    7520:	2d982d98 2d982d98 2d982d98 2d972d98     .-.-.-.-.-.-.-.-
    7530:	35982d97 35773578 35973597 35973598     .-.5x5w5.5.5.5.5
    7540:	35983597 35983598 35973597 35b73597     .5.5.5.5.5.5.5.5
    7550:	2d972d97 25b82598 25b825b8 1db81db8     .-.-.%.%.%.%....
    7560:	25b825b8 25b825b8 25b825b8 25b825b8     .%.%.%.%.%.%.%.%
    7570:	25b825b8 25b825b8 25b825b8 25b825b8     .%.%.%.%.%.%.%.%
    7580:	25982598 25b825b8 25b825b8 25b825b8     .%.%.%.%.%.%.%.%
    7590:	25b825b8 25b825b8 25b825b8 25b825b8     .%.%.%.%.%.%.%.%
    75a0:	25b825b8 25b825b8 25b825b8 25b825b8     .%.%.%.%.%.%.%.%
    75b0:	25b825b8 25b825b8 25b825b8 25b825b8     .%.%.%.%.%.%.%.%
    75c0:	25b825b8 25b825b8 25b825b8 25b825b8     .%.%.%.%.%.%.%.%
    75d0:	25b825b8 25b825b8 25b825b8 25b825b8     .%.%.%.%.%.%.%.%
    75e0:	25b825b8 25b825b8 25b825b8 25b825b8     .%.%.%.%.%.%.%.%
    75f0:	25b825b8 25982598 25b825b8 25982598     .%.%.%.%.%.%.%.%
    7600:	259725b8 35983598 35773598 35783577     .%.%.5.5.5w5w5x5
    7610:	35783578 35973597 35973597 35973597     x5x5.5.5.5.5.5.5
    7620:	35983597 2d983597 25982598 1d9825b8     .5.5.5.-.%.%.%..
    7630:	25982598 25b825b8 25b825b8 25b825b8     .%.%.%.%.%.%.%.%
    7640:	25b825b8 25b825b8 25b825b8 25b825b8     .%.%.%.%.%.%.%.%
    7650:	25b825b8 25b825b8 25b825b8 25b825b8     .%.%.%.%.%.%.%.%
    7660:	25b825b8 25b825b8 25b825b8 25b825b8     .%.%.%.%.%.%.%.%
    7670:	25982598 25b825b8 259825b8 25982598     .%.%.%.%.%.%.%.%
    7680:	25b825b8 25972598 35773598 35973597     .%.%.%.%.5w5.5.5
    7690:	35773577 35973597 35773597 35983597     w5w5.5.5.5w5.5.5
    76a0:	2d983598 25982598 25981d98 25982598     .5.-.%.%...%.%.%
    76b0:	25b825b8 25b825b8 25b825b8 25b825b8     .%.%.%.%.%.%.%.%
    76c0:	25b825b8 25b825b8 25b825b8 25b825b8     .%.%.%.%.%.%.%.%
    76d0:	25b825b8 25b825b8 25b825b8 25b825b8     .%.%.%.%.%.%.%.%
    76e0:	25b825b8 25b825b8 25b825b8 25b825b8     .%.%.%.%.%.%.%.%
    76f0:	25b825b8 25b825b8 25b825b8 25b825b8     .%.%.%.%.%.%.%.%
    7700:	25b825b8 25b825b8 25b825b8 25b825b8     .%.%.%.%.%.%.%.%
    7710:	25b825b8 25b825b8 1db81db8 155725b8     .%.%.%.%.....%W.
    7720:	25b825b8 25b825b8 25b825b8 25b825b8     .%.%.%.%.%.%.%.%
    7730:	25b825b8 25b825b8 25b825b8 25b825b8     .%.%.%.%.%.%.%.%
    7740:	25b825b8 25b825b8 25b825b8 25b825b8     .%.%.%.%.%.%.%.%
    7750:	25b825b8 25b825b8 25b825b8 25b825b8     .%.%.%.%.%.%.%.%
    7760:	25b825b8 25b825b8 25b825b8 25b825b8     .%.%.%.%.%.%.%.%
    7770:	25b825b8 25b825b8 25b825b8 25b825b8     .%.%.%.%.%.%.%.%
    7780:	25b825b8 25982598 25b82598 25982598     .%.%.%.%.%.%.%.%
    7790:	1d972598 25b81d97 2d772597 35162d56     .%.....%.%w-V-.5
    77a0:	35163516 35153516 34f534f5 3cf534f5     .5.5.5.5.4.4.4.<
    77b0:	3cf53cf5 3cd53cb5 3cd43cd5 3cd53cd5     .<.<.<.<.<.<.<.<
    77c0:	3cd444d5 3cb53cd4 3cb43cb4 34d43cd4     .D.<.<.<.<.<.<.4
    77d0:	355734f5 25b82d98 1db825b8 1db81d98     .4W5.-.%.%......
    77e0:	25b825b8 25b825b8 25b825b8 25b825b8     .%.%.%.%.%.%.%.%
    77f0:	25b825b8 25b825b8 25b825b8 25b825b8     .%.%.%.%.%.%.%.%
    7800:	25982598 25b825b8 25b825b8 25b825b8     .%.%.%.%.%.%.%.%
    7810:	25b825b8 25b825b8 25b825b8 25b825b8     .%.%.%.%.%.%.%.%
    7820:	25b825b8 25b825b8 25b825b8 25b825b8     .%.%.%.%.%.%.%.%
    7830:	25b825b8 25b825b8 25b825b8 25b825b8     .%.%.%.%.%.%.%.%
    7840:	25b825b8 25b825b8 25b825b8 25b825b8     .%.%.%.%.%.%.%.%
    7850:	25b825b8 25b825b8 25b825b8 25b825b8     .%.%.%.%.%.%.%.%
    7860:	25b825b8 25b825b8 25b825b8 25b825b8     .%.%.%.%.%.%.%.%
    7870:	25b825b8 25b81d97 1d971d98 259725b8     .%.%...%.....%.%
    7880:	2d572577 3cd534b5 44b53cb4 3cb53cb5     w%W-.4.<.<.D.<.<
    7890:	3cb43cb5 3cb43cb4 3cb43cb4 3cb43cb4     .<.<.<.<.<.<.<.<
    78a0:	3cb43cb4 34f53cd5 25972d77 259825b8     .<.<.<.4w-.%.%.%
    78b0:	25982598 25b825b8 25b825b8 25b825b8     .%.%.%.%.%.%.%.%
    78c0:	25b825b8 25b825b8 25b825b8 25b825b8     .%.%.%.%.%.%.%.%
    78d0:	25b825b8 25b825b8 25b825b8 25b825b8     .%.%.%.%.%.%.%.%
    78e0:	25b825b8 25b825b8 25b825b8 25b825b8     .%.%.%.%.%.%.%.%
    78f0:	25982598 25b825b8 259825b8 25982598     .%.%.%.%.%.%.%.%
    7900:	259825b8 2d362d97 3cb434d5 3cb43cb4     .%.%.-6-.4.<.<.<
    7910:	3cb43cb4 3cb444b4 44d53cb4 34b43cb4     .<.<.D.<.<.D.<.4
    7920:	351634b5 25972d98 259825b8 25982598     .4.5.-.%.%.%.%.%
    7930:	25b825b8 25b825b8 25b825b8 25b825b8     .%.%.%.%.%.%.%.%
    7940:	25b825b8 25b825b8 25b825b8 25b825b8     .%.%.%.%.%.%.%.%
    7950:	25b825b8 25b825b8 25b825b8 25b825b8     .%.%.%.%.%.%.%.%
    7960:	25b825b8 25b825b8 25b825b8 25b825b8     .%.%.%.%.%.%.%.%
    7970:	25b825b8 25b825b8 25b825b8 25b825b8     .%.%.%.%.%.%.%.%
    7980:	25b825b8 25b825b8 25b825b8 25b825b8     .%.%.%.%.%.%.%.%
    7990:	25b825b8 25b825b8 1db81db8 155725b8     .%.%.%.%.....%W.
    79a0:	25b825b8 25b825b8 25b825b8 25b825b8     .%.%.%.%.%.%.%.%
    79b0:	25b825b8 25b825b8 25b825b8 25b825b8     .%.%.%.%.%.%.%.%
    79c0:	25b825b8 25b825b8 25b825b8 25b825b8     .%.%.%.%.%.%.%.%
    79d0:	25b825b8 25b825b8 25b825b8 25b825b8     .%.%.%.%.%.%.%.%
    79e0:	25b825b8 25b825b8 25b825b8 25b825b8     .%.%.%.%.%.%.%.%
    79f0:	25b825b8 25b825b8 25b825b8 25b825b8     .%.%.%.%.%.%.%.%
    7a00:	25b825b8 25982598 1db825b8 25b825b8     .%.%.%.%.%...%.%
    7a10:	259825b8 25972598 24b42d97 130e0b4f     .%.%.%.%.-.$O...
    7a20:	12cd12ed 126b12ac 0a4b0a4b 0a0a0a2a     ......k.K.K.*...
    7a30:	09c909e9 098809a9 098809a8 01670968     ............h.g.
    7a40:	09470947 01470147 01270147 01470147     G.G.G.G.G.'.G.G.
    7a50:	3d16022a 25b82d98 1db825b8 1db81db8     *..=.-.%.%......
    7a60:	25b825b8 25b825b8 25b825b8 25b825b8     .%.%.%.%.%.%.%.%
    7a70:	25b825b8 25b825b8 25b825b8 25b825b8     .%.%.%.%.%.%.%.%
    7a80:	25b825b8 25b825b8 25b825b8 25b825b8     .%.%.%.%.%.%.%.%
    7a90:	25b825b8 25b825b8 25b825b8 25b825b8     .%.%.%.%.%.%.%.%
    7aa0:	25b825b8 25b825b8 25b825b8 25b825b8     .%.%.%.%.%.%.%.%
    7ab0:	25b825b8 25b825b8 25b825b8 25b825b8     .%.%.%.%.%.%.%.%
    7ac0:	25b825b8 25b825b8 25b825b8 25b825b8     .%.%.%.%.%.%.%.%
    7ad0:	25b825b8 25b825b8 25b825b8 25b825b8     .%.%.%.%.%.%.%.%
    7ae0:	25b825b8 25b825b8 25b825b8 25b825b8     .%.%.%.%.%.%.%.%
    7af0:	25b825b8 1db81db8 259825b8 25972597     .%.%.....%.%.%.%
    7b00:	24333598 01270168 01270107 01060127     .53$h.'...'.'...
    7b10:	01060106 01060106 01260126 01260106     ........&.&...&.
    7b20:	01270126 01e90126 2d9734f5 25b82577     &.'.&....4.-w%.%
    7b30:	25982598 1db825b8 25b825b8 25b825b8     .%.%.%...%.%.%.%
    7b40:	25982598 25b825b8 25b825b8 25982598     .%.%.%.%.%.%.%.%
    7b50:	25b825b8 25b825b8 1db81db8 25b825b8     .%.%.%.%.....%.%
    7b60:	25b825b8 25b825b8 25b825b8 25b825b8     .%.%.%.%.%.%.%.%
    7b70:	25b825b8 25b825b8 259825b8 25982598     .%.%.%.%.%.%.%.%
    7b80:	259725b8 24533598 01270168 09270127     .%.%.5S$h.'.'.'.
    7b90:	01260106 01060106 01060127 01470127     ..&.....'...'.G.
    7ba0:	23b00167 25983db8 1db825b8 1d9825b8     g..#.=.%.%...%..
    7bb0:	25b825b8 25b825b8 25982598 25b825b8     .%.%.%.%.%.%.%.%
    7bc0:	25b825b8 25b825b8 25b825b8 25b825b8     .%.%.%.%.%.%.%.%
    7bd0:	25b825b8 25b825b8 25b825b8 25b825b8     .%.%.%.%.%.%.%.%
    7be0:	25b825b8 25b825b8 25b825b8 25b825b8     .%.%.%.%.%.%.%.%
    7bf0:	25b825b8 25b825b8 25b825b8 25b825b8     .%.%.%.%.%.%.%.%
    7c00:	25b825b8 25b825b8 25b825b8 25b825b8     .%.%.%.%.%.%.%.%
    7c10:	25b825b8 25b825b8 1db81db8 155725b8     .%.%.%.%.....%W.
    7c20:	25b825b8 25b825b8 25b825b8 25b825b8     .%.%.%.%.%.%.%.%
    7c30:	25b825b8 25b825b8 25b825b8 25b825b8     .%.%.%.%.%.%.%.%
    7c40:	25b825b8 25b825b8 25b825b8 25b825b8     .%.%.%.%.%.%.%.%
    7c50:	25b825b8 25b825b8 25b825b8 25b825b8     .%.%.%.%.%.%.%.%
    7c60:	25b825b8 25b825b8 25b825b8 25b825b8     .%.%.%.%.%.%.%.%
    7c70:	25b825b8 25b825b8 25b825b8 25b825b8     .%.%.%.%.%.%.%.%
    7c80:	25b825b8 25b82598 1db81db8 25b81db8     .%.%.%.%.......%
    7c90:	25982598 35772d98 2c534577 128b0aac     .%.%.-w5wES,....
    7ca0:	1a2a124b 19e91a09 11a811c9 11871188     K.*.............
    7cb0:	11261167 10e61926 10c510e5 10e510e5     g.&.&...........
    7cc0:	10c410c5 10a410c4 10c510a4 00c510c5     ................
    7cd0:	44f501a9 25b83577 1db825b8 1db81db8     ...Dw5.%.%......
    7ce0:	25b825b8 25b825b8 25b825b8 25b825b8     .%.%.%.%.%.%.%.%
    7cf0:	25b825b8 25b825b8 25b825b8 25b825b8     .%.%.%.%.%.%.%.%
    7d00:	25b825b8 25b825b8 25b825b8 25b825b8     .%.%.%.%.%.%.%.%
    7d10:	25b825b8 25b825b8 25b825b8 25b825b8     .%.%.%.%.%.%.%.%
    7d20:	25b825b8 25b825b8 25b825b8 25b825b8     .%.%.%.%.%.%.%.%
    7d30:	25b825b8 25b825b8 25b825b8 25b825b8     .%.%.%.%.%.%.%.%
    7d40:	25b825b8 25b825b8 25b825b8 25b825b8     .%.%.%.%.%.%.%.%
    7d50:	25b825b8 25b825b8 25b825b8 25b825b8     .%.%.%.%.%.%.%.%
    7d60:	25b825b8 25b825b8 25b825b8 25b825b8     .%.%.%.%.%.%.%.%
    7d70:	25b825b8 1db81db8 25981d98 259725b7     .%.%.......%.%.%
    7d80:	23f13d98 08a500e6 108410a5 10a410a5     .=.#............
    7d90:	10a410a4 10a410a4 10a410a4 10a410a4     ................
    7da0:	10c410a4 096708c4 45564c93 2d982d57     ......g..LVEW-.-
    7db0:	25982598 1db81d98 25b825b8 25b825b8     .%.%.....%.%.%.%
    7dc0:	25982598 25b825b8 25b825b8 25982598     .%.%.%.%.%.%.%.%
    7dd0:	25b825b8 25b825b8 1db81db8 25b825b8     .%.%.%.%.....%.%
    7de0:	25b825b8 25b825b8 25b825b8 25b825b8     .%.%.%.%.%.%.%.%
    7df0:	25b825b8 25b825b8 259825b8 25982598     .%.%.%.%.%.%.%.%
    7e00:	259725b8 2c123d98 10a500e6 10a418c5     .%.%.=.,........
    7e10:	10a410a4 10a410a4 10a410c4 08c510a4     ................
    7e20:	2b6f00a5 25973d98 1d981d98 25b825b8     ..o+.=.%.....%.%
    7e30:	25b825b8 25b825b8 25982598 25b825b8     .%.%.%.%.%.%.%.%
    7e40:	25b825b8 25b825b8 25b825b8 25b825b8     .%.%.%.%.%.%.%.%
    7e50:	25b825b8 25b825b8 25b825b8 25b825b8     .%.%.%.%.%.%.%.%
    7e60:	25b825b8 25b825b8 25b825b8 25b825b8     .%.%.%.%.%.%.%.%
    7e70:	25b825b8 25b825b8 25b825b8 25b825b8     .%.%.%.%.%.%.%.%
    7e80:	25b825b8 25b825b8 25b825b8 25b825b8     .%.%.%.%.%.%.%.%
    7e90:	25b825b8 25b825b8 1db81db8 155725b8     .%.%.%.%.....%W.
    7ea0:	25b825b8 25b825b8 25b825b8 25b825b8     .%.%.%.%.%.%.%.%
    7eb0:	25b825b8 25b825b8 25b825b8 25b825b8     .%.%.%.%.%.%.%.%
    7ec0:	25b825b8 25b825b8 25b825b8 25b825b8     .%.%.%.%.%.%.%.%
    7ed0:	25b825b8 25b825b8 25b825b8 25b825b8     .%.%.%.%.%.%.%.%
    7ee0:	25b825b8 25b825b8 25b825b8 25b825b8     .%.%.%.%.%.%.%.%
    7ef0:	25b825b8 25b825b8 25b825b8 25b825b8     .%.%.%.%.%.%.%.%
    7f00:	25982598 25982598 1db81db8 25b81d98     .%.%.%.%.......%
    7f10:	25771d98 24733577 4c52132e 96198e39     ..w%w5s$..RL9...
    7f20:	9e199e19 a619a619 ae19a619 b619ae19     ................
    7f30:	b619b639 52ccc65a 630e0842 c619ce5a     9...Z..RB..cZ...
    7f40:	c639c639 c639c639 ce5ac619 00849473     9.9.9.9...Z.s...
    7f50:	44d501a8 25b83597 1db825b8 1db81db8     ...D.5.%.%......
    7f60:	25b825b8 25b825b8 25b825b8 25b825b8     .%.%.%.%.%.%.%.%
    7f70:	25b825b8 25b825b8 25b825b8 25b825b8     .%.%.%.%.%.%.%.%
    7f80:	1db81db8 25b825b8 25b825b8 25b825b8     .....%.%.%.%.%.%
    7f90:	25b825b8 25b825b8 25b825b8 25b825b8     .%.%.%.%.%.%.%.%
    7fa0:	25b825b8 25b825b8 25b825b8 25b825b8     .%.%.%.%.%.%.%.%
    7fb0:	25b825b8 25b825b8 25b825b8 25b825b8     .%.%.%.%.%.%.%.%
    7fc0:	25b825b8 25b825b8 25b825b8 25b825b8     .%.%.%.%.%.%.%.%
    7fd0:	25b825b8 25b825b8 25b825b8 25b825b8     .%.%.%.%.%.%.%.%
    7fe0:	25b825b8 25b825b8 25b825b8 25b825b8     .%.%.%.%.%.%.%.%
    7ff0:	25b82598 1db81db8 25b82598 25971d97     .%.%.....%.%...%
    8000:	2c113d97 294700c5 ce5ab597 c639c639     .=.,..G)..Z.9.9.
    8010:	c639c639 c639c639 c639c639 c639c639     9.9.9.9.9.9.9.9.
    8020:	c639c639 a5d8c65a 0a2a2a6b 35772c94     9.9.Z...k**..,w5
    8030:	25982577 1db81db8 25b825b8 1d9825b8     w%.%.....%.%.%..
    8040:	25b825b8 25b825b8 25b825b8 25b825b8     .%.%.%.%.%.%.%.%
    8050:	25b825b8 25b825b8 25b825b8 25b825b8     .%.%.%.%.%.%.%.%
    8060:	25b825b8 25b825b8 1db81db8 25b825b8     .%.%.%.%.....%.%
    8070:	25b825b8 25b825b8 25982598 25982598     .%.%.%.%.%.%.%.%
    8080:	257725b8 34323d98 212600c5 ce5ab597     .%w%.=24..&!..Z.
    8090:	c639c639 c639c639 c619c639 31c8bdd8     9.9.9.9.9......1
    80a0:	336f00a4 25973d98 25b82598 25b825b8     ..o3.=.%.%.%.%.%
    80b0:	25b825b8 25b825b8 25b825b8 25b825b8     .%.%.%.%.%.%.%.%
    80c0:	25b825b8 25b825b8 25b825b8 25b825b8     .%.%.%.%.%.%.%.%
    80d0:	25b825b8 25b825b8 25b825b8 25b825b8     .%.%.%.%.%.%.%.%
    80e0:	25b825b8 25b825b8 25b825b8 25b825b8     .%.%.%.%.%.%.%.%
    80f0:	25b825b8 25b825b8 25b825b8 25b825b8     .%.%.%.%.%.%.%.%
    8100:	25b825b8 25b825b8 25b825b8 25b825b8     .%.%.%.%.%.%.%.%
    8110:	25b825b8 25b825b8 1db81db8 155725b8     .%.%.%.%.....%W.
    8120:	25b825b8 25b825b8 25b825b8 25b825b8     .%.%.%.%.%.%.%.%
    8130:	25b825b8 25b825b8 25b825b8 25b825b8     .%.%.%.%.%.%.%.%
    8140:	25b825b8 25b825b8 25b825b8 25b825b8     .%.%.%.%.%.%.%.%
    8150:	25b825b8 25b825b8 25b825b8 25b825b8     .%.%.%.%.%.%.%.%
    8160:	25b825b8 25b825b8 25b825b8 25b825b8     .%.%.%.%.%.%.%.%
    8170:	25b825b8 25b825b8 25b825b8 25b825b8     .%.%.%.%.%.%.%.%
    8180:	259825b8 25982598 1db81db8 25982598     .%.%.%.%.....%.%
    8190:	35982d98 1b6f4db8 4bf00167 cf9ecfbf     .-.5.Mo.g..K....
    81a0:	d7bed79e dfdfdfbe e7dfe7df f7ffefdf     ................
    81b0:	f7fff7ff 6b6effff 83f10801 ffffffff     ......nk........
    81c0:	ffffffff ffffffff ffffffff 0884bd97     ................
    81d0:	44d501a8 25983577 1db825b8 1db81db8     ...Dw5.%.%......
    81e0:	25b825b8 25b825b8 25b825b8 25b825b8     .%.%.%.%.%.%.%.%
    81f0:	25b825b8 25b825b8 25b825b8 25b825b8     .%.%.%.%.%.%.%.%
    8200:	1db81db8 25b825b8 25b825b8 25b825b8     .....%.%.%.%.%.%
    8210:	25b825b8 25b825b8 25b825b8 25b825b8     .%.%.%.%.%.%.%.%
    8220:	25b825b8 25b825b8 25b825b8 25b825b8     .%.%.%.%.%.%.%.%
    8230:	25b825b8 25b825b8 25b825b8 25b825b8     .%.%.%.%.%.%.%.%
    8240:	25b825b8 25b825b8 25b825b8 25b825b8     .%.%.%.%.%.%.%.%
    8250:	25b825b8 25b825b8 25b825b8 25b825b8     .%.%.%.%.%.%.%.%
    8260:	25b825b8 25b825b8 25b825b8 25b825b8     .%.%.%.%.%.%.%.%
    8270:	25b82598 1db825b8 1db81db8 259725b7     .%.%.%.......%.%
    8280:	2c113d97 318700a4 fffff75e ffffffff     .=.,...1^.......
    8290:	ffffffff ffffffff ffffffff ffffffff     ................
    82a0:	ffffffff e71dffff 004208a4 55b83c32     ..........B.2<.U
    82b0:	2d973577 1db82597 25b825b8 25b825b8     w5.-.%...%.%.%.%
    82c0:	25b825b8 25b825b8 25b825b8 25b825b8     .%.%.%.%.%.%.%.%
    82d0:	25b825b8 25b825b8 25b825b8 25b825b8     .%.%.%.%.%.%.%.%
    82e0:	25b825b8 25b825b8 1db81db8 25b825b8     .%.%.%.%.....%.%
    82f0:	25b825b8 25b825b8 25b82598 25982598     .%.%.%.%.%.%.%.%
    8300:	25771d97 34123d98 294600a4 ffffef3d     ..w%.=.4..F)=...
    8310:	ffffffff ffffffff ffffffff 3a09ffdf     ...............:
    8320:	336f0063 25984578 25b82598 25b825b8     c.o3xE.%.%.%.%.%
    8330:	25b825b8 25b825b8 25b825b8 25b825b8     .%.%.%.%.%.%.%.%
    8340:	25b825b8 25b825b8 25b825b8 25b825b8     .%.%.%.%.%.%.%.%
    8350:	25b825b8 25b825b8 25b825b8 25b825b8     .%.%.%.%.%.%.%.%
    8360:	25b825b8 25b825b8 25b825b8 25b825b8     .%.%.%.%.%.%.%.%
    8370:	25b825b8 25b825b8 25b825b8 25b825b8     .%.%.%.%.%.%.%.%
    8380:	25b825b8 25b825b8 25b825b8 25b825b8     .%.%.%.%.%.%.%.%
    8390:	25b825b8 25b825b8 1db81db8 155725b8     .%.%.%.%.....%W.
    83a0:	25b825b8 25b825b8 25b825b8 25b825b8     .%.%.%.%.%.%.%.%
    83b0:	25b825b8 25b825b8 25b825b8 25b825b8     .%.%.%.%.%.%.%.%
    83c0:	25b825b8 25b825b8 25b825b8 25b825b8     .%.%.%.%.%.%.%.%
    83d0:	25b825b8 25b825b8 25b825b8 25b825b8     .%.%.%.%.%.%.%.%
    83e0:	25b825b8 25b825b8 25b825b8 25b825b8     .%.%.%.%.%.%.%.%
    83f0:	25b825b8 25b825b8 25b825b8 25b825b8     .%.%.%.%.%.%.%.%
    8400:	25b825b8 25b825b8 1d981d98 2d772598     .%.%.%.%.....%w-
    8410:	24323537 5473236f 95b76cb3 cf5dcf7e     752$o#sT.l..~.].
    8420:	d77ed77e df7edf7e e79edf9e e79ee79e     ~.~.~.~.........
    8430:	ef9eef9e 6b2dffdf 7bd00801 f79effff     ......-k...{....
    8440:	f7def7be f7def7be fffff7be 0863b577     ............w.c.
    8450:	44d501a8 25b83577 25b825b8 1db81db8     ...Dw5.%.%.%....
    8460:	25b825b8 25b825b8 25b825b8 25b825b8     .%.%.%.%.%.%.%.%
    8470:	25b825b8 25b825b8 25b825b8 25b825b8     .%.%.%.%.%.%.%.%
    8480:	25b825b8 25982598 25b825b8 25b825b8     .%.%.%.%.%.%.%.%
    8490:	25b825b8 25b825b8 1db81db8 25b825b8     .%.%.%.%.....%.%
    84a0:	1db81db8 25b825b8 25b825b8 25b825b8     .....%.%.%.%.%.%
    84b0:	25b825b8 1db81db8 25b825b8 25b825b8     .%.%.....%.%.%.%
    84c0:	25b825b8 1db81db8 25b825b8 25b825b8     .%.%.....%.%.%.%
    84d0:	25b825b8 25982598 25b825b8 25b825b8     .%.%.%.%.%.%.%.%
    84e0:	25b825b8 25b825b8 1db81db8 1db81db8     .%.%.%.%........
    84f0:	25b825b8 25b825b8 1db81db8 257725b8     .%.%.%.%.....%w%
    8500:	2bf13597 316700a4 ffffe71d f7def7be     .5.+..g1........
    8510:	f7def7be f7bef7be f7bef7be f7bef7be     ................
    8520:	f7bef7be ef5dffdf 849394b3 1acc436e     ......].....nC..
    8530:	35772432 25b82577 25b825b8 25b825b8     2$w5w%.%.%.%.%.%
    8540:	1db81d98 25b825b8 25b825b8 25b825b8     .....%.%.%.%.%.%
    8550:	25b825b8 25b825b8 25b825b8 25b825b8     .%.%.%.%.%.%.%.%
    8560:	25b825b8 25982598 25b825b8 25b825b8     .%.%.%.%.%.%.%.%
    8570:	1db81db8 25b825b8 25b81db8 25b825b8     .....%.%...%.%.%
    8580:	25771db7 34123d98 292600c5 ffdfe6dc     ..w%.=.4..&)....
    8590:	f7bef7be f7bef7be ffdff7be 3a09f77e     ............~..:
    85a0:	2b6f0063 25974598 25b82598 25b825b8     c.o+.E.%.%.%.%.%
    85b0:	25b825b8 25b825b8 25b825b8 25b825b8     .%.%.%.%.%.%.%.%
    85c0:	25b825b8 25b825b8 25b825b8 25b825b8     .%.%.%.%.%.%.%.%
    85d0:	25b825b8 25b825b8 25b825b8 25b825b8     .%.%.%.%.%.%.%.%
    85e0:	25b825b8 25b825b8 25b825b8 25b825b8     .%.%.%.%.%.%.%.%
    85f0:	25b825b8 25b825b8 25b825b8 25b825b8     .%.%.%.%.%.%.%.%
    8600:	25b825b8 25b825b8 25b825b8 25b825b8     .%.%.%.%.%.%.%.%
    8610:	25b825b8 25b825b8 1db81db8 155725b8     .%.%.%.%.....%W.
    8620:	25b825b8 25b825b8 25b825b8 25b825b8     .%.%.%.%.%.%.%.%
    8630:	25b825b8 25b825b8 25b825b8 25b825b8     .%.%.%.%.%.%.%.%
    8640:	25b825b8 25b825b8 25b825b8 25b825b8     .%.%.%.%.%.%.%.%
    8650:	25b825b8 25b825b8 25b825b8 25b825b8     .%.%.%.%.%.%.%.%
    8660:	25b825b8 25b825b8 25b825b8 25b825b8     .%.%.%.%.%.%.%.%
    8670:	25b825b8 25b825b8 25b825b8 25b825b8     .%.%.%.%.%.%.%.%
    8680:	25b825b8 25b825b8 259825b8 3d782d98     .%.%.%.%.%.%.-x=
    8690:	026b4516 7d3600e5 d79ee7ff d79ed77d     .Ek...6}....}...
    86a0:	df9edf9e e79ee79e efbee79e efbfefbe     ................
    86b0:	f7beefde 6b2dffff 7bd00801 f7beffff     ......-k...{....
    86c0:	f7def7de ffdff7ff fffff7de 0884bd77     ............w...
    86d0:	44d501a8 25b83577 1db825b8 1db81db8     ...Dw5.%.%......
    86e0:	25b825b8 25b825b8 25b825b8 25b825b8     .%.%.%.%.%.%.%.%
    86f0:	25b825b8 25b825b8 25b825b8 25b825b8     .%.%.%.%.%.%.%.%
    8700:	25b825b8 25b825b8 25b825b8 25b825b8     .%.%.%.%.%.%.%.%
    8710:	25b825b8 25b825b8 1db81db8 1db81db8     .%.%.%.%........
    8720:	1db81db8 25b825b8 25b825b8 25b825b8     .....%.%.%.%.%.%
    8730:	25b825b8 1db81db8 25b825b8 25b825b8     .%.%.....%.%.%.%
    8740:	1db825b8 1db81db8 259825b8 25b825b8     .%.......%.%.%.%
    8750:	25b825b8 25982598 25b825b8 25b825b8     .%.%.%.%.%.%.%.%
    8760:	259825b8 25b82598 1db825b8 25b825b8     .%.%.%.%.%...%.%
    8770:	25b825b8 25b82598 25981db8 25772598     .%.%.%.%...%.%w%
    8780:	2bf13d97 316700a4 ffffe71d f7ffffdf     .=.+..g1........
    8790:	f7fff7ff ffdfffdf f7dfffdf ffdfffdf     ................
    87a0:	ffdfffdf ffdfffdf ffffffff 00423a4a     ............J:B.
    87b0:	55b81b0e 25773577 25982598 25b825b8     ...Uw5w%.%.%.%.%
    87c0:	25b825b8 25b825b8 25982598 25b82598     .%.%.%.%.%.%.%.%
    87d0:	1db81db8 25b825b8 25b825b8 25b825b8     .....%.%.%.%.%.%
    87e0:	25b825b8 25b82598 25b825b8 25b825b8     .%.%.%.%.%.%.%.%
    87f0:	1db81db8 25b825b8 1db81db8 25b825b8     .....%.%.....%.%
    8800:	25971db7 34123d98 214600c5 ffdfe6fc     ...%.=.4..F!....
    8810:	ffdfffdf ffdff7de ffffffdf 3a09f77e     ............~..:
    8820:	2b6f0064 25973d97 25b82598 25b825b8     d.o+.=.%.%.%.%.%
    8830:	25b825b8 25b825b8 25b825b8 25b825b8     .%.%.%.%.%.%.%.%
    8840:	25b825b8 25b825b8 25b825b8 25b825b8     .%.%.%.%.%.%.%.%
    8850:	25b825b8 25b825b8 25b825b8 25b825b8     .%.%.%.%.%.%.%.%
    8860:	25b825b8 25b825b8 25b825b8 25b825b8     .%.%.%.%.%.%.%.%
    8870:	25b825b8 25b825b8 25b825b8 25b825b8     .%.%.%.%.%.%.%.%
    8880:	25b825b8 25b825b8 25b825b8 25b825b8     .%.%.%.%.%.%.%.%
    8890:	25b825b8 25b825b8 1db81db8 155725b8     .%.%.%.%.....%W.
    88a0:	25b825b8 25b825b8 25b825b8 25b825b8     .%.%.%.%.%.%.%.%
    88b0:	25b825b8 25b825b8 25b825b8 25b825b8     .%.%.%.%.%.%.%.%
    88c0:	25b825b8 25b825b8 25b825b8 25b825b8     .%.%.%.%.%.%.%.%
    88d0:	25b825b8 25b825b8 25b825b8 25b825b8     .%.%.%.%.%.%.%.%
    88e0:	25b825b8 25b825b8 25b825b8 25b825b8     .%.%.%.%.%.%.%.%
    88f0:	25b825b8 25b825b8 25b825b8 25b825b8     .%.%.%.%.%.%.%.%
    8900:	1db81db8 25b825b8 2d982597 34943537     .....%.%.%.-75.4
    8910:	438f4432 9db732cc d77ddfdf e79edf9e     2D.C.2....}.....
    8920:	e7bee79e efbeef9e efbeef9e f7bff7bf     ................
    8930:	f7dfefbe 732dffff 83af0801 f7deffff     ......-s........
    8940:	ffdfffdf ffdfffdf fffff7de 0883bd76     ............v...
    8950:	44d501a8 25983577 1db81db8 1db81db8     ...Dw5.%........
    8960:	25b81db8 25b825b8 25b825b8 1db81db8     ...%.%.%.%.%....
    8970:	1db81db8 25b825b8 25b825b8 25b825b8     .....%.%.%.%.%.%
    8980:	25b82598 1db825b8 1db81db8 1db81db8     .%.%.%..........
    8990:	1db81db8 1db81db8 1db81db8 1db81db8     ................
    89a0:	1db81db8 1db81db8 25b825b8 25b825b8     .........%.%.%.%
    89b0:	1db71db8 1db81db8 1db81db8 25b825b8     .............%.%
    89c0:	1db81db8 25b81db8 25982598 25b82598     .......%.%.%.%.%
    89d0:	1db71db8 25b825b8 25b81d97 25982598     .....%.%...%.%.%
    89e0:	25982598 25972597 1d982598 25972597     .%.%.%.%.%...%.%
    89f0:	25972597 25981d98 25982598 2d772578     .%.%...%.%.%x%w-
    8a00:	2bf13d97 316700a4 ffffe71d ffdeffdf     .=.+..g1........
    8a10:	ffdeffde ffdfffdf ffdfffdf ffdeffde     ................
    8a20:	ffdfffdf f7beffdf f7bff7be 3a8b73f0     .............s.:
    8a30:	4432438f 35772c73 25972577 25972597     .C2Ds,w5w%.%.%.%
    8a40:	1d982598 25981d98 25982598 25b82598     .%.....%.%.%.%.%
    8a50:	1db81db8 25b825b8 1db825b8 1db81db8     .....%.%.%......
    8a60:	1db81db8 1db81db8 25b825b8 25b825b8     .........%.%.%.%
    8a70:	1db81db8 25b825b8 1db81db8 1db81db8     .....%.%........
    8a80:	25771d97 34123d97 214600c5 ffdfe6fc     ..w%.=.4..F!....
    8a90:	ffdeffdf ffdfffdf ffffffdf 3a09f77e     ............~..:
    8aa0:	336f0063 25974597 25b82598 25b825b8     c.o3.E.%.%.%.%.%
    8ab0:	25b825b8 25982598 25b825b8 25b825b8     .%.%.%.%.%.%.%.%
    8ac0:	25b825b8 25b825b8 25b825b8 25b825b8     .%.%.%.%.%.%.%.%
    8ad0:	25b825b8 25b825b8 25b825b8 25b825b8     .%.%.%.%.%.%.%.%
    8ae0:	25b825b8 25b825b8 25b825b8 25b825b8     .%.%.%.%.%.%.%.%
    8af0:	25b825b8 25b825b8 25b825b8 25b825b8     .%.%.%.%.%.%.%.%
    8b00:	25b825b8 25b825b8 25b825b8 25b825b8     .%.%.%.%.%.%.%.%
    8b10:	25b825b8 25b825b8 1db81db8 155725b8     .%.%.%.%.....%W.
    8b20:	25b825b8 25b825b8 25b825b8 25b825b8     .%.%.%.%.%.%.%.%
    8b30:	25b825b8 25b825b8 25b825b8 25b825b8     .%.%.%.%.%.%.%.%
    8b40:	25b825b8 25b825b8 25b825b8 25b825b8     .%.%.%.%.%.%.%.%
    8b50:	25b825b8 25b825b8 25b825b8 25b825b8     .%.%.%.%.%.%.%.%
    8b60:	25b825b8 25b825b8 25b825b8 25b825b8     .%.%.%.%.%.%.%.%
    8b70:	25b825b8 25b825b8 25b825b8 25b825b8     .%.%.%.%.%.%.%.%
    8b80:	1db81d98 25b825b8 35982597 020a2c94     .....%.%.%.5.,..
    8b90:	b6bb122a df7ee7bf e79edf9e ef9ee79e     *.....~.........
    8ba0:	efbeefbe efbeefbe f7dff7be f7dff7df     ................
    8bb0:	f7dff7de 6b2dffff 83af0801 f7beffff     ......-k........
    8bc0:	ffdfffff ffdfffdf fffff7be 0883bd97     ................
    8bd0:	44d501a8 25983577 1db81db8 1db81db7     ...Dw5.%........
    8be0:	25982598 25b825b8 25b825b8 1db825b8     .%.%.%.%.%.%.%..
    8bf0:	1d981d98 25b825b8 25b825b8 1d981d98     .....%.%.%.%....
    8c00:	1d982598 1db81d98 1db81db8 1db81db8     .%..............
    8c10:	1db81db8 25b81d98 1db71db8 1db81db8     .......%........
    8c20:	1db81db8 1db81db8 25b825b8 25b825b8     .........%.%.%.%
    8c30:	1d971d97 25b825b8 1db81db8 25b825b8     .....%.%.....%.%
    8c40:	1db81db8 25981db8 25972597 25b82598     .......%.%.%.%.%
    8c50:	25b71db7 2d982597 35972d97 35973577     ...%.%.-.-.5w5.5
    8c60:	35773577 35773577 35773577 35773577     w5w5w5w5w5w5w5w5
    8c70:	35773577 35773577 35773577 3d573d77     w5w5w5w5w5w5w=W=
    8c80:	3bf14557 31670084 ffffe71d ffdfffdf     WE.;..g1........
    8c90:	ffdfffdf ffdfffdf ffdfffdf ffdfffde     ................
    8ca0:	ffdfffdf ffdfffdf f7dff7be f7fff7bf     ................
    8cb0:	00847432 4d570a6b 35773d57 35773597     2t..k.WMW=w5.5w5
    8cc0:	35773577 35973577 2d773597 25982598     w5w5w5.5.5w-.%.%
    8cd0:	1db81db8 259825b8 1db825b8 1db81db8     .....%.%.%......
    8ce0:	1db81db8 1d981db8 1d971d97 1d981d98     ................
    8cf0:	25b82598 25b825b8 1db81db8 25b82598     .%.%.%.%.....%.%
    8d00:	259725b8 34123d97 294600a4 ffffe6fd     .%.%.=.4..F)....
    8d10:	ffdfffdf ffdfffdf ffffffdf 3a09f79e     ...............:
    8d20:	336f0063 25974597 25982598 25b825b8     c.o3.E.%.%.%.%.%
    8d30:	25b825b8 25982598 25b825b8 25b825b8     .%.%.%.%.%.%.%.%
    8d40:	25b825b8 25b825b8 25b825b8 25b825b8     .%.%.%.%.%.%.%.%
    8d50:	25b825b8 25b825b8 25b825b8 25b825b8     .%.%.%.%.%.%.%.%
    8d60:	25b825b8 25b825b8 25b825b8 25b825b8     .%.%.%.%.%.%.%.%
    8d70:	25b825b8 25b825b8 25b825b8 25b825b8     .%.%.%.%.%.%.%.%
    8d80:	25b825b8 25b825b8 25b825b8 25b825b8     .%.%.%.%.%.%.%.%
    8d90:	25b825b8 25b825b8 1db81db8 155725b8     .%.%.%.%.....%W.
    8da0:	25b825b8 25b825b8 25b825b8 25b825b8     .%.%.%.%.%.%.%.%
    8db0:	25b825b8 25b825b8 25b825b8 25b825b8     .%.%.%.%.%.%.%.%
    8dc0:	25b825b8 25b825b8 25b825b8 25b825b8     .%.%.%.%.%.%.%.%
    8dd0:	25b825b8 25b825b8 25b825b8 25b825b8     .%.%.%.%.%.%.%.%
    8de0:	25b825b8 25b825b8 25b825b8 25b825b8     .%.%.%.%.%.%.%.%
    8df0:	25b825b8 25b825b8 25b825b8 25b825b8     .%.%.%.%.%.%.%.%
    8e00:	25b825b8 25982598 35972597 01c93474     .%.%.%.%.%.5t4..
    8e10:	c6bb19e9 e79ee7df e7bee7be efbeefbe     ................
    8e20:	efdeefbe f7deefde f7bef7de f7def7be     ................
    8e30:	f7dff7de 6b2dffff 83d00801 f7beffff     ......-k........
    8e40:	ffdfffff ffdfffdf fffff7be 0883bd97     ................
    8e50:	44d401a8 25b83597 25b825b8 25b81d97     ...D.5.%.%.%...%
    8e60:	25982598 25982598 25982598 25982598     .%.%.%.%.%.%.%.%
    8e70:	25b825b8 25982598 25982598 25982598     .%.%.%.%.%.%.%.%
    8e80:	25982598 25b825b8 25b825b8 25b825b8     .%.%.%.%.%.%.%.%
    8e90:	25b825b8 1d981d98 1d981d98 25982598     .%.%.........%.%
    8ea0:	25b825b8 25b81db8 25982598 25982598     .%.%...%.%.%.%.%
    8eb0:	25982598 25982598 25b825b8 25b82598     .%.%.%.%.%.%.%.%
    8ec0:	25b825b8 25972598 25972597 25b72597     .%.%.%.%.%.%.%.%
    8ed0:	259725b7 35152d77 44d43cd5 44b444d5     .%.%w-.5.<.D.D.D
    8ee0:	44b444b5 44b544b5 44b544b5 44b444b4     .D.D.D.D.D.D.D.D
    8ef0:	44b444b4 44b444b4 44b444b4 4c9444b5     .D.D.D.D.D.D.D.L
    8f00:	436f54b4 31670863 ffffef1d ffdfffdf     .ToCc.g1........
    8f10:	ffdfffdf ffdfffdf f7dfffdf ffdff7df     ................
    8f20:	ffdfffdf f7dfffdf f7dfffdf fffff7be     ................
    8f30:	00228432 5c9419ea 44b44cb4 44b444d5     2."....\.L.D.D.D
    8f40:	3cb444b4 3cd53cb4 34f544f5 2d972d57     .D.<.<.<.D.4W-.-
    8f50:	25b82598 25982598 25b825b8 25b825b8     .%.%.%.%.%.%.%.%
    8f60:	25b825b8 25b825b8 25b825b8 25b825b8     .%.%.%.%.%.%.%.%
    8f70:	1d981d98 25981d98 25982598 25982598     .......%.%.%.%.%
    8f80:	25772598 34123d77 294600a4 ffffe6fc     .%w%w=.4..F)....
    8f90:	ffdfffdf ffdfffdf fffff7df 3a09f77e     ............~..:
    8fa0:	336f0063 25974597 25b82598 25b825b8     c.o3.E.%.%.%.%.%
    8fb0:	25b825b8 25b825b8 25b825b8 25b825b8     .%.%.%.%.%.%.%.%
    8fc0:	25b825b8 25b825b8 25b825b8 25b825b8     .%.%.%.%.%.%.%.%
    8fd0:	25b825b8 25b825b8 25b825b8 25b825b8     .%.%.%.%.%.%.%.%
    8fe0:	25b825b8 25b825b8 25b825b8 25b825b8     .%.%.%.%.%.%.%.%
    8ff0:	25b825b8 25b825b8 25b825b8 25b825b8     .%.%.%.%.%.%.%.%
    9000:	25b825b8 25b825b8 25b825b8 25b825b8     .%.%.%.%.%.%.%.%
    9010:	25b825b8 25b825b8 1db81db8 155725b8     .%.%.%.%.....%W.
    9020:	25b825b8 25b825b8 25b825b8 25b825b8     .%.%.%.%.%.%.%.%
    9030:	25b825b8 25b825b8 25b825b8 25b825b8     .%.%.%.%.%.%.%.%
    9040:	25b825b8 25b825b8 25b825b8 25b825b8     .%.%.%.%.%.%.%.%
    9050:	25b825b8 25b825b8 25b825b8 25b825b8     .%.%.%.%.%.%.%.%
    9060:	25b825b8 25b825b8 25b825b8 25b825b8     .%.%.%.%.%.%.%.%
    9070:	25b825b8 25b825b8 25b825b8 25b825b8     .%.%.%.%.%.%.%.%
    9080:	25b825b8 25982598 35982597 01673c73     .%.%.%.%.%.5s<g.
    9090:	ce9b19a8 e7beefdf efbfefbe f7dfefdf     ................
    90a0:	f7def7de f7def7de f7deffdf f7dff7df     ................
    90b0:	ffdff7df 732dffdf 83af0801 f7beffff     ......-s........
    90c0:	ffdfffff ffdfffdf fffff7be 0883bd97     ................
    90d0:	44d401a8 25b83597 25972598 2d772d77     ...D.5.%.%.%w-w-
    90e0:	2d782d58 2d772d77 2d772d77 2d772d77     X-x-w-w-w-w-w-w-
    90f0:	2d772d77 2d772d77 2d772d77 2d772d77     w-w-w-w-w-w-w-w-
    9100:	2d772d78 2d772d77 2d772d77 2d772d77     x-w-w-w-w-w-w-w-
    9110:	2d772d77 2d772d77 25972d77 25982598     w-w-w-w-w-.%.%.%
    9120:	25b825b8 259825b8 2d772d77 2d772d77     .%.%.%.%w-w-w-w-
    9130:	2d772d77 2d772d77 2d772d77 2d772d77     w-w-w-w-w-w-w-w-
    9140:	2d772d77 2d772d77 25972597 25972597     w-w-w-w-.%.%.%.%
    9150:	2d9725b7 024b34f5 01a801a8 01880188     .%.-.4K.........
    9160:	01880188 01880188 01a80188 01880188     ................
    9170:	09880988 01880188 01880188 09880988     ................
    9180:	11460987 39671083 ffffef1d ffdfffdf     ..F...g9........
    9190:	ffdfffdf ffdfffdf ffdfffdf ffdfffdf     ................
    91a0:	ffdfffdf ffdfffdf f7beffdf fffff7be     ................
    91b0:	08028c11 11471906 01a80988 018801a8     ......G.........
    91c0:	01a80188 01a80188 01c90188 35b824b4     .............$.5
    91d0:	25982597 2d772d98 2d772d77 2d772d77     .%.%.-w-w-w-w-w-
    91e0:	2d772d77 2d772d77 2d772d77 2d772d77     w-w-w-w-w-w-w-w-
    91f0:	2d772d77 25982598 25982598 2d772598     w-w-.%.%.%.%.%w-
    9200:	35572d77 3bf14557 294600a4 ffffe6fc     w-W5WE.;..F)....
    9210:	f7ffffdf ffdfffdf fffff7df 3a09f77e     ............~..:
    9220:	2b6f0063 25974597 25b82598 25b825b8     c.o+.E.%.%.%.%.%
    9230:	25b825b8 25b825b8 25b825b8 25b825b8     .%.%.%.%.%.%.%.%
    9240:	25b825b8 25b825b8 25b825b8 25b825b8     .%.%.%.%.%.%.%.%
    9250:	25b825b8 25b825b8 25b825b8 25b825b8     .%.%.%.%.%.%.%.%
    9260:	25b825b8 25b825b8 25b825b8 25b825b8     .%.%.%.%.%.%.%.%
    9270:	25b825b8 25b825b8 25b825b8 25b825b8     .%.%.%.%.%.%.%.%
    9280:	25b825b8 25b825b8 25b825b8 25b825b8     .%.%.%.%.%.%.%.%
    9290:	25b825b8 25b825b8 1db81db8 155725b8     .%.%.%.%.....%W.
    92a0:	25b825b8 25b825b8 25b825b8 25b825b8     .%.%.%.%.%.%.%.%
    92b0:	25b825b8 25b825b8 25b825b8 25b825b8     .%.%.%.%.%.%.%.%
    92c0:	25b825b8 25b825b8 25b825b8 25b825b8     .%.%.%.%.%.%.%.%
    92d0:	25b825b8 25b825b8 25b825b8 25b825b8     .%.%.%.%.%.%.%.%
    92e0:	25b825b8 25b825b8 25b825b8 25b825b8     .%.%.%.%.%.%.%.%
    92f0:	25b825b8 25b825b8 25b825b8 25b825b8     .%.%.%.%.%.%.%.%
    9300:	25b825b8 1db81db8 35972598 01473452     .%.%.....%.5R4G.
    9310:	ce9b1967 efbef7ff f7dff7df f7dff7df     g...............
    9320:	f7dff7de ffffffff ffffffff ffffffff     ................
    9330:	ffffffff 734effdf 83d00801 f7beffff     ......Ns........
    9340:	ffdfffdf ffdfffdf fffff7be 0883bd77     ............w...
    9350:	44d501a8 25983598 35772597 45364577     ...D.5.%.%w5wE6E
    9360:	45574557 45574557 4d574d57 4d574d57     WEWEWEWEWMWMWMWM
    9370:	4d574536 4d574d57 4d574d57 45374d57     6EWMWMWMWMWMWM7E
    9380:	4d574d57 4d574536 4d574536 4d574d57     WMWM6EWM6EWMWMWM
    9390:	4d574d57 4d574d57 35774577 25b82597     WMWMWMWMwEw5.%.%
    93a0:	25b81d98 2d9725b8 45573d77 45564577     ...%.%.-w=WEwEVE
    93b0:	4d574d57 4d574d57 4d574d57 4d574d57     WMWMWMWMWMWMWMWM
    93c0:	45574d57 3d574557 25972d97 25b72597     WMWEWEW=.-.%.%.%
    93d0:	35772597 01673cb5 006300c5 00630043     .%w5.<g...c.C.c.
    93e0:	00630063 00420042 00430043 10a40863     c.c.B.B.C.C.c...
    93f0:	00630883 00420043 00420063 00430043     ..c.C.B.c.B.C.C.
    9400:	08630043 39671063 ffffe71d ffdff7df     C.c.c.g9........
    9410:	ffdfffde ffdfffdf ffffffdf ffffffff     ................
    9420:	f7dff7df ffdfffdf ffdfffdf fffff7be     ................
    9430:	10228bf0 00221884 00430022 00430043     .."...".".C.C.C.
    9440:	00430043 00630043 00e600c5 35983494     C.C.C.c......4.5
    9450:	25972597 3d773577 4d564557 4d574d57     .%.%w5w=WEVMWMWM
    9460:	45364d57 4d574557 45574d57 45564577     WM6EWEWMWMWEwEVE
    9470:	45774d57 2d783577 25982598 3d782d57     WMwEw5x-.%.%W-x=
    9480:	4d574577 4bf15d57 29260084 ffffe6fc     wEWMW].K..&)....
    9490:	f7fff7df ffdff7df fffff7df 3a09f77e     ............~..:
    94a0:	2b6f0063 25974597 25b82598 25b825b8     c.o+.E.%.%.%.%.%
    94b0:	25b825b8 25b825b8 25b825b8 25b825b8     .%.%.%.%.%.%.%.%
    94c0:	25b825b8 25b825b8 25b825b8 25b825b8     .%.%.%.%.%.%.%.%
    94d0:	25b825b8 25b825b8 25b825b8 25b825b8     .%.%.%.%.%.%.%.%
    94e0:	25b825b8 25b825b8 25b825b8 25b825b8     .%.%.%.%.%.%.%.%
    94f0:	25b825b8 25b825b8 25b825b8 25b825b8     .%.%.%.%.%.%.%.%
    9500:	25b825b8 25b825b8 25b825b8 25b825b8     .%.%.%.%.%.%.%.%
    9510:	25b825b8 25b825b8 1db81db8 155725b8     .%.%.%.%.....%W.
    9520:	25b825b8 25b825b8 25b825b8 25b825b8     .%.%.%.%.%.%.%.%
    9530:	25b825b8 25b825b8 25b825b8 25b825b8     .%.%.%.%.%.%.%.%
    9540:	25b825b8 25b825b8 25b825b8 25b825b8     .%.%.%.%.%.%.%.%
    9550:	25b825b8 25b825b8 25b825b8 25b825b8     .%.%.%.%.%.%.%.%
    9560:	25b825b8 25b825b8 25b825b8 25b825b8     .%.%.%.%.%.%.%.%
    9570:	25b825b8 25b825b8 25b825b8 25b825b8     .%.%.%.%.%.%.%.%
    9580:	1db825b8 1db81db8 35971d97 01263c53     .%.........5S<&.
    9590:	d6bb1967 efbeffff f7dff7bf f7dff7df     g...............
    95a0:	ffdfffdf 52aa83f0 5acb5acb 5acb5aab     .......R.Z.Z.Z.Z
    95b0:	62cc5acb 396762ac 7baf1022 f7beffff     .Z.b.bg9"..{....
    95c0:	ffdfffdf ffdfffdf fffff7be 0883bd97     ................
    95d0:	4cf501a8 25773577 1c113597 0a6b026b     ...Lw5w%.5..k.k.
    95e0:	0a4b126b 126b124b 124b126b 124b124b     k.K.K.k.k.K.K.K.
    95f0:	126b124b 124b126b 124a124b 0a2a0a2a     K.k.k.K.K.J.*.*.
    9600:	126b124b 124b124b 124b124b 124b124b     K.k.K.K.K.K.K.K.
    9610:	124a126b 128b124a 2c52028b 25773597     k.J.J.....R,.5w%
    9620:	2d982577 35572d97 024b0b2e 0a6a0a4a     w%.-.-W5..K.J.j.
    9630:	126b0a4a 124b126b 124b124b 124b124b     J.k.k.K.K.K.K.K.
    9640:	126b124b 02ac0a6b 35972cb4 25772d77     K.k.k....,.5w-w%
    9650:	3d772577 01674494 945308a5 b556b577     w%w=.Dg...S.w.V.
    9660:	ad76b576 b576b576 b577ad56 08225a8c     v.v.v.v.V.w..Z".
    9670:	bd975a6b b556b556 b576b576 b556b576     kZ..V.V.v.v.v.V.
    9680:	8c31b577 39461842 ffffef1d ffdff7df     w.1.B.F9........
    9690:	ffdfffdf ffdfffdf 738ef7be bdf7526a     ...........sjR..
    96a0:	f7beffff fffff7de ffdfffdf fffff7de     ................
    96b0:	08018c11 bd5749e9 b576b556 b576b556     .....IW.V.v.V.v.
    96c0:	b556b576 9cb4bd76 00e618c5 3d973c73     v.V.v.......s<.=
    96d0:	35772d77 028b2c73 124a0a6b 124b126b     w-w5s,..k.J.k.K.
    96e0:	124b124b 124b126b 126b124b 0a6b126b     K.K.k.K.K.k.k.k.
    96f0:	024b0a4b 357713b0 2d772577 0b2e3d57     K.K...w5w%w-W=..
    9700:	0a4b026b 19c91a4b 314610a4 ffffe6fc     k.K.K.....F1....
    9710:	f7dff7df ffdfffdf fffff7df 3a09f77e     ............~..:
    9720:	2b6f0063 25974597 25b82598 25b825b8     c.o+.E.%.%.%.%.%
    9730:	25b825b8 25b825b8 25b825b8 25b825b8     .%.%.%.%.%.%.%.%
    9740:	25b825b8 25b825b8 25b825b8 25b825b8     .%.%.%.%.%.%.%.%
    9750:	25b825b8 25b825b8 25b825b8 25b825b8     .%.%.%.%.%.%.%.%
    9760:	25b825b8 25b825b8 25b825b8 25b825b8     .%.%.%.%.%.%.%.%
    9770:	25b825b8 25b825b8 25b825b8 25b825b8     .%.%.%.%.%.%.%.%
    9780:	25b825b8 25b825b8 25b825b8 25b825b8     .%.%.%.%.%.%.%.%
    9790:	25b825b8 25b825b8 1db81db8 155725b8     .%.%.%.%.....%W.
    97a0:	25b825b8 25b825b8 25b825b8 25b825b8     .%.%.%.%.%.%.%.%
    97b0:	25b825b8 25b825b8 25b825b8 25b825b8     .%.%.%.%.%.%.%.%
    97c0:	25b825b8 25b825b8 25b825b8 25b825b8     .%.%.%.%.%.%.%.%
    97d0:	25b825b8 25b825b8 25b825b8 25b825b8     .%.%.%.%.%.%.%.%
    97e0:	25b825b8 25b825b8 25b825b8 25b825b8     .%.%.%.%.%.%.%.%
    97f0:	25b825b8 25b825b8 25b825b8 25b825b8     .%.%.%.%.%.%.%.%
    9800:	1db81db8 25b81db8 3d982597 01263c53     .......%.%.=S<&.
    9810:	d6bb1946 f7beffff ffdff7bf f7dfffdf     F...............
    9820:	ffdfffdf 00003186 00000000 00000000     .....1..........
    9830:	00000000 18430000 7bb01042 f7beffff     ......C.B..{....
    9840:	ffdfffdf ffdfffdf fffff7be 0883bd97     ................
    9850:	4cd401a8 3d773d57 230d5dd8 00430042     ...LW=w=.].#B.C.
    9860:	00220042 00220022 00220022 00220022     B.".".".".".".".
    9870:	00220022 00220022 00430022 00430884     ".".".".".C...C.
    9880:	00220022 00220022 00220022 00220022     ".".".".".".".".
    9890:	00220022 00420022 338f0062 3d7755d8     ".".".B.b..3.Uw=
    98a0:	3d773d97 3d363597 008501ea 00420063     .=w=.56=....c.B.
    98b0:	00220042 00220022 00220022 00220022     B.".".".".".".".
    98c0:	00220022 00840022 55b83c52 3db73d77     "."."...R<.Uw=.=
    98d0:	3d773597 016744b4 ce3a0884 ffffffff     .5w=.Dg...:.....
    98e0:	ffffffff ffffffff ffffffff 00007b8f     .............{..
    98f0:	ffff736e ffffffff ffffffff ffffffff     ns..............
    9900:	c5f8ffff 39661042 ffffef1d ffdfffdf     ....B.f9........
    9910:	ffdfffdf ffdfffdf 3966f79e a5340000     ..........f9..4.
    9920:	f7beffff ffdeffde ffdfffdf fffff7df     ................
    9930:	08008c31 ffdf5a8b ffffffff ffffffff     1....Z..........
    9940:	ffffffff dedcffff 00c518c4 3d773c73     ............s<w=
    9950:	4db83577 006333d0 00220042 00220022     w5.M.3c.B.".".".
    9960:	00220022 00220022 00420042 00220042     ".".".".B.B.B.".
    9970:	00a40084 45770aac 45973577 01675d77     ......wEw5.Ew]g.
    9980:	00430042 00220022 18c40001 ffdfdedc     B.C.".".........
    9990:	f7dff7df ffdfffdf fffff7df 3a09f77e     ............~..:
    99a0:	2b6f0063 25974597 25b82598 25b825b8     c.o+.E.%.%.%.%.%
    99b0:	25b825b8 25b825b8 25b825b8 25b825b8     .%.%.%.%.%.%.%.%
    99c0:	25b825b8 25b825b8 25b825b8 25b825b8     .%.%.%.%.%.%.%.%
    99d0:	25b825b8 25b825b8 25b825b8 25b825b8     .%.%.%.%.%.%.%.%
    99e0:	25b825b8 25b825b8 25b825b8 25b825b8     .%.%.%.%.%.%.%.%
    99f0:	25b825b8 25b825b8 25b825b8 25b825b8     .%.%.%.%.%.%.%.%
    9a00:	25b825b8 25b825b8 25b825b8 25b825b8     .%.%.%.%.%.%.%.%
    9a10:	25b825b8 25b825b8 1db81db8 155725b8     .%.%.%.%.....%W.
    9a20:	25b825b8 25b825b8 25b825b8 25b825b8     .%.%.%.%.%.%.%.%
    9a30:	25b825b8 25b825b8 25b825b8 25b825b8     .%.%.%.%.%.%.%.%
    9a40:	25b825b8 25b825b8 25b825b8 25b825b8     .%.%.%.%.%.%.%.%
    9a50:	25b825b8 25b825b8 25b825b8 25b825b8     .%.%.%.%.%.%.%.%
    9a60:	25b825b8 25b825b8 25b825b8 25b825b8     .%.%.%.%.%.%.%.%
    9a70:	25b825b8 25b825b8 25b825b8 25b825b8     .%.%.%.%.%.%.%.%
    9a80:	1db81db8 25b81db8 3d782597 01063c33     .......%.%x=3<..
    9a90:	debb2146 f7beffff ffdfffdf ffdfffdf     F!..............
    9aa0:	ffdfffdf 738e9cb3 7baf7bcf 7baf7baf     .......s.{.{.{.{
    9ab0:	7baf7baf 41a883d0 7bb01022 f7beffff     .{.{...A"..{....
    9ac0:	ffdfffdf ffdfffdf fffff7be 0863bd97     ..............c.
    9ad0:	4cb409a8 2c324d57 53b02b6e 7bd06bf0     ...LWM2,n+.S.k.{
    9ae0:	7b8f7b8f 73af73af 73af73af 7b8f7b8f     .{.{.s.s.s.s.{.{
    9af0:	7b8f7b8f 7b8f7b8f 4a0983d0 39871043     .{.{.{.{...JC..9
    9b00:	7b8f7bb0 7b8f7b8f 738f7baf 7baf7b8f     .{.{.{.{.{.s.{.{
    9b10:	7b8f7baf 73af7baf 4b8f6bd0 2bb0338f     .{.{.{.s.k.K.3.+
    9b20:	23d123b0 4cf63d36 006419ea 7baf4a4a     .#.#6=.L..d.JJ.{
    9b30:	7baf7baf 73af73af 73af73af 7b8f7b8f     .{.{.s.s.s.s.{.{
    9b40:	73af7b8f 6bd07bd0 338f436f 23b02bb0     .{.s.{.koC.3.+.#
    9b50:	45362453 01474c94 bdb708a4 f7beffdf     S$6E.LG.........
    9b60:	ffdfffdf f7bef7be ffdff7be 0000736e     ............ns..
    9b70:	ffdf6b4d f7dff7be f7dff7bf f7bef7de     Mk..............
    9b80:	bd97ffdf 31461042 ffffef1d ffffffdf     ....B.F1........
    9b90:	ffdfffdf ffdfffdf 49e8ff9e ad551062     ...........Ib.U.
    9ba0:	f7beffff ffdfffde ffdfffdf ffffffdf     ................
    9bb0:	00008c31 ffbf5a8b f7beffbf ffdff7be     1....Z..........
    9bc0:	f7bef7be ce7affff 00c518c5 45773c53     ......z.....S<wE
    9bd0:	238f2c73 6bd0438f 7baf73b0 7b8f7baf     s,.#.C.k.s.{.{.{
    9be0:	7baf7baf 7b8f7baf 7b8f7baf 7bb07b8f     .{.{.{.{.{.{.{.{
    9bf0:	008439a8 55361acd 23d03cd4 5bd03b6f     .9....6U.<.#o;.[
    9c00:	7b8f73d0 7bb07b90 83f0736e ffdfef5d     .s.{.{.{ns..]...
    9c10:	f7dff7df ffdfffdf fffff7df 3a09f77e     ............~..:
    9c20:	2b6f0083 25974597 25b82598 25b825b8     ..o+.E.%.%.%.%.%
    9c30:	25b825b8 25b825b8 25b825b8 25b825b8     .%.%.%.%.%.%.%.%
    9c40:	25b825b8 25b825b8 25b825b8 25b825b8     .%.%.%.%.%.%.%.%
    9c50:	25b825b8 25b825b8 25b825b8 25b825b8     .%.%.%.%.%.%.%.%
    9c60:	25b825b8 25b825b8 25b825b8 25b825b8     .%.%.%.%.%.%.%.%
    9c70:	25b825b8 25b825b8 25b825b8 25b825b8     .%.%.%.%.%.%.%.%
    9c80:	25b825b8 25b825b8 25b825b8 25b825b8     .%.%.%.%.%.%.%.%
    9c90:	25b825b8 25b825b8 1db81db8 155725b8     .%.%.%.%.....%W.
    9ca0:	25b825b8 25b825b8 25b825b8 25b825b8     .%.%.%.%.%.%.%.%
    9cb0:	25b825b8 25b825b8 25b825b8 25b825b8     .%.%.%.%.%.%.%.%
    9cc0:	25b825b8 25b825b8 25b825b8 25b825b8     .%.%.%.%.%.%.%.%
    9cd0:	25b825b8 25b825b8 25b825b8 25b825b8     .%.%.%.%.%.%.%.%
    9ce0:	25b825b8 25b825b8 25b825b8 25b825b8     .%.%.%.%.%.%.%.%
    9cf0:	25b825b8 25b825b8 25b825b8 25b825b8     .%.%.%.%.%.%.%.%
    9d00:	25b825b8 25b81d98 3d782597 00e63c33     .%.%...%.%x=3<..
    9d10:	dedb1946 f7beffff ffdff7df ffdfffdf     F...............
    9d20:	ffdfffdf ffffffff ffffffff ffffffff     ................
    9d30:	ffffffff 732effff 83d00801 f7beffff     .......s........
    9d40:	ffdfffdf ffdfffdf ffffffdf 0883bd97     ................
    9d50:	5cb411a8 01e95d36 7c110042 ffffffff     ...\6]..B..|....
    9d60:	ffffffff ffffffff ffffffff ffffffff     ................
    9d70:	ffffffff ffffffff 8c11ffff 62ec0801     ...............b
    9d80:	ffffffff ffffffff ffffffff ffffffff     ................
    9d90:	ffffffff ffffffff 636effff 00830022     ..........nc"...
    9da0:	01260063 653754f6 004319ea ffff9493     c.&..T7e..C.....
    9db0:	ffffffff ffffffff ffffffff ffffffff     ................
    9dc0:	ffffffff ffffffff 002229c8 00430084     .........)"...C.
    9dd0:	5d36022a 01465c94 c5f80863 f7deffff     *.6].\F.c.......
    9de0:	ffdfffdf ffdfffdf ffffffde 0000736e     ............ns..
    9df0:	ffff734e ffdff7be ffdfffdf f7beffdf     Ns..............
    9e00:	bdb7ffff 39661042 ffffef1d ffdfffdf     ....B.f9........
    9e10:	ffdfffdf ffffffdf 3986ff9e a5140000     ...........9....
    9e20:	f7beffff ffdfffdf ffdfffdf fffff7be     ................
    9e30:	08008c31 ffdf5a6b ffdfffdf ffdfffdf     1...kZ..........
    9e40:	ffdfffdf d67affff 00a518c5 65984453     ......z.....SD.e
    9e50:	00431acc ffff4b0d ffffffff ffffffff     ..C..K..........
    9e60:	ffffffff ffffffff ffffffff ffffffff     ................
    9e70:	0022734e 6d77228c 01054c93 c67b0042     Ns".."wm.L..B.{.
    9e80:	ffffffff ffffffff ffffffff ffdfffdf     ................
    9e90:	ffdfffdf ffdfffdf fffff7df 3a09f79e     ...............:
    9ea0:	2b6f0083 25974597 25b82598 25b825b8     ..o+.E.%.%.%.%.%
    9eb0:	25b825b8 25b825b8 25b825b8 25b825b8     .%.%.%.%.%.%.%.%
    9ec0:	25b825b8 25b825b8 25b825b8 25b825b8     .%.%.%.%.%.%.%.%
    9ed0:	25b825b8 25b825b8 25b825b8 25b825b8     .%.%.%.%.%.%.%.%
    9ee0:	25b825b8 25b825b8 25b825b8 25b825b8     .%.%.%.%.%.%.%.%
    9ef0:	25b825b8 25b825b8 25b825b8 25b825b8     .%.%.%.%.%.%.%.%
    9f00:	25b825b8 25b825b8 25b825b8 25b825b8     .%.%.%.%.%.%.%.%
    9f10:	25b825b8 25b825b8 1db81db8 155725b8     .%.%.%.%.....%W.
    9f20:	25b825b8 25b825b8 25b825b8 25b825b8     .%.%.%.%.%.%.%.%
    9f30:	25b825b8 25b825b8 25b825b8 25b825b8     .%.%.%.%.%.%.%.%
    9f40:	25b825b8 25b825b8 25b825b8 25b825b8     .%.%.%.%.%.%.%.%
    9f50:	25b825b8 25b825b8 25b825b8 25b825b8     .%.%.%.%.%.%.%.%
    9f60:	25b825b8 25b825b8 25b825b8 25b825b8     .%.%.%.%.%.%.%.%
    9f70:	25b825b8 25b825b8 25b825b8 25b825b8     .%.%.%.%.%.%.%.%
    9f80:	1db81d98 1d981db8 3d982598 00e53c33     .........%.=3<..
    9f90:	dedc1926 f7deffff ffdff7df ffdfffdf     &...............
    9fa0:	ffffffdf ffdfffdf ffdfffdf ffdfffdf     ................
    9fb0:	ffdfffdf 6b2dffdf 83b00801 f7beffff     ......-k........
    9fc0:	ffdfffdf ffdfffdf fffff7be 1063b577     ............w.c.
    9fd0:	53d11147 32cc5c32 9cb329c8 f7beffff     G..S2\.2.)......
    9fe0:	ffdff7be ffdfffdf ffdfffdf ffdfffdf     ................
    9ff0:	ffdfffdf f7beffdf 8410ffff 62cc0801     ...............b
    a000:	f7beffff ffdfffdf ffdfffdf ffdfffdf     ................
    a010:	ffdfffdf f7bef7be 8431ffff 422a39c8     ..........1..9*B
    a020:	3a6b422a 5c325412 004221a9 ffff8c72     *Bk:.T2\.!B.r...
    a030:	ffdff7be ffdfffdf ffdfffdf ffdfffdf     ................
    a040:	ffdfffdf f7bef7be 39c8632d 3a0a4a0a     ........-c.9.J.:
    a050:	5c123acd 090653b0 c5f91063 f7dfffff     .:.\.S..c.......
    a060:	ffdfffdf ffdfffdf ffffffde 0000736e     ............ns..
    a070:	ffff6b4d ffdff7be ffdfffdf f7beffdf     Mk..............
    a080:	bdb7ffff 39661022 ffffef1d ffdfffdf     ....".f9........
    a090:	ffdfffdf ffdfffdf 630cf7be b5b639a6     ...........c.9..
    a0a0:	f7beffff ffdfffdf ffdeffdf fffff7be     ................
    a0b0:	00008c31 ffbf5a8b ffdfffdf f7beffdf     1....Z..........
    a0c0:	ffdfffdf ce7affff 08a420c5 5c534390     ......z.. ...CS\
    a0d0:	29c84b2e ffff7bf0 ffdfffdf ffdfffdf     .K.).{..........
    a0e0:	ffdff7df ffdfffdf ffdfffdf fffff7be     ................
    a0f0:	0022732e 5c52222a 328b53d0 d67a39e9     .s".*"R\.S.2.9z.
    a100:	f7beffff ffdfffdf ffdff7df ffdfffdf     ................
    a110:	ffdfffdf ffdfffdf fffff7df 3a09f79e     ...............:
    a120:	2b6f0083 25974597 25b82598 25b825b8     ..o+.E.%.%.%.%.%
    a130:	25b825b8 25b825b8 25b825b8 25b825b8     .%.%.%.%.%.%.%.%
    a140:	25b825b8 25b825b8 25b825b8 25b825b8     .%.%.%.%.%.%.%.%
    a150:	25b825b8 25b825b8 25b825b8 25b825b8     .%.%.%.%.%.%.%.%
    a160:	25b825b8 25b825b8 25b825b8 25b825b8     .%.%.%.%.%.%.%.%
    a170:	25b825b8 25b825b8 25b825b8 25b825b8     .%.%.%.%.%.%.%.%
    a180:	25b825b8 25b825b8 25b825b8 25b825b8     .%.%.%.%.%.%.%.%
    a190:	25b825b8 25b825b8 1db81db8 155725b8     .%.%.%.%.....%W.
    a1a0:	25b825b8 25b825b8 25b825b8 25b825b8     .%.%.%.%.%.%.%.%
    a1b0:	25b825b8 25b825b8 25b825b8 25b825b8     .%.%.%.%.%.%.%.%
    a1c0:	25b825b8 25b825b8 25b825b8 25b825b8     .%.%.%.%.%.%.%.%
    a1d0:	25b825b8 25b825b8 25b825b8 25b825b8     .%.%.%.%.%.%.%.%
    a1e0:	25b825b8 25b825b8 25b825b8 25b825b8     .%.%.%.%.%.%.%.%
    a1f0:	25b825b8 25b825b8 25b825b8 25b825b8     .%.%.%.%.%.%.%.%
    a200:	1db81db8 1db81db8 35982598 00e53c32     .........%.52<..
    a210:	dedb1926 f7beffff ffdfffdf ffdfffdf     &...............
    a220:	ffdfffdf ffdfffdf ffdfffdf ffdfffdf     ................
    a230:	ffdfffde 6b2dffdf 7bcf0801 ffdfffff     ......-k...{....
    a240:	ffdfffdf ffdfffdf fffff7de 1063bd76     ............v.c.
    a250:	10e518c5 b5f808a4 f79ef7df f7deffdf     ................
    a260:	ffdfffdf ffdfffdf ffdfffdf ffdfffdf     ................
    a270:	f7dfffdf f7bfffdf 8410ffff 62cc0801     ...............b
    a280:	f7beffff ffdfffdf ffdfffdf ffdff7df     ................
    a290:	ffdfffdf ffdff7be f7bfffdf f79ff79e     ................
    a2a0:	cebbffdf 08a51106 104318c5 ffff8c52     ..........C.R...
    a2b0:	ffdff7be ffdfffdf ffdfffdf ffdfffdf     ................
    a2c0:	ffdfffdf ffdfffde f7bff7be ffdff77e     ............~...
    a2d0:	08c4a5b7 10a410c5 c5b81884 f7dfffff     ................
    a2e0:	ffdfffdf ffdfffdf ffffffde 0800736e     ............ns..
    a2f0:	ffff6b4d ffdff7be ffdfffdf f7beffdf     Mk..............
    a300:	bdb7ffff 39661022 ffffef1d ffdfffdf     ....".f9........
    a310:	ffdfffdf ffdfffdf f7beffdf f7bef7be     ................
    a320:	ffdfffdf ffdfffbf ffdfffdf fffff7be     ................
    a330:	00008c31 ffdf5a8b ffdfffdf ffdfffdf     1....Z..........
    a340:	ffdfffdf d67affff 18a420c4 008410e5     ......z.. ......
    a350:	f7df8c93 ffdff79e ffdfffdf ffdfffdf     ................
    a360:	ffdfffdf ffdfffdf ffdeffde fffff7de     ................
    a370:	08226b0d 088418e6 e75e31e9 f7bff7bf     .k"......1^.....
    a380:	f7deffff ffdfffdf ffdfffdf ffdfffdf     ................
    a390:	ffdfffdf ffdfffdf fffff7df 3a09f77e     ............~..:
    a3a0:	2b6f0083 25974597 25b82598 25b825b8     ..o+.E.%.%.%.%.%
    a3b0:	25b825b8 25b825b8 25b825b8 25b825b8     .%.%.%.%.%.%.%.%
    a3c0:	25b825b8 25b825b8 25b825b8 25b825b8     .%.%.%.%.%.%.%.%
    a3d0:	25b825b8 25b825b8 25b825b8 25b825b8     .%.%.%.%.%.%.%.%
    a3e0:	25b825b8 25b825b8 25b825b8 25b825b8     .%.%.%.%.%.%.%.%
    a3f0:	25b825b8 25b825b8 25b825b8 25b825b8     .%.%.%.%.%.%.%.%
    a400:	25b825b8 25b825b8 25b825b8 25b825b8     .%.%.%.%.%.%.%.%
    a410:	25b825b8 25b825b8 1db81db8 155725b8     .%.%.%.%.....%W.
    a420:	25b825b8 25b825b8 25b825b8 25b825b8     .%.%.%.%.%.%.%.%
    a430:	25b825b8 25b825b8 25b825b8 25b825b8     .%.%.%.%.%.%.%.%
    a440:	25b825b8 25b825b8 25b825b8 25b825b8     .%.%.%.%.%.%.%.%
    a450:	25b825b8 25b825b8 25b825b8 25b825b8     .%.%.%.%.%.%.%.%
    a460:	25b825b8 25b825b8 25b825b8 25b825b8     .%.%.%.%.%.%.%.%
    a470:	25b825b8 25b825b8 25b825b8 25b825b8     .%.%.%.%.%.%.%.%
    a480:	1d981db8 1db81db8 35981d98 00e53c32     ...........52<..
    a490:	dedb1926 f7beffff ffdfffdf ffdfffdf     &...............
    a4a0:	ffdfffdf ffdfffdf ffdfffdf ffdfffdf     ................
    a4b0:	ffdff7de 6b2dffdf 7bcf0801 f7beffff     ......-k...{....
    a4c0:	ffdfffdf ffdfffdf fffff7de 1863b576     ............v.c.
    a4d0:	18a420a4 bdf81083 f7dfffff ffdeffdf     . ..............
    a4e0:	ffdfffdf f7dfffdf ffdfffdf ffdfffdf     ................
    a4f0:	f7dff7df f7bfffdf 8410ffff 62cc0801     ...............b
    a500:	ffdfffff ffdfffdf ffdfffdf ffdfffdf     ................
    a510:	ffdfffdf f7dff7de ffdff7df ffffffff     ................
    a520:	defcffff 188420e5 102220a5 ffff8c52     ..... ... ".R...
    a530:	ffdff7be ffdfffdf ffdfffdf ffdfffdf     ................
    a540:	ffdfffdf ffffffdf ffdfffdf fffff7be     ................
    a550:	1083b5d7 20841884 c5d82083 f7dfffff     ....... . ......
    a560:	ffdfffdf ffdfffdf ffffffbe 0800736e     ............ns..
    a570:	ffff6b4d ffdff7be ffdfffdf f7beffdf     Mk..............
    a580:	bdb7ffff 39661022 ffffef1d ffdfffdf     ....".f9........
    a590:	ffdfffdf ffdfffdf ffffffdf ffdfffff     ................
    a5a0:	ffdfffdf ffdfffdf ffdfffdf fffff7be     ................
    a5b0:	00008c31 ffdf5a8b ffdfffdf f7dfffdf     1....Z..........
    a5c0:	ffdfffdf d65affff 188320c4 084218a4     ......Z.. ....B.
    a5d0:	ffff9cd4 ffdfffdf ffdfffdf ffffffff     ................
    a5e0:	ffdfffdf f7dff7df ffdeffdf fffff7de     ................
    a5f0:	10226b2d 104320c5 ef7e39c8 f7bfffdf     -k".. C..9~.....
    a600:	ffdeffdf ffdfffdf ffdfffdf ffffffdf     ................
    a610:	ffdfffdf ffdfffdf fffff7df 3a09f77e     ............~..:
    a620:	2b6f0063 25974597 25b82598 25b825b8     c.o+.E.%.%.%.%.%
    a630:	25b825b8 25b825b8 25b825b8 25b825b8     .%.%.%.%.%.%.%.%
    a640:	25b825b8 25b825b8 25b825b8 25b825b8     .%.%.%.%.%.%.%.%
    a650:	25b825b8 25b825b8 25b825b8 25b825b8     .%.%.%.%.%.%.%.%
    a660:	25b825b8 25b825b8 25b825b8 25b825b8     .%.%.%.%.%.%.%.%
    a670:	25b825b8 25b825b8 25b825b8 25b825b8     .%.%.%.%.%.%.%.%
    a680:	25b825b8 25b825b8 25b825b8 25b825b8     .%.%.%.%.%.%.%.%
    a690:	25b825b8 25b825b8 1db81db8 155725b8     .%.%.%.%.....%W.
    a6a0:	25b825b8 25b825b8 25b825b8 25b825b8     .%.%.%.%.%.%.%.%
    a6b0:	25b825b8 25b825b8 25b825b8 25b825b8     .%.%.%.%.%.%.%.%
    a6c0:	25b825b8 25b825b8 25b825b8 25b825b8     .%.%.%.%.%.%.%.%
    a6d0:	25b825b8 25b825b8 25b825b8 25b825b8     .%.%.%.%.%.%.%.%
    a6e0:	25b825b8 25b825b8 25b825b8 25b825b8     .%.%.%.%.%.%.%.%
    a6f0:	25b825b8 25b825b8 25b825b8 25b825b8     .%.%.%.%.%.%.%.%
    a700:	1db81db8 1db81db8 35972598 00e53c32     .........%.52<..
    a710:	dedb1926 f7beffff ffdfffdf ffdfffdf     &...............
    a720:	ffdfffdf f7def7de ffdfffdf ffdfffdf     ................
    a730:	ffdff7df 6b2dffdf 7bcf0801 f7beffff     ......-k...{....
    a740:	ffdfffdf ffdfffdf fffff7de 1022bd97     ..............".
    a750:	ce3a3967 ef7ddedb f7def7df ffdfffdf     g9:...}.........
    a760:	ffffffdf ffdfffdf ffdfffdf ffdfffdf     ................
    a770:	f7dff7df f7bfffdf 8410ffff 62cc0801     ...............b
    a780:	f7dfffff ffdfffdf ffdfffdf ffdfffdf     ................
    a790:	f7bfffdf f7dff7df ffdff7df f7deffdf     ................
    a7a0:	f7beffdf de9bdebb 0801522a ffff9452     ........*R..R...
    a7b0:	ffdff7be ffdfffdf ffdfffdf ffffffdf     ................
    a7c0:	ffdfffdf f7dff7df ffdff7df f7beffdf     ................
    a7d0:	dedbef7d 28e5ce19 c5d81862 f7beffff     }......(b.......
    a7e0:	ffdfffdf ffdfffdf ffffffbe 0800736e     ............ns..
    a7f0:	ffff6b4d ffdff7be ffdfffdf f7beffdf     Mk..............
    a800:	bdb7ffff 39661022 ffffef1d ffdfffdf     ....".f9........
    a810:	ffdfffdf ffdfffdf f7dff7df f7dff7df     ................
    a820:	f7dfffdf ffdfffdf ffdfffdf fffff7be     ................
    a830:	00008c31 ffdf5a8b f7deffdf f7beffdf     1....Z..........
    a840:	f7def7de d65affdf 186320a4 dedbb597     ......Z.. c.....
    a850:	ffdfe75d ffdfffdf ffdfffdf ffdfffff     ]...............
    a860:	ffdfffdf f7dff7df ffdfffdf ffffffdf     ................
    a870:	08016b2d e6dc6b0d f7bededb ffdfffdf     -k...k..........
    a880:	ffdeffdf f7dff7df ffdfffdf ffdfffdf     ................
    a890:	ffdfffdf ffdfffdf fffff7df 3a09f77e     ............~..:
    a8a0:	2b6f0063 25974597 25b82598 25b825b8     c.o+.E.%.%.%.%.%
    a8b0:	25b825b8 25b825b8 25b825b8 25b825b8     .%.%.%.%.%.%.%.%
    a8c0:	25b825b8 25b825b8 25b825b8 25b825b8     .%.%.%.%.%.%.%.%
    a8d0:	25b825b8 25b825b8 25b825b8 25b825b8     .%.%.%.%.%.%.%.%
    a8e0:	25b825b8 25b825b8 25b825b8 25b825b8     .%.%.%.%.%.%.%.%
    a8f0:	25b825b8 25b825b8 25b825b8 25b825b8     .%.%.%.%.%.%.%.%
    a900:	25b825b8 25b825b8 25b825b8 25b825b8     .%.%.%.%.%.%.%.%
    a910:	25b825b8 25b825b8 1db81db8 155725b8     .%.%.%.%.....%W.
    a920:	25b825b8 25b825b8 25b825b8 25b825b8     .%.%.%.%.%.%.%.%
    a930:	25b825b8 25b825b8 25b825b8 25b825b8     .%.%.%.%.%.%.%.%
    a940:	25b825b8 25b825b8 25b825b8 25b825b8     .%.%.%.%.%.%.%.%
    a950:	25b825b8 25b825b8 25b825b8 25b825b8     .%.%.%.%.%.%.%.%
    a960:	25b825b8 25b825b8 25b825b8 25b825b8     .%.%.%.%.%.%.%.%
    a970:	25b825b8 25b825b8 25b825b8 25b825b8     .%.%.%.%.%.%.%.%
    a980:	1db81d98 1db81db8 35972598 00e53c32     .........%.52<..
    a990:	dedb1926 ffdfffff ffdfffdf ffdfffdf     &...............
    a9a0:	ffdfffff f7fff7de ffdfffdf ffdfffdf     ................
    a9b0:	ffdff7df 6b2dffff 7bcf0801 f7beffff     ......-k...{....
    a9c0:	ffdfffdf ffdfffdf fffff7de 1022bd97     ..............".
    a9d0:	f77e41a7 ffffffff f7dff7df ffdfffff     .A~.............
    a9e0:	ffdfffdf ffdff7df ffdfffdf ffdfffff     ................
    a9f0:	f7dff7df f7bfffdf 8410ffff 62cc0801     ...............b
    aa00:	ffdfffff ffdfffdf ffdfffdf ffdfffdf     ................
    aa10:	ffdfffdf f7dfffdf f7dff7df ffdfffdf     ................
    aa20:	ffdfffdf ffffffff 08015a8b ffff9452     .........Z..R...
    aa30:	f7dff7df ffdfffdf ffffffdf ffdfffff     ................
    aa40:	f7dfffdf f7dfffff ffdfffdf ffdfffdf     ................
    aa50:	ffffffdf 3126f75e cdf81042 f7beffff     ....^.&1B.......
    aa60:	ffdfffdf ffdfffdf ffffffde 0800736e     ............ns..
    aa70:	ffff732d ffdff7be ffdfffdf f7beffdf     -s..............
    aa80:	bdb7ffff 39661022 ffffef1d ffdfffdf     ....".f9........
    aa90:	ffdfffff ffdfffdf f7dff7df ffdfffdf     ................
    aaa0:	ffdfffdf ffdfffdf ffdfffdf fffff7be     ................
    aab0:	00008c31 ffff5aab ffffffff ffffffff     1....Z..........
    aac0:	ffffffff de9bffff 186320a4 ffffd69a     ......... c.....
    aad0:	ffdfffff ffdfffdf ffdfffdf ffdeffdf     ................
    aae0:	ffdfffff f7dff7df ffdfffdf fffff7be     ................
    aaf0:	0000734d ffff7b8f ffdfffff ffdfffdf     Ms...{..........
    ab00:	ffdeffdf f7fff7df f7dff7df ffdfffff     ................
    ab10:	ffdfffdf ffdfffdf fffff7df 3a09f77e     ............~..:
    ab20:	2b6f0063 25974597 25b82598 25b825b8     c.o+.E.%.%.%.%.%
    ab30:	25b825b8 25b825b8 25b825b8 25b825b8     .%.%.%.%.%.%.%.%
    ab40:	25b825b8 25b825b8 25b825b8 25b825b8     .%.%.%.%.%.%.%.%
    ab50:	25b825b8 25b825b8 25b825b8 25b825b8     .%.%.%.%.%.%.%.%
    ab60:	25b825b8 25b825b8 25b825b8 25b825b8     .%.%.%.%.%.%.%.%
    ab70:	25b825b8 25b825b8 25b825b8 25b825b8     .%.%.%.%.%.%.%.%
    ab80:	25b825b8 25b825b8 25b825b8 25b825b8     .%.%.%.%.%.%.%.%
    ab90:	25b825b8 25b825b8 1db81db8 155725b8     .%.%.%.%.....%W.
    aba0:	25b825b8 25b825b8 25b825b8 25b825b8     .%.%.%.%.%.%.%.%
    abb0:	25b825b8 25b825b8 25b825b8 25b825b8     .%.%.%.%.%.%.%.%
    abc0:	25b825b8 25b825b8 25b825b8 25b825b8     .%.%.%.%.%.%.%.%
    abd0:	25b825b8 25b825b8 25b825b8 25b825b8     .%.%.%.%.%.%.%.%
    abe0:	25b825b8 25b825b8 25b825b8 25b825b8     .%.%.%.%.%.%.%.%
    abf0:	25b825b8 25b825b8 25b825b8 25b825b8     .%.%.%.%.%.%.%.%
    ac00:	1db825b8 1db81db8 35972598 00e53c32     .%.......%.52<..
    ac10:	dedb1926 f7deffff ffdfffdf ffdfffdf     &...............
    ac20:	ffdfffdf ffdfffdf ffdfffdf ffdeffdf     ................
    ac30:	ffdfffff 6b2dffff 7bcf0801 f7deffff     ......-k...{....
    ac40:	ffdfffdf ffdfffdf fffff7de 1022bd97     ..............".
    ac50:	ef3d3987 f7dfffdf f7dfffff f7dff7ff     .9=.............
    ac60:	f7deffdf f7beffdf f7dff7df ffdfffdf     ................
    ac70:	f7dff7df f7bfffdf 8410ffff 62cc0801     ...............b
    ac80:	ffdfffff ffdfffdf ffdfffdf f7dff7df     ................
    ac90:	f7dff7df f7def7de ffdfffdf ffdfffdf     ................
    aca0:	ffdfffdf ffbfffdf 10015a6a ffff9452     ........jZ..R...
    acb0:	ffdfffdf ffdfffdf ffffffdf f7dfffdf     ................
    acc0:	ffdff7be ffdfffdf ffdfffdf ffdfffdf     ................
    acd0:	ffdff7de 2925ef1d c5f81062 ffbeffff     ......%)b.......
    ace0:	ffdfffdf ffdfffdf ffffffbf 0800736e     ............ns..
    acf0:	ffff732d ffdfffbe ffdfffdf f7beffdf     -s..............
    ad00:	bdb7ffff 39661022 ffffef1d ffdfffdf     ....".f9........
    ad10:	ffdfffff ffdfffdf ffdfffdf f7dff7df     ................
    ad20:	ffdfffdf ffdfffdf ffdfffdf fffff7be     ................
    ad30:	08018c11 83d03987 83f083f0 83f083f0     .....9..........
    ad40:	83d083f0 732e8bf1 18632084 ffdfd639     .......s. c.9...
    ad50:	ffdfffbe ffdfffdf ffdfffdf ffffffdf     ................
    ad60:	ffdfffdf f7bef7be f7bef7df ffdff7be     ................
    ad70:	08006b4d ffff738e f7fff7be ffdfffde     Mk...s..........
    ad80:	f7fff7df f7dfffff f7def7be ffffffdf     ................
    ad90:	ffdfffdf ffdfffdf fffff7df 3a09f77e     ............~..:
    ada0:	2b6f0063 25974597 25b82598 25b825b8     c.o+.E.%.%.%.%.%
    adb0:	25b825b8 25b825b8 25b825b8 25b825b8     .%.%.%.%.%.%.%.%
    adc0:	25b825b8 25b825b8 25b825b8 25b825b8     .%.%.%.%.%.%.%.%
    add0:	25b825b8 25b825b8 25b825b8 25b825b8     .%.%.%.%.%.%.%.%
    ade0:	25b825b8 25b825b8 25b825b8 25b825b8     .%.%.%.%.%.%.%.%
    adf0:	25b825b8 25b825b8 25b825b8 25b825b8     .%.%.%.%.%.%.%.%
    ae00:	25b825b8 25b825b8 25b825b8 25b825b8     .%.%.%.%.%.%.%.%
    ae10:	25b825b8 25b825b8 1db81db8 155725b8     .%.%.%.%.....%W.
    ae20:	25b825b8 25b825b8 25b825b8 25b825b8     .%.%.%.%.%.%.%.%
    ae30:	25b825b8 25b825b8 25b825b8 25b825b8     .%.%.%.%.%.%.%.%
    ae40:	25b825b8 25b825b8 25b825b8 25b825b8     .%.%.%.%.%.%.%.%
    ae50:	25b825b8 25b825b8 25b825b8 25b825b8     .%.%.%.%.%.%.%.%
    ae60:	25b825b8 25b825b8 25b825b8 25b825b8     .%.%.%.%.%.%.%.%
    ae70:	25b825b8 25b825b8 25b825b8 25b825b8     .%.%.%.%.%.%.%.%
    ae80:	25b825b8 25b81db8 35772598 00e53c32     .%.%...%.%w52<..
    ae90:	dedb2126 f7deffff ffdfffdf ffdfffdf     &!..............
    aea0:	ffdfffdf ffdfffdf ffdfffdf ffdfffdf     ................
    aeb0:	ffdfffdf 6b2dffff 7bcf0801 f7deffff     ......-k...{....
    aec0:	ffdff7df ffdfffdf fffff7df 1022bd97     ..............".
    aed0:	ef3d41a7 ffdfffff f7dfffdf f7dfffff     .A=.............
    aee0:	ffdfffdf ffffffff f7deffff ffdfffff     ................
    aef0:	f7dff7df f7bfffdf 8410ffff 62cc0801     ...............b
    af00:	ffdfffff ffdfffdf ffdfffdf f7dfffdf     ................
    af10:	ffffffff ffdfffff ffdfffdf ffdfffdf     ................
    af20:	ffdfffdf ffbfffdf 08015a6a ffff9452     ........jZ..R...
    af30:	ffdfffdf ffdfffdf ffffffdf ffffffdf     ................
    af40:	ffffffff ffdfffdf ffdfffdf ffdfffdf     ................
    af50:	fffff7de 3126ef3d c5f81062 ffbeffff     ....=.&1b.......
    af60:	ffdfffdf f7dfffdf ffffffdf 0800736e     ............ns..
    af70:	ffff732d ffdfffbe ffdfffdf f7beffdf     -s..............
    af80:	bdb7ffff 39661022 ffffef1d ffdfffdf     ....".f9........
    af90:	ffdfffdf ffdfffdf ffdfffdf f7dff7df     ................
    afa0:	ffdfffdf ffdfffdf ffdfffdf fffff7be     ................
    afb0:	082183f0 08011883 08000801 08010801     ..!.............
    afc0:	08010801 10010801 20832084 ffffd65a     ......... . Z...
    afd0:	ffdfffbf f7dfffdf ffdfffdf ffdfffdf     ................
    afe0:	ffffffdf ffffffff ffffffff ffffffff     ................
    aff0:	0800736e ffff738e f7fff7de ffdfffdf     ns...s..........
    b000:	f7fff7ff ffdfffdf ffffffff ffdfffff     ................
    b010:	ffdfffdf ffdfffdf fffff7df 3a09f77e     ............~..:
    b020:	2b6f0063 25974597 25b82598 25b825b8     c.o+.E.%.%.%.%.%
    b030:	25b825b8 25b825b8 25b825b8 25b825b8     .%.%.%.%.%.%.%.%
    b040:	25b825b8 25b825b8 25b825b8 25b825b8     .%.%.%.%.%.%.%.%
    b050:	25b825b8 25b825b8 25b825b8 25b825b8     .%.%.%.%.%.%.%.%
    b060:	25b825b8 25b825b8 25b825b8 25b825b8     .%.%.%.%.%.%.%.%
    b070:	25b825b8 25b825b8 25b825b8 25b825b8     .%.%.%.%.%.%.%.%
    b080:	25b825b8 25b825b8 25b825b8 25b825b8     .%.%.%.%.%.%.%.%
    b090:	25b825b8 25b825b8 1db81db8 155725b8     .%.%.%.%.....%W.
    b0a0:	25b825b8 25b825b8 25b825b8 25b825b8     .%.%.%.%.%.%.%.%
    b0b0:	25b825b8 25b825b8 25b825b8 25b825b8     .%.%.%.%.%.%.%.%
    b0c0:	25b825b8 25b825b8 25b825b8 25b825b8     .%.%.%.%.%.%.%.%
    b0d0:	25b825b8 25b825b8 25b825b8 25b825b8     .%.%.%.%.%.%.%.%
    b0e0:	25b825b8 25b825b8 25b825b8 25b825b8     .%.%.%.%.%.%.%.%
    b0f0:	25b825b8 25b825b8 25b825b8 25b825b8     .%.%.%.%.%.%.%.%
    b100:	25b825b8 25982598 35772598 00e53c32     .%.%.%.%.%w52<..
    b110:	dedb2126 ffdfffff ffdfffdf ffdfffdf     &!..............
    b120:	ffffffdf ffdfffdf f7def7df f7bef7be     ................
    b130:	ffbff7be 6b2dffdf 7bcf0800 f7bfffff     ......-k...{....
    b140:	ffdfffdf ffdfffdf fffff7de 1022bd77     ............w.".
    b150:	ef3d41a8 ffdfffff ffdfffdf ffdfffdf     .A=.............
    b160:	ffbeffdf ad55bd96 ffffdefc ffdfffdf     ......U.........
    b170:	ffdfffdf f7bfffdf 8410ffff 62cc0801     ...............b
    b180:	f7dfffff ffdfffdf ffffffdf ffffffff     ................
    b190:	b576ef5d ef7eb576 f7deffdf ffdfffdf     ].v.v.~.........
    b1a0:	ffdfffdf ffdfffdf 08015a6b ffff9452     ........kZ..R...
    b1b0:	ffdff7be ffdfffdf ffdfffdf dedbffff     ................
    b1c0:	c5d7ad35 ffdfffbf ffdfffdf ffdfffdf     5...............
    b1d0:	fffff7df 3125ef1d c5f81042 f7beffff     ......%1B.......
    b1e0:	ffdeffdf ffdeffdf ffffffde 0800736e     ............ns..
    b1f0:	ffff732d ffdff7be ffdfffdf f7beffdf     -s..............
    b200:	bdb7ffff 39661022 ffffef1d ffdfffdf     ....".f9........
    b210:	ffdfffdf ffdfffdf ffffffdf f7dfffff     ................
    b220:	ffdfffff ffdfffdf ffdfffdf fffff7be     ................
    b230:	08018410 732e3146 6b2d6b0d 6b2d6b2d     ....F1.s.k-k-k-k
    b240:	6b2d6b2d 62ac734e 18832083 ffffce59     -k-kNs.b. ..Y...
    b250:	f7dff7de f7dff7df ffdfffff f7beffdf     ................
    b260:	d69affdf b556ad35 b556b556 bd76ad55     ....5.V.V.V.U.v.
    b270:	08015a4a ffff736e ffdff7be ffdfffdf     JZ..ns..........
    b280:	ffdfffdf e73cffdf b596ad55 fffff79e     ......<.U.......
    b290:	f7dfffdf ffdfffdf fffff7df 3a09f77e     ............~..:
    b2a0:	2b6f0063 25974597 25b82598 25b825b8     c.o+.E.%.%.%.%.%
    b2b0:	25b825b8 25b825b8 25b825b8 25b825b8     .%.%.%.%.%.%.%.%
    b2c0:	25b825b8 25b825b8 25b825b8 25b825b8     .%.%.%.%.%.%.%.%
    b2d0:	25b825b8 25b825b8 25b825b8 25b825b8     .%.%.%.%.%.%.%.%
    b2e0:	25b825b8 25b825b8 25b825b8 25b825b8     .%.%.%.%.%.%.%.%
    b2f0:	25b825b8 25b825b8 25b825b8 25b825b8     .%.%.%.%.%.%.%.%
    b300:	25b825b8 25b825b8 25b825b8 25b825b8     .%.%.%.%.%.%.%.%
    b310:	25b825b8 25b825b8 1db81db8 155725b8     .%.%.%.%.....%W.
    b320:	25b825b8 25b825b8 25b825b8 25b825b8     .%.%.%.%.%.%.%.%
    b330:	25b825b8 25b825b8 25b825b8 25b825b8     .%.%.%.%.%.%.%.%
    b340:	25b825b8 25b825b8 25b825b8 25b825b8     .%.%.%.%.%.%.%.%
    b350:	25b825b8 25b825b8 25b825b8 25b825b8     .%.%.%.%.%.%.%.%
    b360:	25b825b8 25b825b8 25b825b8 25b825b8     .%.%.%.%.%.%.%.%
    b370:	25b825b8 25b825b8 25b825b8 25b825b8     .%.%.%.%.%.%.%.%
    b380:	25b825b8 25982598 3d982578 00e53c32     .%.%.%.%x%.=2<..
    b390:	dedb2126 ffdfffff ffdfffdf ffdfffdf     &!..............
    b3a0:	ffdfffdf ffffffff ffffffff ffffffff     ................
    b3b0:	ffffffff 734effdf 83af0801 f7bfffff     ......Ns........
    b3c0:	ffdfffdf ffdfffdf fffff7df 1022bd97     ..............".
    b3d0:	ef3d41a8 f7dfffff ffdfffdf ffbfffdf     .A=.............
    b3e0:	f79effdf 00002945 ffffad35 ffdff7be     ....E)..5.......
    b3f0:	ffdfffff f7bfffdf 8410ffff 62cc0801     ...............b
    b400:	f7dfffff ffdfffdf f7dfffdf fffff7de     ................
    b410:	1883ce59 d69a1883 f7deffff ffdfffdf     Y...............
    b420:	ffdfffdf ffdfffdf 08015a6b ffff9452     ........kZ..R...
    b430:	ffdff7bf ffdfffdf f7dfffdf 9492ffff     ................
    b440:	4a080000 ffdff79e ffdfffdf ffdfffdf     ...J............
    b450:	fffff7df 3125ef1d c5f81862 f7beffff     ......%1b.......
    b460:	ffdeffdf ffdef7ff fffff7de 0800736e     ............ns..
    b470:	ffff6b4d ffdff7be ffdfffdf f7beffdf     Mk..............
    b480:	bdb7ffff 39661022 ffffef1d ffdfffdf     ....".f9........
    b490:	ffdfffdf f7dfffdf ffdfffdf f7dfffdf     ................
    b4a0:	ffffffff ffdfffdf ffdfffdf fffff7be     ................
    b4b0:	00008411 ffdf62ab ffffffff ffffffff     .....b..........
    b4c0:	ffdfffff e6bbffdf 186320c4 ffffd65a     ......... c.Z...
    b4d0:	f7dff7df f7dff7df ffdff7df ffdfffbf     ................
    b4e0:	9452ffff 18630801 10421042 18421042     ..R...c.B.B.B.B.
    b4f0:	10222063 ffff736e ffdfffdf ffdfffdf     c ".ns..........
    b500:	f7beffdf bdd7ffff 20e40821 ffffdefc     ........!.. ....
    b510:	f7dff7df ffdfffdf fffff7df 3a09f77e     ............~..:
    b520:	2b6f0063 25974597 25b82598 25b825b8     c.o+.E.%.%.%.%.%
    b530:	25b825b8 25b825b8 25b825b8 25b825b8     .%.%.%.%.%.%.%.%
    b540:	25b825b8 25b825b8 25b825b8 25b825b8     .%.%.%.%.%.%.%.%
    b550:	25b825b8 25b825b8 25b825b8 25b825b8     .%.%.%.%.%.%.%.%
    b560:	25b825b8 25b825b8 25b825b8 25b825b8     .%.%.%.%.%.%.%.%
    b570:	25b825b8 25b825b8 25b825b8 25b825b8     .%.%.%.%.%.%.%.%
    b580:	25b825b8 25b825b8 25b825b8 25b825b8     .%.%.%.%.%.%.%.%
    b590:	25b825b8 25b825b8 1db81db8 155725b8     .%.%.%.%.....%W.
    b5a0:	25b825b8 25b825b8 25b825b8 25b825b8     .%.%.%.%.%.%.%.%
    b5b0:	25b825b8 25b825b8 25b825b8 25b825b8     .%.%.%.%.%.%.%.%
    b5c0:	25b825b8 25b825b8 25b825b8 25b825b8     .%.%.%.%.%.%.%.%
    b5d0:	25b825b8 25b825b8 25b825b8 25b825b8     .%.%.%.%.%.%.%.%
    b5e0:	25b825b8 25b825b8 25b825b8 25b825b8     .%.%.%.%.%.%.%.%
    b5f0:	25b825b8 25b825b8 25b825b8 25b825b8     .%.%.%.%.%.%.%.%
    b600:	25b825b8 25982598 3d982578 00e53c32     .%.%.%.%x%.=2<..
    b610:	dedb2126 ffdfffff ffdfffdf ffdfffdf     &!..............
    b620:	f7bfffdf debbe71c e6dce6dc e6dce6bc     ................
    b630:	e6dce6dc 6acceedd 83b01001 f7bfffff     .......j........
    b640:	ffdfffdf ffdfffdf fffff7df 1022bd97     ..............".
    b650:	ef3d41a7 f7dfffff ffdfffdf ffdfffdf     .A=.............
    b660:	f79effff 10223987 ffffad35 ffdfffdf     .....9".5.......
    b670:	ffdfffdf f7beffdf 8410ffff 62cc0801     ...............b
    b680:	ffdfffff ffdfffdf f7dfffdf fffff7df     ................
    b690:	20c4d67a debb28e4 ffdfffff ffdfffde     z.. .(..........
    b6a0:	ffdfffdf ffdfffdf 08015a6b ffff9452     ........kZ..R...
    b6b0:	ffdff7bf ffdfffdf f7deffdf 9cb3ffff     ................
    b6c0:	4a490000 ffdfff9e ffdfffdf ffdfffdf     ..IJ............
    b6d0:	fffff7df 3125ef1d c5f81063 f7dfffff     ......%1c.......
    b6e0:	ffdfffdf ffdeffdf fffff7df 0800736e     ............ns..
    b6f0:	ffff6b4d ffdff7be ffdfffdf f7beffdf     Mk..............
    b700:	bdb7ffff 39661022 ffffef1d ffdfffdf     ....".f9........
    b710:	ffdfffdf ffdff7df ffdfffdf ffdff7be     ................
    b720:	ffffffff ffdfffdf ffdfffdf fffff7be     ................
    b730:	00008c31 ffbf5a8b f7beffdf f7bef7bf     1....Z..........
    b740:	f7bfffdf d65affff 186220a4 ffffd65a     ......Z.. b.Z...
    b750:	f7fff7de fffff7df ffdfffdf e71dffdf     ................
    b760:	83d1e6fc 20a41023 20a420a4 28842884     ....#.. . . .(.(
    b770:	102220a4 ffff736e ffdff7df ffdfffdf     . ".ns..........
    b780:	ffdfffdf c5f8ffff 29251862 ffffe71c     ........b.%)....
    b790:	f7def7de ffdfffdf fffff7df 3a09f77e     ............~..:
    b7a0:	2b6f0063 25974597 25b82598 25b825b8     c.o+.E.%.%.%.%.%
    b7b0:	25b825b8 25b825b8 25b825b8 25b825b8     .%.%.%.%.%.%.%.%
    b7c0:	25b825b8 25b825b8 25b825b8 25b825b8     .%.%.%.%.%.%.%.%
    b7d0:	25b825b8 25b825b8 25b825b8 25b825b8     .%.%.%.%.%.%.%.%
    b7e0:	25b825b8 25b825b8 25b825b8 25b825b8     .%.%.%.%.%.%.%.%
    b7f0:	25b825b8 25b825b8 25b825b8 25b825b8     .%.%.%.%.%.%.%.%
    b800:	25b825b8 25b825b8 25b825b8 25b825b8     .%.%.%.%.%.%.%.%
    b810:	25b825b8 25b825b8 1db81db8 155725b8     .%.%.%.%.....%W.
    b820:	25b825b8 25b825b8 25b825b8 25b825b8     .%.%.%.%.%.%.%.%
    b830:	25b825b8 25b825b8 25b825b8 25b825b8     .%.%.%.%.%.%.%.%
    b840:	25b825b8 25b825b8 25b825b8 25b825b8     .%.%.%.%.%.%.%.%
    b850:	25b825b8 25b825b8 25b825b8 25b825b8     .%.%.%.%.%.%.%.%
    b860:	25b825b8 25b825b8 25b825b8 25b825b8     .%.%.%.%.%.%.%.%
    b870:	25b825b8 25b825b8 25b825b8 25b825b8     .%.%.%.%.%.%.%.%
    b880:	25b825b8 25982598 3d982578 00e53c32     .%.%.%.%x%.=2<..
    b890:	dedb2126 ffdfffff ffdfffdf ffdfffdf     &!..............
    b8a0:	ffdfffdf 20a35a8b 28e52905 28e528c5     .....Z. .).(.(.(
    b8b0:	28e528e5 28a430e5 7b8f1022 f7bfffff     .(.(.0.("..{....
    b8c0:	ffdfffdf ffdfffdf fffff7df 1042bd97     ..............B.
    b8d0:	ef3d41a7 f7dfffdf ffdfffdf f7dfffdf     .A=.............
    b8e0:	f79fffdf 10223967 ffffb556 fffff7be     ....g9".V.......
    b8f0:	ffdfffdf f7beffdf 8410ffff 62cc0801     ...............b
    b900:	ffdfffff ffdfffdf f7dfffdf fffff7df     ................
    b910:	20a4d65a de9b28e4 ffdfffff ffdfffdf     Z.. .(..........
    b920:	ffdfffdf ffdfffdf 08015a6b ffff9452     ........kZ..R...
    b930:	ffdff7bf ffdfffdf f7beffdf 9cb3ffff     ................
    b940:	524a0000 ffdfffbf ffdfffdf ffdfffdf     ..JR............
    b950:	fffff7df 3126ef1d c5f81063 f7dfffff     ......&1c.......
    b960:	ffdfffdf ffdfffdf ffffffdf 0000736e     ............ns..
    b970:	ffff6b4d ffdfffdf ffdfffdf f7beffdf     Mk..............
    b980:	bdb7ffff 39661022 ffffef1d ffdfffdf     ....".f9........
    b990:	ffdfffdf f7def7df ffdfffdf ffdfffdf     ................
    b9a0:	ffffffdf ffdfffff ffdfffdf fffff7be     ................
    b9b0:	00008c31 ffdf5a8b ffdfffdf ffdfffdf     1....Z..........
    b9c0:	f7beffff d67affff 186320a3 ffffd65a     ......z.. c.Z...
    b9d0:	f7fff7de f7def7df ffdfffde 62edffdf     ...............b
    b9e0:	28c51884 20842064 18841884 18a41884     ...(d . ........
    b9f0:	082220c5 ffff736e ffdff7df ffdfffdf     . ".ns..........
    ba00:	ffdfffdf c5d8ffff 31251862 ffffe71c     ........b.%1....
    ba10:	f7def7de ffdfffdf ffffffdf 3a09f77e     ............~..:
    ba20:	2b6f0063 25974597 25b82598 25b825b8     c.o+.E.%.%.%.%.%
    ba30:	25b825b8 25b825b8 25b825b8 25b825b8     .%.%.%.%.%.%.%.%
    ba40:	25b825b8 25b825b8 25b825b8 25b825b8     .%.%.%.%.%.%.%.%
    ba50:	25b825b8 25b825b8 25b825b8 25b825b8     .%.%.%.%.%.%.%.%
    ba60:	25b825b8 25b825b8 25b825b8 25b825b8     .%.%.%.%.%.%.%.%
    ba70:	25b825b8 25b825b8 25b825b8 25b825b8     .%.%.%.%.%.%.%.%
    ba80:	25b825b8 25b825b8 25b825b8 25b825b8     .%.%.%.%.%.%.%.%
    ba90:	25b825b8 25b825b8 1db81db8 155725b8     .%.%.%.%.....%W.
    baa0:	25b825b8 25b825b8 25b825b8 25b825b8     .%.%.%.%.%.%.%.%
    bab0:	25b825b8 25b825b8 25b825b8 25b825b8     .%.%.%.%.%.%.%.%
    bac0:	25b825b8 25b825b8 25b825b8 25b825b8     .%.%.%.%.%.%.%.%
    bad0:	25b825b8 25b825b8 25b825b8 25b825b8     .%.%.%.%.%.%.%.%
    bae0:	25b825b8 25b825b8 25b825b8 25b825b8     .%.%.%.%.%.%.%.%
    baf0:	25b825b8 25b825b8 25b825b8 25b825b8     .%.%.%.%.%.%.%.%
    bb00:	25b825b8 25982598 3d982578 00e53c32     .%.%.%.%x%.=2<..
    bb10:	dedb2126 ffdfffff ffdfffdf ffdfffdf     &!..............
    bb20:	ffdfffdf 18025209 18632063 18631863     .....R..c c.c.c.
    bb30:	18631863 20842063 7baf1022 f7bfffff     c.c.c . "..{....
    bb40:	ffdfffdf ffdfffdf fffff7df 1042bd97     ..............B.
    bb50:	ef3d41a7 f7dfffdf ffdfffdf f7dfffdf     .A=.............
    bb60:	f79effff 08213967 ffffad55 ffdff7be     ....g9!.U.......
    bb70:	ffdfffdf ffbfffdf 8410ffff 62cc0801     ...............b
    bb80:	ffdfffff ffdfffdf f7dfffdf fffff7df     ................
    bb90:	20c4d65a de9b20e4 ffdfffff ffdfffdf     Z.. . ..........
    bba0:	ffdfffdf ffdfffdf 08015a6b ffff9452     ........kZ..R...
    bbb0:	ffdff7bf ffdfffdf f7deffdf 9cb3ffff     ................
    bbc0:	4a290000 ffdff79e ffdfffdf ffdfffdf     ..)J............
    bbd0:	ffffffdf 3125ef1d c5f81063 f7deffff     ......%1c.......
    bbe0:	ffdfffdf ffdfffdf ffffffdf 00006b4d     ............Mk..
    bbf0:	ffff6b2d ffdff7be ffdfffdf f7beffdf     -k..............
    bc00:	bdb7ffff 39661022 ffffef1d ffdfffdf     ....".f9........
    bc10:	ffffffff ffffffdf ffffffdf ffdfffdf     ................
    bc20:	ffdfffdf ffdfffde ffdfffdf fffff7be     ................
    bc30:	00008c11 ffbf5a8b ffdfffdf ffdfffdf     .....Z..........
    bc40:	f7beffdf d67affff 186320c4 ffffd65a     ......z.. c.Z...
    bc50:	f7fff7de ffdfffff ffdfffde 5aabffff     ...............Z
    bc60:	20840802 10842084 00c508c5 08c500c5     ... . ..........
    bc70:	084210a5 ffff736e ffffffdf ffdfffdf     ..B.ns..........
    bc80:	f7beffdf c5f8ffff 31261042 ffffe71c     ........B.&1....
    bc90:	f7dff7df ffdfffdf ffffffdf 3a09f77e     ............~..:
    bca0:	2b6f0063 25974597 25b82598 25b825b8     c.o+.E.%.%.%.%.%
    bcb0:	25b825b8 25b825b8 25b825b8 25b825b8     .%.%.%.%.%.%.%.%
    bcc0:	25b825b8 25b825b8 25b825b8 25b825b8     .%.%.%.%.%.%.%.%
    bcd0:	25b825b8 25b825b8 25b825b8 25b825b8     .%.%.%.%.%.%.%.%
    bce0:	25b825b8 25b825b8 25b825b8 25b825b8     .%.%.%.%.%.%.%.%
    bcf0:	25b825b8 25b825b8 25b825b8 25b825b8     .%.%.%.%.%.%.%.%
    bd00:	25b825b8 25b825b8 25b825b8 25b825b8     .%.%.%.%.%.%.%.%
    bd10:	25b825b8 25b825b8 1db81db8 155725b8     .%.%.%.%.....%W.
    bd20:	25b825b8 25b825b8 25b825b8 25b825b8     .%.%.%.%.%.%.%.%
    bd30:	25b825b8 25b825b8 25b825b8 25b825b8     .%.%.%.%.%.%.%.%
    bd40:	25b825b8 25b825b8 25b825b8 25b825b8     .%.%.%.%.%.%.%.%
    bd50:	25b825b8 25b825b8 25b825b8 25b825b8     .%.%.%.%.%.%.%.%
    bd60:	25b825b8 25b825b8 25b825b8 25b825b8     .%.%.%.%.%.%.%.%
    bd70:	25b825b8 25b825b8 25b825b8 25b825b8     .%.%.%.%.%.%.%.%
    bd80:	25b825b8 25982598 3d982578 00e53c32     .%.%.%.%x%.=2<..
    bd90:	dedb2126 ffdfffff ffdfffdf ffdfffdf     &!..............
    bda0:	ffdfffdf 18235a2a 20a528a5 18a518a5     ....*Z#..(. ....
    bdb0:	20a518c5 20a420a5 7baf1022 f7bfffff     ... . . "..{....
    bdc0:	ffdfffdf ffdfffdf fffff7df 1042bd97     ..............B.
    bdd0:	ef3d41a7 f7dfffdf ffdfffdf f7dfffdf     .A=.............
    bde0:	f79effdf 08213987 ffffb556 ffdff7be     .....9!.V.......
    bdf0:	ffdfffdf ffbfffdf 8410ffff 62cc0801     ...............b
    be00:	ffdfffff ffdfffdf f7dfffdf fffff7df     ................
    be10:	20c4d65a debb28e4 f7dfffff ffdfffde     Z.. .(..........
    be20:	ffdfffdf ffdfffdf 08015a6b ffff9452     ........kZ..R...
    be30:	ffdff7bf ffdfffdf f7deffdf 9cb3ffff     ................
    be40:	4a290000 ffdff79e ffdfffdf ffdfffdf     ..)J............
    be50:	fffff7bf 3125ef1d c5f81063 f7deffff     ......%1c.......
    be60:	ffdfffdf ffdfffdf ffdff7de b596d69a     ................
    be70:	ffdfd69a ffdfffde ffdfffdf f7beffdf     ................
    be80:	bdb7ffff 39661022 ffffef1d ffdfffdf     ....".f9........
    be90:	ffdfffdf ffdfffff 7baff79e c5f8526a     ...........{jR..
    bea0:	f7deffff ffdfffde ffdfffdf fffff7be     ................
    beb0:	00008c31 ffdf5a8b ffdfffdf f7dfffdf     1....Z..........
    bec0:	ffdfffdf d67affff 186220a3 ffffd65a     ......z.. b.Z...
    bed0:	f7fff7de ffdfffdf ffdfffdf 62ccffff     ...............b
    bee0:	20c51022 198810a4 3bd14390 4bd13bb1     ".. .....C.;.;.K
    bef0:	002229e9 ffff736e ffdfffdf ffdfffdf     .)".ns..........
    bf00:	f7beffdf c5f8ffff 29051042 ffffe6fc     ........B..)....
    bf10:	f7dff7df ffdfffdf ffffffdf 3a09f77e     ............~..:
    bf20:	2b6f0063 25974597 25b82598 25b825b8     c.o+.E.%.%.%.%.%
    bf30:	25b825b8 25b825b8 25b825b8 25b825b8     .%.%.%.%.%.%.%.%
    bf40:	25b825b8 25b825b8 25b825b8 25b825b8     .%.%.%.%.%.%.%.%
    bf50:	25b825b8 25b825b8 25b825b8 25b825b8     .%.%.%.%.%.%.%.%
    bf60:	25b825b8 25b825b8 25b825b8 25b825b8     .%.%.%.%.%.%.%.%
    bf70:	25b825b8 25b825b8 25b825b8 25b825b8     .%.%.%.%.%.%.%.%
    bf80:	25b825b8 25b825b8 25b825b8 25b825b8     .%.%.%.%.%.%.%.%
    bf90:	25b825b8 25b825b8 1db81db8 155725b8     .%.%.%.%.....%W.
    bfa0:	25b825b8 25b825b8 25b825b8 25b825b8     .%.%.%.%.%.%.%.%
    bfb0:	25b825b8 25b825b8 25b825b8 25b825b8     .%.%.%.%.%.%.%.%
    bfc0:	25b825b8 25b825b8 25b825b8 25b825b8     .%.%.%.%.%.%.%.%
    bfd0:	25b825b8 25b825b8 25b825b8 25b825b8     .%.%.%.%.%.%.%.%
    bfe0:	25b825b8 25b825b8 25b825b8 25b825b8     .%.%.%.%.%.%.%.%
    bff0:	25b825b8 25b825b8 25b825b8 25b825b8     .%.%.%.%.%.%.%.%
    c000:	25b825b8 25982598 3d982578 00e53c32     .%.%.%.%x%.=2<..
    c010:	dedb2126 ffdfffff ffdfffdf ffdfffdf     &!..............
    c020:	ffdfffdf 1023522a 088410a5 00850084     ....*R#.........
    c030:	08840085 18a51064 83af1022 f7deffff     ....d...".......
    c040:	ffdfffff ffdfffdf fffff7df 1042bd97     ..............B.
    c050:	ef3d41a8 f7dfffdf ffdfffdf f7dfffdf     .A=.............
    c060:	f77effdf 08013987 ffffb556 ffdff7bf     ..~..9..V.......
    c070:	ffdfffdf f7bfffdf 8410ffff 62cc0801     ...............b
    c080:	ffdfffff ffdfffdf f7dfffdf fffff7df     ................
    c090:	20c4d65a debb28e4 f7dfffff ffdfffdf     Z.. .(..........
    c0a0:	ffdfffdf ffdfffdf 08015a6b ffff9452     ........kZ..R...
    c0b0:	fffff7bf ffdfffdf f7deffdf 9cb3ffff     ................
    c0c0:	4a290000 ffdfff9e ffdfffdf ffdfffdf     ..)J............
    c0d0:	fffff7df 3125ef1d c5f81063 f7deffff     ......%1c.......
    c0e0:	ffdfffdf ffdfffdf f7dfffdf ffffffff     ................
    c0f0:	ffdfffff ffdfffdf ffdfffdf f7beffdf     ................
    c100:	bdb7ffff 39661022 ffffef1d ffdfffdf     ....".f9........
    c110:	fffff7ff ffdfffdf 3986f79e ad150000     ...........9....
    c120:	f7deffff f7def7be ffdfffff fffff7be     ................
    c130:	00008c31 ffdf5a8b ffdfffdf f7dfffdf     1....Z..........
    c140:	ffdfffdf d67affff 186220a3 ffffd65a     ......z.. b.Z...
    c150:	f7fff7de ffdfffff ffdfffdf 62ccffdf     ...............b
    c160:	18a51043 09c90063 45575536 55563d56     C...c...6UWEV=VU
    c170:	00222a6b ffff6b6e ffdfffdf ffdfffdf     k*".nk..........
    c180:	f7beffdf c5f8ffff 29251042 ffffe6fc     ........B.%)....
    c190:	f7dff7df ffdfffdf ffffffdf 3a09f77e     ............~..:
    c1a0:	2b6f0063 25974597 25b82598 25b825b8     c.o+.E.%.%.%.%.%
    c1b0:	25b825b8 25b825b8 25b825b8 25b825b8     .%.%.%.%.%.%.%.%
    c1c0:	25b825b8 25b825b8 25b825b8 25b825b8     .%.%.%.%.%.%.%.%
    c1d0:	25b825b8 25b825b8 25b825b8 25b825b8     .%.%.%.%.%.%.%.%
    c1e0:	25b825b8 25b825b8 25b825b8 25b825b8     .%.%.%.%.%.%.%.%
    c1f0:	25b825b8 25b825b8 25b825b8 25b825b8     .%.%.%.%.%.%.%.%
    c200:	25b825b8 25b825b8 25b825b8 25b825b8     .%.%.%.%.%.%.%.%
    c210:	25b825b8 25b825b8 1db81db8 155725b8     .%.%.%.%.....%W.
    c220:	25b825b8 25b825b8 25b825b8 25b825b8     .%.%.%.%.%.%.%.%
    c230:	25b825b8 25b825b8 25b825b8 25b825b8     .%.%.%.%.%.%.%.%
    c240:	25b825b8 25b825b8 25b825b8 25b825b8     .%.%.%.%.%.%.%.%
    c250:	25b825b8 25b825b8 25b825b8 25b825b8     .%.%.%.%.%.%.%.%
    c260:	25b825b8 25b825b8 25b825b8 25b825b8     .%.%.%.%.%.%.%.%
    c270:	25b825b8 25b825b8 25b825b8 25b825b8     .%.%.%.%.%.%.%.%
    c280:	25b825b8 25982598 3d982578 00e53c32     .%.%.%.%x%.=2<..
    c290:	dedb2126 ffdfffff ffdfffdf ffdfffdf     &!..............
    c2a0:	ffdfffdf 0823522a 3aee21e9 2aee2aee     ....*R#..!.:.*.*
    c2b0:	32cd2aee 21683acd 7bb00822 f7deffff     .*.2.:h!"..{....
    c2c0:	ffdfffff ffdfffdf fffff7df 1042bd97     ..............B.
    c2d0:	ef3d41a8 f7dfffdf ffdfffdf f7dfffdf     .A=.............
    c2e0:	f79effdf 10223987 ffffb556 ffdff7bf     .....9".V.......
    c2f0:	ffdfffdf f7bfffdf 8410ffff 62cc0801     ...............b
    c300:	ffdfffff ffdfffdf f7dfffdf fffff7df     ................
    c310:	20c4d67a debb28e4 f7dfffff ffdfffdf     z.. .(..........
    c320:	ffdff7df ffdfffdf 08015a6b ffff9452     ........kZ..R...
    c330:	ffdff7be ffdfffdf f7deffdf 9cb3ffff     ................
    c340:	524a0801 ffdff79e ffdfffdf ffdfffdf     ..JR............
    c350:	fffff7df 3125ef1d c5d81063 f7beffdf     ......%1c.......
    c360:	ffdfffdf ffdfffdf f7def7de ffdfffdf     ................
    c370:	ffffffdf ffdfffdf ffdfffdf f7beffdf     ................
    c380:	bdb7ffff 39661022 ffffef1d ffdfffdf     ....".f9........
    c390:	f7fff7ff ffdfffdf 41e8ff9e ad351021     ...........A!.5.
    c3a0:	ffdfffff ffdff7de ffdfffff fffff7be     ................
    c3b0:	00008c31 ffdf5a8b ffdfffdf f7dfffdf     1....Z..........
    c3c0:	ffdfffdf d67affff 186220a3 ffffd65a     ......z.. b.Z...
    c3d0:	f7fff7de ffdff7df ffdfffdf 5accffff     ...............Z
    c3e0:	29c90822 239032ee 2d773d37 45572d57     "..).2.#7=w-W-WE
    c3f0:	00221a6b ffff6b6e ffdfffdf ffdfffdf     k.".nk..........
    c400:	ffbeffdf c5f8ffff 31261042 ffffe71c     ........B.&1....
    c410:	f7dff7df ffdfffdf fffff7df 3a09f77e     ............~..:
    c420:	2b6f0063 25974597 25b82598 25b825b8     c.o+.E.%.%.%.%.%
    c430:	25b825b8 25b825b8 25b825b8 25b825b8     .%.%.%.%.%.%.%.%
    c440:	25b825b8 25b825b8 25b825b8 25b825b8     .%.%.%.%.%.%.%.%
    c450:	25b825b8 25b825b8 25b825b8 25b825b8     .%.%.%.%.%.%.%.%
    c460:	25b825b8 25b825b8 25b825b8 25b825b8     .%.%.%.%.%.%.%.%
    c470:	25b825b8 25b825b8 25b825b8 25b825b8     .%.%.%.%.%.%.%.%
    c480:	25b825b8 25b825b8 25b825b8 25b825b8     .%.%.%.%.%.%.%.%
    c490:	25b825b8 25b825b8 1db81db8 155725b8     .%.%.%.%.....%W.
    c4a0:	25b825b8 25b825b8 25b825b8 25b825b8     .%.%.%.%.%.%.%.%
    c4b0:	25b825b8 25b825b8 25b825b8 25b825b8     .%.%.%.%.%.%.%.%
    c4c0:	25b825b8 25b825b8 25b825b8 25b825b8     .%.%.%.%.%.%.%.%
    c4d0:	25b825b8 25b825b8 25b825b8 25b825b8     .%.%.%.%.%.%.%.%
    c4e0:	25b825b8 25b825b8 25b825b8 25b825b8     .%.%.%.%.%.%.%.%
    c4f0:	25b825b8 25b825b8 25b825b8 25b825b8     .%.%.%.%.%.%.%.%
    c500:	25b825b8 25982598 3d982578 00e53c32     .%.%.%.%x%.=2<..
    c510:	dedb2126 ffdfffff ffdfffdf ffdfffdf     &!..............
    c520:	ffffffdf 00634a2a 5d57334f 45774557     ....*Jc.O3W]WEwE
    c530:	4d574577 226c5d57 7bb00043 f7deffff     wEWMW]l"C..{....
    c540:	ffdfffff ffdfffdf fffff7df 1042bd97     ..............B.
    c550:	ef3d41a8 ffdfffff ffdfffdf ffdfffdf     .A=.............
    c560:	f79effdf 00003125 ffffad35 ffdff7be     ....%1..5.......
    c570:	ffdfffdf f7bfffdf 8410ffff 62cc0801     ...............b
    c580:	f7dfffff ffdfffdf ffdfffdf ffffffdf     ................
    c590:	1062d659 de9a18a3 ffdfffff ffdfffdf     Y.b.............
    c5a0:	ffdff7df ffdfffdf 08015a6b ffff9452     ........kZ..R...
    c5b0:	ffdff7be ffdfffdf f7deffdf 94b2ffff     ................
    c5c0:	41e80000 ffdff7be ffdfffdf ffdfffdf     ...A............
    c5d0:	ffffffdf 3125ef1d ce391062 ffffffff     ......%1b.9.....
    c5e0:	f7fff7de ffdfffdf ffdfffdf ffffffdf     ................
    c5f0:	ffdfffdf ffdfffdf ffdfffdf f7beffdf     ................
    c600:	bdb7ffff 39661022 ffffef1d ffdfffdf     ....".f9........
    c610:	ffdfffde ffffffdf 3186f79e ad340000     ...........1..4.
    c620:	f79effff ffdff7be ffdfffdf fffff7be     ................
    c630:	00008c31 ffdf5a8b f7dfffdf f7deffdf     1....Z..........
    c640:	ffdfffdf d67affff 186220a3 ffffd65a     ......z.. b.Z...
    c650:	f7fff7de ffdff7df ffdfffdf 5aecffdf     ...............Z
    c660:	330e0022 3d775d98 25972d77 45572d77     "..3.]w=w-.%w-WE
    c670:	0022228c ffff6b8f ffdfffdf ffdfffdf     .""..k..........
    c680:	ffbeffdf c5d7ffff 20c40801 ffffe6fc     ........... ....
    c690:	ffdfffdf ffdfffdf fffff7df 3a09f77e     ............~..:
    c6a0:	2b6f0063 25974597 25b82598 25b825b8     c.o+.E.%.%.%.%.%
    c6b0:	25b825b8 25b825b8 25b825b8 25b825b8     .%.%.%.%.%.%.%.%
    c6c0:	25b825b8 25b825b8 25b825b8 25b825b8     .%.%.%.%.%.%.%.%
    c6d0:	25b825b8 25b825b8 25b825b8 25b825b8     .%.%.%.%.%.%.%.%
    c6e0:	25b825b8 25b825b8 25b825b8 25b825b8     .%.%.%.%.%.%.%.%
    c6f0:	25b825b8 25b825b8 25b825b8 25b825b8     .%.%.%.%.%.%.%.%
    c700:	25b825b8 25b825b8 25b825b8 25b825b8     .%.%.%.%.%.%.%.%
    c710:	25b825b8 25b825b8 1db81db8 155725b8     .%.%.%.%.....%W.
    c720:	25b825b8 25b825b8 25b825b8 25b825b8     .%.%.%.%.%.%.%.%
    c730:	25b825b8 25b825b8 25b825b8 25b825b8     .%.%.%.%.%.%.%.%
    c740:	25b825b8 25b825b8 25b825b8 25b825b8     .%.%.%.%.%.%.%.%
    c750:	25b825b8 25b825b8 25b825b8 25b825b8     .%.%.%.%.%.%.%.%
    c760:	25b825b8 25b825b8 25b825b8 25b825b8     .%.%.%.%.%.%.%.%
    c770:	25b825b8 25b825b8 25b825b8 25b825b8     .%.%.%.%.%.%.%.%
    c780:	25b825b8 25982598 3d982578 00e53c32     .%.%.%.%x%.=2<..
    c790:	dedb2126 ffdfffff ffdfffdf ffdfffdf     &!..............
    c7a0:	ffffffdf 00434a4a 4577234f 25972d57     ....JJC.O#wEW-.%
    c7b0:	2d772597 128c4536 7bb00043 f7deffff     .%w-6E..C..{....
    c7c0:	ffdfffff ffdfffdf fffff7df 1042bd97     ..............B.
    c7d0:	f73d41a8 ffdfffff ffdfffdf ffdfffff     .A=.............
    c7e0:	f7beffff 4a296b2d ffffc618 ffdfffdf     ....-k)J........
    c7f0:	f7dff7df f7beffdf 8410ffff 62cc0801     ...............b
    c800:	f7dfffff ffdfffdf ffdfffdf ffffffdf     ................
    c810:	5aabdedb e71c5aab f7beffff ffdfffdf     ...Z.Z..........
    c820:	ffdff7df ffdfffdf 08015a6b ffff9452     ........kZ..R...
    c830:	ffdff7be ffdfffff f7dfffdf b596ffff     ................
    c840:	7bcf4208 ffdfffbe ffffffdf ffdfffff     .B.{............
    c850:	ffffffdf 3126ef1d 9c931863 d69ac5f8     ......&1c.......
    c860:	f7bef7de ffdfffdf ffdfffff ffdfffff     ................
    c870:	ffdfffdf ffdfffdf ffdfffdf f7beffdf     ................
    c880:	bdb7ffff 39661022 ffffef1d ffdfffdf     ....".f9........
    c890:	ffdfffff ffdfffdf 738ef79e c5f74a29     ...........s)J..
    c8a0:	f7beffff ffdfffff ffdfffdf ffffffdf     ................
    c8b0:	08008c31 ffdf5a8b ffdfffdf f7deffff     1....Z..........
    c8c0:	ffdfffdf d67affff 186220a4 ffffd65a     ......z.. b.Z...
    c8d0:	f7fff7de ffdff7df ffdfffde 5accffff     ...............Z
    c8e0:	2aed0022 25774577 25982598 45572577     "..*wEw%.%.%w%WE
    c8f0:	00221a8b ffff6b8e ffdff7df ffdfffdf     .."..k..........
    c900:	f7beffdf d679ffff 62ec4a49 ffdfef3d     ......y.IJ.b=...
    c910:	ffdfffdf ffdfffdf fffff7df 3a09f77e     ............~..:
    c920:	2b6f0063 25974597 25b82598 25b825b8     c.o+.E.%.%.%.%.%
    c930:	25b825b8 25b825b8 25b825b8 25b825b8     .%.%.%.%.%.%.%.%
    c940:	25b825b8 25b825b8 25b825b8 25b825b8     .%.%.%.%.%.%.%.%
    c950:	25b825b8 25b825b8 25b825b8 25b825b8     .%.%.%.%.%.%.%.%
    c960:	25b825b8 25b825b8 25b825b8 25b825b8     .%.%.%.%.%.%.%.%
    c970:	25b825b8 25b825b8 25b825b8 25b825b8     .%.%.%.%.%.%.%.%
    c980:	25b825b8 25b825b8 25b825b8 25b825b8     .%.%.%.%.%.%.%.%
    c990:	25b825b8 25b825b8 1db81db8 155725b8     .%.%.%.%.....%W.
    c9a0:	25b825b8 25b825b8 25b825b8 25b825b8     .%.%.%.%.%.%.%.%
    c9b0:	25b825b8 25b825b8 25b825b8 25b825b8     .%.%.%.%.%.%.%.%
    c9c0:	25b825b8 25b825b8 25b825b8 25b825b8     .%.%.%.%.%.%.%.%
    c9d0:	25b825b8 25b825b8 25b825b8 25b825b8     .%.%.%.%.%.%.%.%
    c9e0:	25b825b8 25b825b8 25b825b8 25b825b8     .%.%.%.%.%.%.%.%
    c9f0:	25b825b8 25b825b8 25b825b8 25b825b8     .%.%.%.%.%.%.%.%
    ca00:	25b825b8 259825b8 3d982578 00e53c32     .%.%.%.%x%.=2<..
    ca10:	dedb2126 ffdfffff ffdfffdf ffdfffdf     &!..............
    ca20:	ffffffdf 00434a4a 4597236f 25982d77     ....JJC.o#.Ew-.%
    ca30:	2d772598 128c4557 7bb00043 f7beffff     .%w-WE..C..{....
    ca40:	ffdfffdf ffdfffdf fffff7df 1042bd97     ..............B.
    ca50:	f73e41a8 f7dfffff ffdfffdf ffdfffdf     .A>.............
    ca60:	ffdfffdf ffffffff ffdfffff ffdfffff     ................
    ca70:	f7dff7df f7beffdf 8410ffff 62cc0801     ...............b
    ca80:	f7dfffff fffff7df ffdfffdf ffbfffdf     ................
    ca90:	ffffffdf ffdfffff ffdfffdf ffdfffdf     ................
    caa0:	ffdfffdf ffdfffdf 08015a6b ffff9452     ........kZ..R...
    cab0:	ffdff7be f7dff7df ffdff7df ffdfffdf     ................
    cac0:	ffffffff ffdfffdf ffdfffdf ffdfffdf     ................
    cad0:	fffff7de 3126ef1d 20842063 8c310801     ......&1c . ..1.
    cae0:	ffdfffff ffdeffdf ffffffff ffdfffff     ................
    caf0:	ffdfffdf ffdfffdf ffdfffdf f7beffdf     ................
    cb00:	bdb7ffff 39661022 ffffef1d ffdfffdf     ....".f9........
    cb10:	ffdfffdf ffdfffdf ffffffbf ffdfffff     ................
    cb20:	ffdff7be ffdfffdf f7def7ff fffff7be     ................
    cb30:	08008c31 ffdf5a8b ffdfffdf ffdfffdf     1....Z..........
    cb40:	ffdfffdf d67affff 186320a4 ffffd65a     ......z.. c.Z...
    cb50:	f7fff7de ffdfffdf ffdfffdf 5accffff     ...............Z
    cb60:	2b0d0022 25774577 25b825b8 45772597     "..+wEw%.%.%.%wE
    cb70:	00221a6c ffff6b8e f7fff7df ffdff7df     l."..k..........
    cb80:	f7dfffdf ffdfffdf ffffffff ffdfffdf     ................
    cb90:	ffdfffdf ffdfffdf fffff7df 3a09f77e     ............~..:
    cba0:	2b6f0063 25974597 25b82598 25b825b8     c.o+.E.%.%.%.%.%
    cbb0:	25b825b8 25b825b8 25b825b8 25b825b8     .%.%.%.%.%.%.%.%
    cbc0:	25b825b8 25b825b8 25b825b8 25b825b8     .%.%.%.%.%.%.%.%
    cbd0:	25b825b8 25b825b8 25b825b8 25b825b8     .%.%.%.%.%.%.%.%
    cbe0:	25b825b8 25b825b8 25b825b8 25b825b8     .%.%.%.%.%.%.%.%
    cbf0:	25b825b8 25b825b8 25b825b8 25b825b8     .%.%.%.%.%.%.%.%
    cc00:	25b825b8 25b825b8 25b825b8 25b825b8     .%.%.%.%.%.%.%.%
    cc10:	25b825b8 25b825b8 1db81db8 155725b8     .%.%.%.%.....%W.
    cc20:	25b825b8 25b825b8 25b825b8 25b825b8     .%.%.%.%.%.%.%.%
    cc30:	25b825b8 25b825b8 25b825b8 25b825b8     .%.%.%.%.%.%.%.%
    cc40:	25b825b8 25b825b8 25b825b8 25b825b8     .%.%.%.%.%.%.%.%
    cc50:	25b825b8 25b825b8 25b825b8 25b825b8     .%.%.%.%.%.%.%.%
    cc60:	25b825b8 25b825b8 25b825b8 25b825b8     .%.%.%.%.%.%.%.%
    cc70:	25b825b8 25b825b8 25b825b8 25b825b8     .%.%.%.%.%.%.%.%
    cc80:	25b825b8 25982598 3d982578 00e53c32     .%.%.%.%x%.=2<..
    cc90:	dedb2126 ffdfffff ffdfffdf ffdfffdf     &!..............
    cca0:	ffffffdf 00434a4a 4598236f 25b82d77     ....JJC.o#.Ew-.%
    ccb0:	2d772598 128c4557 7bb00043 f7beffff     .%w-WE..C..{....
    ccc0:	ffdfffdf ffdfffdf fffff7df 1042bd97     ..............B.
    ccd0:	f73e3987 f7dfffff ffdfffdf ffdfffdf     .9>.............
    cce0:	ffdfffff f7def7df ffdfffdf ffdfffdf     ................
    ccf0:	ffdff7df ffdfffde 8410ffff 62cc0801     ...............b
    cd00:	f7dfffff f7dff7df ffffffdf ffbef7be     ................
    cd10:	f7beffdf ffdfffdf ffffffdf ffdfffdf     ................
    cd20:	ffdfffdf ffdfffdf 08015a6b ffff9472     ........kZ..r...
    cd30:	ffdff7bf f7dff7df fffff7df ffdfffdf     ................
    cd40:	f7beffdf ffdfffdf ffdfffdf ffdfffdf     ................
    cd50:	fffff7de 3106ef1d 28a42043 8bf11022     .......1C .("...
    cd60:	ef7dff9f ffdfffdf ffdfffde ffdfffdf     ..}.............
    cd70:	ffdfffdf ffdfffdf ffdfffdf f7beffdf     ................
    cd80:	bdb7ffff 39661022 ffffef1d ffdfffdf     ....".f9........
    cd90:	ffdfffdf ffdfffdf f7bef7be ffdff7be     ................
    cda0:	ffdfffdf ffdff7be f7fff7ff fffff7be     ................
    cdb0:	00008c31 ffdf5a8b ffdfffdf ffdfffdf     1....Z..........
    cdc0:	ffdfffdf d67affff 186320a4 ffffd65a     ......z.. c.Z...
    cdd0:	f7def7de ffdfffdf ffdfffde 5aecffff     ...............Z
    cde0:	2b0e0022 25774577 25b825b8 45572597     "..+wEw%.%.%.%WE
    cdf0:	00221a8c ffff6b8f f7dff7de f7dff7df     .."..k..........
    ce00:	ffdff7df ffdfffdf ffdff7be ffdfffdf     ................
    ce10:	ffdfffdf ffdfffdf fffff7df 3a09f77e     ............~..:
    ce20:	2b6f0063 25974597 25b82598 25b825b8     c.o+.E.%.%.%.%.%
    ce30:	25b825b8 25b825b8 25b825b8 25b825b8     .%.%.%.%.%.%.%.%
    ce40:	25b825b8 25b825b8 25b825b8 25b825b8     .%.%.%.%.%.%.%.%
    ce50:	25b825b8 25b825b8 25b825b8 25b825b8     .%.%.%.%.%.%.%.%
    ce60:	25b825b8 25b825b8 25b825b8 25b825b8     .%.%.%.%.%.%.%.%
    ce70:	25b825b8 25b825b8 25b825b8 25b825b8     .%.%.%.%.%.%.%.%
    ce80:	25b825b8 25b825b8 25b825b8 25b825b8     .%.%.%.%.%.%.%.%
    ce90:	25b825b8 25b825b8 1db81db8 155725b8     .%.%.%.%.....%W.
    cea0:	25b825b8 25b825b8 25b825b8 25b825b8     .%.%.%.%.%.%.%.%
    ceb0:	25b825b8 25b825b8 25b825b8 25b825b8     .%.%.%.%.%.%.%.%
    cec0:	25b825b8 25b825b8 25b825b8 25b825b8     .%.%.%.%.%.%.%.%
    ced0:	25b825b8 25b825b8 25b825b8 25b825b8     .%.%.%.%.%.%.%.%
    cee0:	25b825b8 25b825b8 25b825b8 25b825b8     .%.%.%.%.%.%.%.%
    cef0:	25b825b8 25b825b8 25b825b8 25b825b8     .%.%.%.%.%.%.%.%
    cf00:	25b825b8 25982598 3d982578 00e53c32     .%.%.%.%x%.=2<..
    cf10:	dedb2126 ffdfffff ffdfffdf ffdfffdf     &!..............
    cf20:	ffffffdf 00434a4a 4598236f 25b82d77     ....JJC.o#.Ew-.%
    cf30:	2d772598 128c4557 7bb00043 f7beffff     .%w-WE..C..{....
    cf40:	ffdfffdf ffdfffdf fffff7de 1042bd97     ..............B.
    cf50:	ef3d41a8 f7deffff f7dff7df f7dfffff     .A=.............
    cf60:	f7dfffdf f7dff7df ffdfffdf ffdfffdf     ................
    cf70:	ffdfffdf f7beffdf 8410ffff 62cc0801     ...............b
    cf80:	f7dfffff ffdfffdf ffdfffdf ffdfffdf     ................
    cf90:	ffdff7be ffdfffdf ffdfffdf ffdfffdf     ................
    cfa0:	ffdfffdf ffdfffdf 08015a6a ffff9452     ........jZ..R...
    cfb0:	ffdff7bf ffdfffdf ffdfffdf ffdfffdf     ................
    cfc0:	f7beffdf ffffffdf f7dff7de ffdff7df     ................
    cfd0:	fffff7be 3126ef1d 20841843 31262084     ......&1C.. . &1
    cfe0:	62ec3987 ffffffdf f7dff7df ffdfffdf     .9.b............
    cff0:	ffdfffdf f7ffffff ffdfffdf f7beffdf     ................
    d000:	bdb7ffff 31461022 ffffef3d ffdfffdf     ....".F1=.......
    d010:	ffdfffdf ffdfffff f7def7de ffdfffdf     ................
    d020:	f7dfffdf ffdfffff f7def7ff fffff7be     ................
    d030:	00008c11 ffdf5a8b ffdfffdf f7dfffdf     .....Z..........
    d040:	ffdfffdf d67affff 186220a4 ffffd65a     ......z.. b.Z...
    d050:	f7fff7de ffdfffdf ffdfffde 5aecffff     ...............Z
    d060:	2b0e0042 25774577 259825b8 45572577     B..+wEw%.%.%w%WE
    d070:	00221a8c ffff6b6f ffdff7bf fffff7df     ..".ok..........
    d080:	fffff7df ffdfffdf f7dfffdf ffdff7de     ................
    d090:	ffdfffdf ffdfffdf fffff7df 3a09f77e     ............~..:
    d0a0:	2b6f0063 25974597 25b82598 25b825b8     c.o+.E.%.%.%.%.%
    d0b0:	25b825b8 25b825b8 25b825b8 25b825b8     .%.%.%.%.%.%.%.%
    d0c0:	25b825b8 25b825b8 25b825b8 25b825b8     .%.%.%.%.%.%.%.%
    d0d0:	25b825b8 25b825b8 25b825b8 25b825b8     .%.%.%.%.%.%.%.%
    d0e0:	25b825b8 25b825b8 25b825b8 25b825b8     .%.%.%.%.%.%.%.%
    d0f0:	25b825b8 25b825b8 25b825b8 25b825b8     .%.%.%.%.%.%.%.%
    d100:	25b825b8 25b825b8 25b825b8 25b825b8     .%.%.%.%.%.%.%.%
    d110:	25b825b8 25b825b8 1db81db8 155725b8     .%.%.%.%.....%W.
    d120:	25b825b8 25b825b8 25b825b8 25b825b8     .%.%.%.%.%.%.%.%
    d130:	25b825b8 25b825b8 25b825b8 25b825b8     .%.%.%.%.%.%.%.%
    d140:	25b825b8 25b825b8 25b825b8 25b825b8     .%.%.%.%.%.%.%.%
    d150:	25b825b8 25b825b8 25b825b8 25b825b8     .%.%.%.%.%.%.%.%
    d160:	25b825b8 25b825b8 25b825b8 25b825b8     .%.%.%.%.%.%.%.%
    d170:	25b825b8 25b825b8 25b825b8 25b825b8     .%.%.%.%.%.%.%.%
    d180:	25b825b8 25982598 3d782597 00e53c32     .%.%.%.%.%x=2<..
    d190:	dedb2126 ffdfffff ffdfffdf ffdfffff     &!..............
    d1a0:	ffffffdf 00434a4a 4598236f 25982d77     ....JJC.o#.Ew-.%
    d1b0:	2d772598 128c4557 7bb00043 f7beffff     .%w-WE..C..{....
    d1c0:	ffdfffdf ffdfffdf fffff7df 1022b596     ..............".
    d1d0:	ff7e41c8 ffdfffff f7dfffdf f7dff7df     .A~.............
    d1e0:	ffdfffdf f7dff7df f7dff7df ffdfffdf     ................
    d1f0:	ffdfffdf f7beffdf 8410ffff 62cc0801     ...............b
    d200:	f7dfffff ffdfffff ffdfffdf ffdfffdf     ................
    d210:	ffdfffdf ffdfffff ffdfffdf ffdfffdf     ................
    d220:	ffdfffdf ffffffff 0801628b ffff9472     .........b..r...
    d230:	ffdff7bf ffdfffdf ffdfffdf ffdfffdf     ................
    d240:	ffdfffdf ffdfffdf f7dff7df ffdff7be     ................
    d250:	ffffffdf 3147f75e 10841884 08840864     ....^.G1....d...
    d260:	41e90802 ffffffff ffffffff ffffffff     ...A............
    d270:	ffdfffff f7ffffdf ffdfffdf f7beffdf     ................
    d280:	bdb7ffff 39661022 ffffef1d ffdfffdf     ....".f9........
    d290:	ffdfffdf ffdfffdf ffdff7ff ffdfffdf     ................
    d2a0:	ffdfffff ffffffdf f7dfffde ffffffff     ................
    d2b0:	08009431 ffdf5a8b ffdfffdf f7dfffdf     1....Z..........
    d2c0:	ffdfffdf d67affff 186320a4 ffffd65a     ......z.. c.Z...
    d2d0:	f7fff7de ffdfffdf ffdfffde 5aecffff     ...............Z
    d2e0:	2b0e0042 25774577 25982598 45572d77     B..+wEw%.%.%w-WE
    d2f0:	00221a6c ffff738f ffdfffff f7dfffdf     l."..s..........
    d300:	f7dff7df ffffffff f7dff7df ffdfffdf     ................
    d310:	ffdfffdf ffdfffdf fffff7df 3a09f77e     ............~..:
    d320:	2b6f0063 25974597 25b82598 25b825b8     c.o+.E.%.%.%.%.%
    d330:	25b825b8 25b825b8 25b825b8 25b825b8     .%.%.%.%.%.%.%.%
    d340:	25b825b8 25b825b8 25b825b8 25b825b8     .%.%.%.%.%.%.%.%
    d350:	25b825b8 25b825b8 25b825b8 25b825b8     .%.%.%.%.%.%.%.%
    d360:	25b825b8 25b825b8 25b825b8 25b825b8     .%.%.%.%.%.%.%.%
    d370:	25b825b8 25b825b8 25b825b8 25b825b8     .%.%.%.%.%.%.%.%
    d380:	25b825b8 25b825b8 25b825b8 25b825b8     .%.%.%.%.%.%.%.%
    d390:	25b825b8 25b825b8 1db81db8 155725b8     .%.%.%.%.....%W.
    d3a0:	25b825b8 25b825b8 25b825b8 25b825b8     .%.%.%.%.%.%.%.%
    d3b0:	25b825b8 25b825b8 25b825b8 25b825b8     .%.%.%.%.%.%.%.%
    d3c0:	25b825b8 25b825b8 25b825b8 25b825b8     .%.%.%.%.%.%.%.%
    d3d0:	25b825b8 25b825b8 25b825b8 25b825b8     .%.%.%.%.%.%.%.%
    d3e0:	25b825b8 25b825b8 25b825b8 25b825b8     .%.%.%.%.%.%.%.%
    d3f0:	25b825b8 25b825b8 25b825b8 25b825b8     .%.%.%.%.%.%.%.%
    d400:	25b81db8 259825b8 3d972597 00e53c32     ...%.%.%.%.=2<..
    d410:	dedb2126 ffdfffff ffffffdf ffdfffdf     &!..............
    d420:	ffffffdf 00634a4a 4598236f 25982d78     ....JJc.o#.Ex-.%
    d430:	2d772598 128c4557 7bb00043 f7beffff     .%w-WE..C..{....
    d440:	ffdfffdf ffdfffdf fffff7df 1042bd97     ..............B.
    d450:	6acd28e5 d67a6aec f7dfffdf f7dff7df     .(.j.jz.........
    d460:	f7dff7de ffdfffdf ffdfffdf ffdfffdf     ................
    d470:	ffdfffdf f7beffdf 8410ffff 62cc0801     ...............b
    d480:	f7dfffff ffdfffdf ffdfffdf ffdfffdf     ................
    d490:	ffdfffdf ffdfffdf ffdfffdf f7beffdf     ................
    d4a0:	e71cffdf 6aec6b2d 10023946 ffff9452     ....-k.jF9..R...
    d4b0:	ffdff7bf ffdfffdf ffdfffdf ffdfffdf     ................
    d4c0:	ffdfffdf f7dfffdf f7deffff ffdff7de     ................
    d4d0:	62ccce39 20c562cd 3acd08c5 2a6b4bb0     9..b.b. ...:.Kk*
    d4e0:	31470884 6b0d6b0d 6aed6aed 5aab6b0d     ..G1.k.k.j.j.k.Z
    d4f0:	ffff9cd3 ffdfffde ffdfffdf f7beffdf     ................
    d500:	bdb7ffff 39661022 ffffef1d ffffffdf     ....".f9........
    d510:	ffdfffdf ffdfffdf ffdfffdf ffdfffdf     ................
    d520:	ffdfffdf ffdfffdf f79ef7be 62ec8c51     ............Q..b
    d530:	100149e9 ffdf5a6a ffdfffdf f7dfffdf     .I..jZ..........
    d540:	ffdfffdf d67affff 186320a4 ffffd65a     ......z.. c.Z...
    d550:	f7fff7df ffdfffdf ffdfffde 5accffff     ...............Z
    d560:	2b0d0022 25774577 259825b8 45572d77     "..+wEw%.%.%w-WE
    d570:	0084126c 6b0d39c8 ef7e7baf f7dff7be     l....9.k.{~.....
    d580:	f7dff7df ffdfffdf fffff7ff ffdfffdf     ................
    d590:	ffdfffdf ffdfffdf fffff7df 3a09f77e     ............~..:
    d5a0:	2b6f0063 25974597 25b82598 25b825b8     c.o+.E.%.%.%.%.%
    d5b0:	25b825b8 25b825b8 25b825b8 25b825b8     .%.%.%.%.%.%.%.%
    d5c0:	25b825b8 25b825b8 25b825b8 25b825b8     .%.%.%.%.%.%.%.%
    d5d0:	25b825b8 25b825b8 25b825b8 25b825b8     .%.%.%.%.%.%.%.%
    d5e0:	25b825b8 25b825b8 25b825b8 25b825b8     .%.%.%.%.%.%.%.%
    d5f0:	25b825b8 25b825b8 25b825b8 25b825b8     .%.%.%.%.%.%.%.%
    d600:	25b825b8 25b825b8 25b825b8 25b825b8     .%.%.%.%.%.%.%.%
    d610:	25b825b8 25b825b8 1db81db8 155725b8     .%.%.%.%.....%W.
    d620:	25b825b8 25b825b8 25b825b8 25b825b8     .%.%.%.%.%.%.%.%
    d630:	25b825b8 25b825b8 25b825b8 25b825b8     .%.%.%.%.%.%.%.%
    d640:	25b825b8 25b825b8 25b825b8 25b825b8     .%.%.%.%.%.%.%.%
    d650:	25b825b8 25b825b8 25b825b8 25b825b8     .%.%.%.%.%.%.%.%
    d660:	25b825b8 25b825b8 25b825b8 25b825b8     .%.%.%.%.%.%.%.%
    d670:	25b825b8 25b825b8 25b825b8 25b825b8     .%.%.%.%.%.%.%.%
    d680:	1db81db8 25982598 3d972597 00e53c32     .....%.%.%.=2<..
    d690:	dedb2126 ffdfffff ffdfffdf ffdfffdf     &!..............
    d6a0:	ffffffdf 00434a4a 4598236f 25982d78     ....JJC.o#.Ex-.%
    d6b0:	2d772598 128c4557 7bb00043 f7beffff     .%w-WE..C..{....
    d6c0:	ffdfffdf ffdfffdf fffff7df 1863b596     ..............c.
    d6d0:	18222084 c5f80801 ffffffff ffdff7df     . ".............
    d6e0:	f7dff7df ffdfffff ffdfffff ffdfffdf     ................
    d6f0:	ffdfffdf f7beffdf 8410ffff 62cc0801     ...............b
    d700:	f7dfffff ffdfffdf ffdfffdf ffdfffdf     ................
    d710:	f7dff7df ffdfffdf ffdfffdf ffffffdf     ................
    d720:	e6fcffff 10011862 18222064 ffff9452     ....b...d ".R...
    d730:	ffdff7bf ffdfffff ffdfffdf ffdfffdf     ................
    d740:	f7dff7df ffdfffdf ffdef7df ffffffff     ................
    d750:	0802bd97 00640822 43f100c5 232e6db8     ....".d....C.m.#
    d760:	08840084 10010822 10021002 00001022     ...."......."...
    d770:	ffff62cc ffdff7be ffdfffdf f7beffdf     .b..............
    d780:	bdb7ffff 39661022 ffffef1d ffdfffdf     ....".f9........
    d790:	ffdeffdf ffdfffdf ffdfffdf ffdfffdf     ................
    d7a0:	ffdfffdf ffdfffdf ffffffff 0801524a     ............JR..
    d7b0:	10222084 ffdf5a6b ffdfffdf f7dfffdf     . ".kZ..........
    d7c0:	ffdfffdf d67affff 186320a4 ffffd65a     ......z.. c.Z...
    d7d0:	f7fff7be ffdfffdf ffdfffde 5accffff     ...............Z
    d7e0:	2b0d0022 25774597 259825b8 3d772577     "..+.Ew%.%.%w%w=
    d7f0:	00840a6b 00010884 ffdf3167 ffdfffff     k.......g1......
    d800:	f7dff7df ffdfffdf f7ffffff ffdfffdf     ................
    d810:	ffffffdf ffdfffdf ffffffdf 3a09f79e     ...............:
    d820:	2b6f0063 25974597 25b82598 25b825b8     c.o+.E.%.%.%.%.%
    d830:	25b825b8 25b825b8 25b825b8 25b825b8     .%.%.%.%.%.%.%.%
    d840:	25b825b8 25b825b8 25b825b8 25b825b8     .%.%.%.%.%.%.%.%
    d850:	25b825b8 25b825b8 25b825b8 25b825b8     .%.%.%.%.%.%.%.%
    d860:	25b825b8 25b825b8 25b825b8 25b825b8     .%.%.%.%.%.%.%.%
    d870:	25b825b8 25b825b8 25b825b8 25b825b8     .%.%.%.%.%.%.%.%
    d880:	25b825b8 25b825b8 25b825b8 25b825b8     .%.%.%.%.%.%.%.%
    d890:	25b825b8 25b825b8 1db81db8 155725b8     .%.%.%.%.....%W.
    d8a0:	25b825b8 25b825b8 25b825b8 25b825b8     .%.%.%.%.%.%.%.%
    d8b0:	25b825b8 25b825b8 25b825b8 25b825b8     .%.%.%.%.%.%.%.%
    d8c0:	25b825b8 25b825b8 25b825b8 25b825b8     .%.%.%.%.%.%.%.%
    d8d0:	25b825b8 25b825b8 25b825b8 25b825b8     .%.%.%.%.%.%.%.%
    d8e0:	25b825b8 25b825b8 25b825b8 25b825b8     .%.%.%.%.%.%.%.%
    d8f0:	25b825b8 25b825b8 25b825b8 25b825b8     .%.%.%.%.%.%.%.%
    d900:	1db81db8 25982598 3d772597 00e53c32     .....%.%.%w=2<..
    d910:	debb1926 f7beffff f7dff7de ffdfffdf     &...............
    d920:	ffdfffdf 0043524a 4598236f 25982d77     ....JRC.o#.Ew-.%
    d930:	2d7725b8 128c4556 7bb00043 f79effff     .%w-VE..C..{....
    d940:	ffdfffdf ffdfffdf fffff7be 1863b576     ............v.c.
    d950:	20a420a4 8bf120a4 ce39a4f4 f7beffff     . . . ....9.....
    d960:	f7beffde ffdfffdf ffdff7be ffdfffdf     ................
    d970:	ffdfffdf f7beffdf 8410ffff 62cc0801     ...............b
    d980:	f7dfffff f7dfffdf ffdfffdf f7dff7df     ................
    d990:	ffdeffdf f7def7de f7def7df debbffff     ................
    d9a0:	9452a4f4 208428e5 18222884 ffff9431     ..R..(. .(".1...
    d9b0:	ffdff7be ffdfffdf ffdfffdf ffdfffdf     ................
    d9c0:	f7dfffdf f7deffde fffff7be a4f4c618     ................
    d9d0:	18a57b90 2a6b1106 349412cd 24124557     .{....k*...4WE.$
    d9e0:	222a1aad 20a518c5 28a528a5 104228c5     ..*"... .(.(.(B.
    d9f0:	ffff734e ffdfffdf ffdfffdf f7deffdf     Ns..............
    da00:	bdb7ffff 39661042 ffffe71c f7def7be     ....B.f9........
    da10:	ffdff7df ffdfffdf ffdfffdf ffdff7be     ................
    da20:	ffdfffde ef7effdf a4d4ad35 208449c8     ......~.5....I. 
    da30:	182228c5 ffbf5a6b f7dfffdf f7beffdf     .(".kZ..........
    da40:	f7bef7df d65affff 186320a4 ffffd65a     ......Z.. c.Z...
    da50:	ffdff7be f7dfffdf ffdef7de 5aecffdf     ...............Z
    da60:	2b0e0022 25974597 259825b8 35772597     "..+.E.%.%.%.%w5
    da70:	1acc1bd0 108421ea 9c943167 e6fca514     .....!..g1......
    da80:	f7deffdf ffdef7de f7def7de ffdfffdf     ................
    da90:	f7dff7de ffdfffdf fffff7df 3a09f77e     ............~..:
    daa0:	2b6f0063 25974597 25b82598 25b825b8     c.o+.E.%.%.%.%.%
    dab0:	25b825b8 25b825b8 25b825b8 25b825b8     .%.%.%.%.%.%.%.%
    dac0:	25b825b8 25b825b8 25b825b8 25b825b8     .%.%.%.%.%.%.%.%
    dad0:	25b825b8 25b825b8 25b825b8 25b825b8     .%.%.%.%.%.%.%.%
    dae0:	25b825b8 25b825b8 25b825b8 25b825b8     .%.%.%.%.%.%.%.%
    daf0:	25b825b8 25b825b8 25b825b8 25b825b8     .%.%.%.%.%.%.%.%
    db00:	25b825b8 25b825b8 25b825b8 25b825b8     .%.%.%.%.%.%.%.%
    db10:	25b825b8 25b825b8 1db81db8 155725b8     .%.%.%.%.....%W.
    db20:	25b825b8 25b825b8 25b825b8 25b825b8     .%.%.%.%.%.%.%.%
    db30:	25b825b8 25b825b8 25b825b8 25b825b8     .%.%.%.%.%.%.%.%
    db40:	25b825b8 25b825b8 25b825b8 25b825b8     .%.%.%.%.%.%.%.%
    db50:	25b825b8 25b825b8 25b825b8 25b825b8     .%.%.%.%.%.%.%.%
    db60:	25b825b8 25b825b8 25b825b8 25b825b8     .%.%.%.%.%.%.%.%
    db70:	25b825b8 25b825b8 25b825b8 25b825b8     .%.%.%.%.%.%.%.%
    db80:	25b81db8 25b825b8 3d772597 00e53c32     ...%.%.%.%w=2<..
    db90:	e6fc2126 ffffffff ffffffff ffffffff     &!..............
    dba0:	ffffffff 0043524b 4597234f 25982d77     ....KRC.O#.Ew-.%
    dbb0:	2d772598 128b4556 83d00043 ffdfffff     .%w-VE..C.......
    dbc0:	ffffffff ffffffff ffffffff 1863bd97     ..............c.
    dbd0:	186420a5 10631084 83f00001 ffffffff     . d...c.........
    dbe0:	ffffffff ffffffff ffffffff ffffffff     ................
    dbf0:	ffffffff ffdfffff 8c11ffff 62cb0801     ...............b
    dc00:	ffdfffff ffdfffdf ffdfffdf f7bff7bf     ................
    dc10:	ffffffdf ffffffff ffffffff b576ffff     ..............v.
    dc20:	10630801 10841084 10222084 ffff9452     ..c...... ".R...
    dc30:	ffdfffdf ffdfffdf ffdfffdf ffffffdf     ................
    dc40:	ffffffff ffffffff ffffffff 0000736e     ............ns..
    dc50:	00841084 54b50147 35574d57 35573577     ....G..TWMW5w5W5
    dc60:	4c325578 188408c5 18231843 08011863     xU2L....C.#.c...
    dc70:	ffff62ec ffdff7bf ffdfffdf f7beffdf     .b..............
    dc80:	bdb7ffff 39671842 ffffef3d ffffffff     ....B.g9=.......
    dc90:	ffffffff ffffffff ffffffff ffffffff     ................
    dca0:	ffffffff e6fcffff 082228e5 10841083     .........(".....
    dcb0:	10022084 ffff5a6b ffffffff ffffffff     . ..kZ..........
    dcc0:	ffffffff de9bffff 186320a4 ffffd65a     ......... c.Z...
    dcd0:	ffffffff ffffffff ffffffff 5b0dffff     ...............[
    dce0:	2b0e0042 25974597 25b82598 2d972598     B..+.E.%.%.%.%.-
    dcf0:	55973576 00843b6f 104310a4 ce390822     v5.Uo;....C.".9.
    dd00:	ffffffff ffffffff ffffffff ffffffff     ................
    dd10:	ffffffff ffffffff ffffffff 420affbf     ...............B
    dd20:	2b6f0063 25974597 25b82598 25b825b8     c.o+.E.%.%.%.%.%
    dd30:	25b825b8 25b825b8 25b825b8 25b825b8     .%.%.%.%.%.%.%.%
    dd40:	25b825b8 25b825b8 25b825b8 25b825b8     .%.%.%.%.%.%.%.%
    dd50:	25b825b8 25b825b8 25b825b8 25b825b8     .%.%.%.%.%.%.%.%
    dd60:	25b825b8 25b825b8 25b825b8 25b825b8     .%.%.%.%.%.%.%.%
    dd70:	25b825b8 25b825b8 25b825b8 25b825b8     .%.%.%.%.%.%.%.%
    dd80:	25b825b8 25b825b8 25b825b8 25b825b8     .%.%.%.%.%.%.%.%
    dd90:	25b825b8 25b825b8 1db81db8 155725b8     .%.%.%.%.....%W.
    dda0:	25b825b8 25b825b8 25b825b8 25b825b8     .%.%.%.%.%.%.%.%
    ddb0:	25b825b8 25b825b8 25b825b8 25b825b8     .%.%.%.%.%.%.%.%
    ddc0:	25b825b8 25b825b8 25b825b8 25b825b8     .%.%.%.%.%.%.%.%
    ddd0:	25b825b8 25b825b8 25b825b8 25b825b8     .%.%.%.%.%.%.%.%
    dde0:	25b825b8 25b825b8 25b825b8 25b825b8     .%.%.%.%.%.%.%.%
    ddf0:	25b825b8 25b825b8 25b825b8 25b825b8     .%.%.%.%.%.%.%.%
    de00:	25b825b8 25b82598 35772598 01063c32     .%.%.%.%.%w52<..
    de10:	bdb81926 debbe6dc debbdebb debbe6bb     &...............
    de20:	e6dcdebb 004349ea 4597236f 25982d77     .....IC.o#.Ew-.%
    de30:	2d772598 128b4556 6b2e0063 de9be6dc     .%w-VE..c..k....
    de40:	debcde9b debcdebc e6fdde9b 1863a4b4     ..............c.
    de50:	194718c6 19061968 7b6f0822 debbe6dc     ..G.h...".o{....
    de60:	e6bbde9b e6bbe6bb e6bbe6bb debbe6bb     ................
    de70:	e6bbdedb de9bde9b 7b4fe6dc 62cb0801     ..........O{...b
    de80:	ffdfffff ffdfffdf ffdfffdf ffdff7bf     ................
    de90:	dedbf79e debbdebb de9bdebb a4b4e6dc     ................
    dea0:	18c51063 19881967 104318e5 ffff9452     c...g.....C.R...
    deb0:	ffdfffdf f7dff7df ffdfffdf ef5dffdf     ..............].
    dec0:	e6bbdedb de9bdebb e6dcde9b 0822732e     .............s".
    ded0:	09881926 3cd5022a 2d983577 2d772598     &...*..<w5.-.%w-
    dee0:	3c323d77 18a400c5 41c93988 398749e9     w=2<.....9.A.I.9
    def0:	ffff83f0 ffdff7bf ffdfffdf f7beffdf     ................
    df00:	bd97ffff 39261822 e6dcce19 debbdebb     ....".&9........
    df10:	debbdebb e6bbdebb debbdebb e6bbe6bb     ................
    df20:	debbdebb cdf9e6dc 10a42906 19881967     .........)..g...
    df30:	08231906 debc522a debbdebb debbdebb     ..#.*R..........
    df40:	debbdebb bd97e6dc 20642084 e6ddbd57     ......... d W...
    df50:	debbdebb debbe6bb de9bde9b 52acdebc     ...............R
    df60:	2b0e0043 25974597 25b82598 25b725b8     C..+.E.%.%.%.%.%
    df70:	35972597 01a823f1 10a51188 b5561884     .%.5.#........V.
    df80:	de9be6dc debbde9b debbdebb debbdebb     ................
    df90:	debbdebb debbdebb debbde9b 39c8de7b     ............{..9
    dfa0:	2b6f0084 25974597 1db825b8 25b825b8     ..o+.E.%.%...%.%
    dfb0:	25b825b8 25b825b8 25b825b8 25b825b8     .%.%.%.%.%.%.%.%
    dfc0:	25b825b8 25b825b8 25b825b8 25b825b8     .%.%.%.%.%.%.%.%
    dfd0:	25b825b8 25b825b8 25b825b8 25b825b8     .%.%.%.%.%.%.%.%
    dfe0:	25b825b8 25b825b8 25b825b8 25b825b8     .%.%.%.%.%.%.%.%
    dff0:	25b825b8 25b825b8 25b825b8 25b825b8     .%.%.%.%.%.%.%.%
    e000:	25b825b8 25b825b8 25b825b8 25b825b8     .%.%.%.%.%.%.%.%
    e010:	25b825b8 25b825b8 1db81db8 155725b8     .%.%.%.%.....%W.
    e020:	25b825b8 25b825b8 25b825b8 25b825b8     .%.%.%.%.%.%.%.%
    e030:	25b825b8 25b825b8 25b825b8 25b825b8     .%.%.%.%.%.%.%.%
    e040:	25b825b8 25b825b8 25b825b8 25b825b8     .%.%.%.%.%.%.%.%
    e050:	25b825b8 25b825b8 25b825b8 25b825b8     .%.%.%.%.%.%.%.%
    e060:	25b825b8 25b825b8 25b825b8 25b825b8     .%.%.%.%.%.%.%.%
    e070:	25b825b8 25b825b8 25b825b8 25b825b8     .%.%.%.%.%.%.%.%
    e080:	25b825b8 25981db8 35772598 01063c32     .%.%...%.%w52<..
    e090:	290510c4 29052905 29052905 290528e5     ...).).).).).(.)
    e0a0:	290628e5 00a520a5 3d771b4f 25982d77     .(.). ..O.w=w-.%
    e0b0:	2d772598 126b4536 20c400a4 28e52905     .%w-6Ek.... .).(
    e0c0:	28e528e5 290528e6 29062906 188428c5     .(.(.(.).).).(..
    e0d0:	64121947 19c96cb4 20e50884 28e52906     G..d.l..... .).(
    e0e0:	28e52906 28e52905 28e52905 290528e5     .).(.).(.).(.(.)
    e0f0:	28e52905 28e628e5 28c530e6 62ab1001     .).(.(.(.0.(...b
    e100:	ffdfffff ffdfffdf ffdfffdf fffff7be     ................
    e110:	3125d67a 290528e5 28e52905 20e52906     z.%1.(.).).(.). 
    e120:	114708a4 64945c73 004229c9 ffff8c72     ..G.s\.d.)B.r...
    e130:	ffdfffdf f7dff7df f7def7df a4d3ffff     ................
    e140:	31051883 28e528e5 290528e5 088420c5     ...1.(.(.(.). ..
    e150:	54d51a2a 35573cf5 1d972d98 259725b8     *..T.<W5.-...%.%
    e160:	34733d98 210500c5 f77ed67b ef5ef75e     .=s4...!{.~.^.^.
    e170:	ffdff79e ffdfffdf ffdfffdf f7beffdf     ................
    e180:	bd97ffff 20842043 28e528e5 29052905     ....C . .(.(.).)
    e190:	29052905 290528e5 29052905 28e528e5     .).).(.).).).(.(
    e1a0:	28e528e5 29062905 08c518a5 6cf543b0     .(.(.).).....C.l
    e1b0:	08643a6c 28e520c5 28e52905 28e528e5     l:d.. .(.).(.(.(
    e1c0:	28e528e5 28c530e5 20642084 310628c5     .(.(.0.(. d .(.1
    e1d0:	290528e5 29052905 28e628c5 18c528e5     .(.).).).(.(.(..
    e1e0:	22ed00a4 25774598 25b82597 1db81d98     ...".Ew%.%.%....
    e1f0:	25771db7 44f53556 09264c32 28e610a4     ..w%V5.D2L&....(
    e200:	28e530e5 28e528e5 29052905 29052905     .0.(.(.(.).).).)
    e210:	290528e5 290528e5 28e52905 18c528e5     .(.).(.).).(.(..
    e220:	2b4f00a4 25974597 1db825b8 25b825b8     ..O+.E.%.%...%.%
    e230:	25b825b8 25b825b8 25b825b8 25b825b8     .%.%.%.%.%.%.%.%
    e240:	25b825b8 25b825b8 25b825b8 25b825b8     .%.%.%.%.%.%.%.%
    e250:	25b825b8 25b825b8 25b825b8 25b825b8     .%.%.%.%.%.%.%.%
    e260:	25b825b8 25b825b8 25b825b8 25b825b8     .%.%.%.%.%.%.%.%
    e270:	25b825b8 25b825b8 25b825b8 25b825b8     .%.%.%.%.%.%.%.%
    e280:	25b825b8 25b825b8 25b825b8 25b825b8     .%.%.%.%.%.%.%.%
    e290:	25b825b8 25b825b8 1db81db8 155725b8     .%.%.%.%.....%W.
    e2a0:	25b825b8 25b825b8 25b825b8 25b825b8     .%.%.%.%.%.%.%.%
    e2b0:	25b825b8 25b825b8 25b825b8 25b825b8     .%.%.%.%.%.%.%.%
    e2c0:	25b825b8 25b825b8 25b825b8 25b825b8     .%.%.%.%.%.%.%.%
    e2d0:	25b825b8 25b825b8 25b825b8 25b825b8     .%.%.%.%.%.%.%.%
    e2e0:	25b825b8 25b825b8 25b825b8 25b825b8     .%.%.%.%.%.%.%.%
    e2f0:	25b825b8 25b825b8 25b825b8 25b825b8     .%.%.%.%.%.%.%.%
    e300:	25982598 25982598 3d982598 01063c32     .%.%.%.%.%.=2<..
    e310:	208410a4 20841863 20632063 20632063     ... c.. c c c c 
    e320:	18642063 00a518a5 4597236f 25982d77     c d.....o#.Ew-.%
    e330:	2d7725b8 126b4557 188408a4 18631863     .%w-WEk.....c.c.
    e340:	18631863 18642064 18841864 10842064     c.c.d d.d...d ..
    e350:	54b40988 024b5d36 08e500e5 18841084     ...T6]K.........
    e360:	18631864 18632064 18632063 18631863     d.c.d c.c c.c.c.
    e370:	18631863 18632064 20842064 62ab1822     c.c.d c.d . "..b
    e380:	ffdfffff ffdfffdf ffdfffdf fffff7de     ................
    e390:	20a4d639 20641863 18841864 08c51084     9.. c.d d.......
    e3a0:	01a800e5 5d164cf6 00421a0a ffff8c72     .....L.]..B.r...
    e3b0:	ffdfffbf f7dff7df f7def7ff 9c92ffff     ................
    e3c0:	20831001 20642064 10841884 00e508c5     ... d d ........
    e3d0:	45570a8c 25773577 25b825b8 25972598     ..WEw5w%.%.%.%.%
    e3e0:	34733d98 210500c4 ffffdefc ffffffdf     .=s4...!........
    e3f0:	f7deffff ffdff7df ffdfffdf f7bfffdf     ................
    e400:	bd97ffff 20841863 20642063 20642043     ....c.. c d C d 
    e410:	18632063 18632063 18632063 18632063     c c.c c.c c.c c.
    e420:	18832063 10a41884 012700c5 65573c12     c ........'..<We
    e430:	086432ad 206320a4 20632063 20632064     .2d.. c c c d c 
    e440:	20631863 20632063 20642064 20642064     c.c c c d d d d 
    e450:	20642064 18642064 20642064 18a41863     d d d d.d d c...
    e460:	22ed00a4 25774598 25982598 1db81db8     ...".Ew%.%.%....
    e470:	25971db8 3d972577 01a83cb4 10a400e5     ...%w%.=.<......
    e480:	20631864 18841864 20632063 18631863     d.c d...c c c.c.
    e490:	18631863 18631863 18841863 18a42063     c.c.c.c.c...c ..
    e4a0:	2b4f00a5 25973d77 1db82598 1d9725b8     ..O+w=.%.%...%..
    e4b0:	25b825b8 25b825b8 25982598 25b825b8     .%.%.%.%.%.%.%.%
    e4c0:	25b825b8 25b825b8 25b825b8 25b825b8     .%.%.%.%.%.%.%.%
    e4d0:	25b825b8 25b825b8 25b825b8 25b825b8     .%.%.%.%.%.%.%.%
    e4e0:	25b825b8 25b825b8 25b825b8 25b825b8     .%.%.%.%.%.%.%.%
    e4f0:	25b825b8 25b825b8 25b825b8 25b825b8     .%.%.%.%.%.%.%.%
    e500:	25b825b8 25b825b8 25b825b8 25b825b8     .%.%.%.%.%.%.%.%
    e510:	25b825b8 25b825b8 1db81db8 155725b8     .%.%.%.%.....%W.
    e520:	25b825b8 25b825b8 25b825b8 25b825b8     .%.%.%.%.%.%.%.%
    e530:	25b825b8 25b825b8 25b825b8 25b825b8     .%.%.%.%.%.%.%.%
    e540:	25b825b8 25b825b8 25b825b8 25b825b8     .%.%.%.%.%.%.%.%
    e550:	25b825b8 25b825b8 25b825b8 25b825b8     .%.%.%.%.%.%.%.%
    e560:	25b825b8 25b825b8 25b825b8 25b825b8     .%.%.%.%.%.%.%.%
    e570:	25b825b8 25b825b8 25b825b8 25b825b8     .%.%.%.%.%.%.%.%
    e580:	25972598 25b825b8 3d982597 01063c32     .%.%.%.%.%.=2<..
    e590:	18a510c5 18a51885 18a418a4 18a418a5     ................
    e5a0:	18c518c4 00e510c5 3d971b6f 25982d77     ........o..=w-.%
    e5b0:	25771db8 0a8c4557 18c500a4 18a51885     ..w%WE..........
    e5c0:	18a518a5 18a518a5 18a518a5 08c518a5     ................
    e5d0:	44d401c8 34b44556 2acc4c73 18c500a4     ...DVE.4sL.*....
    e5e0:	18a518a5 18a418a5 18a418a4 18a418a4     ................
    e5f0:	18a418a4 18a518a5 20a520a5 628b1022     ......... . "..b
    e600:	f7beffff ffdeffdf ffdfffdf ffffffdf     ................
    e610:	28c5d65a 20842084 10c518a5 222a08a4     Z..(. . ......*"
    e620:	34944453 4d163d16 0043120a ffff8c72     SD.4.=.M..C.r...
    e630:	ffbff7bf f7dfffdf f7def7ff 9c93ffff     ................
    e640:	28c51022 18a51884 00a418c5 447332cd     "..(.........2sD
    e650:	359734d4 25982577 25982598 25772598     .4.5w%.%.%.%.%w%
    e660:	34533d97 190500c5 ffffdefc ffdff7bf     .=S4............
    e670:	f7fff7ff ffdff7df ffdeffdf f7beffdf     ................
    e680:	b597ffff 20841863 208420a5 188520a5     ....c.. . . . ..
    e690:	18a418a4 18a418a4 18a418a4 18a418a4     ................
    e6a0:	18a518a4 112710a5 3c734bf2 55573cf5     ......'..Ks<.<WU
    e6b0:	00852aee 18a418e5 18a418a4 18a418a5     .*..............
    e6c0:	18a418a4 18a418a4 18851885 18a518a5     ................
    e6d0:	18a518a5 18a518a5 18a418a5 18c518a4     ................
    e6e0:	22ee00c5 25774597 25b82598 1db81db8     ...".Ew%.%.%....
    e6f0:	25b825b8 2d982598 3cb43556 11885453     .%.%.%.-V5.<ST..
    e700:	18a51085 18c518a5 18a418a4 18a418a4     ................
    e710:	18a418a4 18a418a4 18a418a4 10c518a4     ................
    e720:	2b7000c5 25973d98 1db825b8 25b825b8     ..p+.=.%.%...%.%
    e730:	25b825b8 25b825b8 25982598 25b825b8     .%.%.%.%.%.%.%.%
    e740:	25b825b8 25b825b8 25b825b8 25b825b8     .%.%.%.%.%.%.%.%
    e750:	25b825b8 25b825b8 25b825b8 25b825b8     .%.%.%.%.%.%.%.%
    e760:	25b825b8 25b825b8 25b825b8 25b825b8     .%.%.%.%.%.%.%.%
    e770:	25b825b8 25b825b8 25b825b8 25b825b8     .%.%.%.%.%.%.%.%
    e780:	25b825b8 25b825b8 25b825b8 25b825b8     .%.%.%.%.%.%.%.%
    e790:	25b825b8 25b825b8 1db81db8 155725b8     .%.%.%.%.....%W.
    e7a0:	25b825b8 25b825b8 25b825b8 25b825b8     .%.%.%.%.%.%.%.%
    e7b0:	25b825b8 25b825b8 25b825b8 25b825b8     .%.%.%.%.%.%.%.%
    e7c0:	25b825b8 25b825b8 25b825b8 25b825b8     .%.%.%.%.%.%.%.%
    e7d0:	25b825b8 25b825b8 25b825b8 25b825b8     .%.%.%.%.%.%.%.%
    e7e0:	25b825b8 25b825b8 25b825b8 25b825b8     .%.%.%.%.%.%.%.%
    e7f0:	25b825b8 25b825b8 25b825b8 25b825b8     .%.%.%.%.%.%.%.%
    e800:	25982598 1d9725b7 35982597 01262c53     .%.%.%...%.5S,&.
    e810:	00a500c5 00a500a5 00a400a5 00a500a5     ................
    e820:	00a400a4 00c500a5 3d98136f 25982577     ........o..=w%.%
    e830:	25971db8 02ac3d97 00c500c5 008500a5     ...%.=..........
    e840:	00a400a5 00a500a5 00a500a5 00a500c5     ................
    e850:	3cf501a8 35773577 1b4f4db7 00c500a5     ...<w5w5.MO.....
    e860:	00a500c6 00a500a5 00a500a5 00a500a5     ................
    e870:	00a500a5 008500a5 10850885 5a8c1023     ............#..Z
    e880:	f7deffff ffdfffdf ffdfffdf ffffffdf     ................
    e890:	20c4d65a 08841884 00c500a4 126c0085     Z.. ..........l.
    e8a0:	3d974d77 45363577 0043120a ffff8c72     wM.=w56E..C.r...
    e8b0:	ffdff7bf f7dfffdf f7def7ff 9cb3ffff     ................
    e8c0:	18c50822 00a50884 00a400a5 4db8238f     "............#.M
    e8d0:	25973577 25b825b8 25982598 25772598     w5.%.%.%.%.%.%w%
    e8e0:	3c733d97 190500c5 ffffdefc f7dff7de     .=s<............
    e8f0:	ffdfffde ffdff7ff ffdeffdf ffdfffdf     ................
    e900:	c5b8ffff 18841863 008408a4 00a50085     ....c...........
    e910:	00c500a5 00c500c5 00c500c5 00a500a5     ................
    e920:	00a500a5 014800a5 3d9844f5 3d982d77     ......H..D.=w-.=
    e930:	00a51b0e 00a500c5 00a500a5 00a500a5     ................
    e940:	00a500a5 00a500a5 00a500a5 00a500a5     ................
    e950:	00a500a5 00a500c5 00a400a4 00c500a5     ................
    e960:	130e00c5 25973db8 1db825b8 25b825b8     .....=.%.%...%.%
    e970:	25b825b8 25982598 3d972d97 01e95557     .%.%.%.%.-.=WU..
    e980:	00a50085 00a500a5 00a500a5 00a500a5     ................
    e990:	00a500c5 00a500a5 00a400a4 00c500a4     ................
    e9a0:	237000c6 25983db8 1db81db8 25b825b8     ..p#.=.%.....%.%
    e9b0:	25b825b8 25b825b8 25b825b8 25b825b8     .%.%.%.%.%.%.%.%
    e9c0:	25b825b8 25b825b8 25b825b8 25b825b8     .%.%.%.%.%.%.%.%
    e9d0:	25b825b8 25b825b8 25b825b8 25b825b8     .%.%.%.%.%.%.%.%
    e9e0:	25b825b8 25b825b8 25b825b8 25b825b8     .%.%.%.%.%.%.%.%
    e9f0:	25b825b8 25b825b8 25b825b8 25b825b8     .%.%.%.%.%.%.%.%
    ea00:	25b825b8 25b825b8 25b825b8 25b825b8     .%.%.%.%.%.%.%.%
    ea10:	25b825b8 25b825b8 1db81db8 155725b8     .%.%.%.%.....%W.
    ea20:	25b825b8 25b825b8 25b825b8 25b825b8     .%.%.%.%.%.%.%.%
    ea30:	25b825b8 25b825b8 25b825b8 25b825b8     .%.%.%.%.%.%.%.%
    ea40:	25b825b8 25b825b8 25b825b8 25b825b8     .%.%.%.%.%.%.%.%
    ea50:	25b825b8 25b825b8 25b825b8 25b825b8     .%.%.%.%.%.%.%.%
    ea60:	25b825b8 25b825b8 25b825b8 25b825b8     .%.%.%.%.%.%.%.%
    ea70:	25b825b8 25b825b8 25b825b8 25b825b8     .%.%.%.%.%.%.%.%
    ea80:	25982598 25b725b7 2d9725b7 1bb034f5     .%.%.%.%.%.-.4..
    ea90:	336f2b90 336f3370 336f336f 336f336f     .+o3p3o3o3o3o3o3
    eaa0:	336f336f 23902b6f 35982494 1d982598     o3o3o+.#.$.5.%..
    eab0:	25b71db8 1c522d97 2b702390 33703370     ...%.-R..#p+p3p3
    eac0:	336f336f 336f336f 2b6f2b70 238f2b6f     o3o3o3o3p+o+o+.#
    ead0:	35761bd0 25972d97 24933597 33702390     ..v5.-.%.5.$.#p3
    eae0:	33703350 33703370 33703370 336f3370     P3p3p3p3p3p3p3o3
    eaf0:	334f3370 334f334f 29ea432f 628c0802     p3O3O3O3/C.)...b
    eb00:	f7deffff ffdfffdf ffdeffde ffffffdf     ................
    eb10:	20c5d63a 3acc10c5 2b703b4f 2c32234f     :.. ...:O;p+O#2,
    eb20:	25773577 45362d77 0043120a ffff8c72     w5w%w-6E..C.r...
    eb30:	ffdff7bf f7dfffdf f7dff7ff 9cb4ffff     ................
    eb40:	19670001 3b4f432f 2390336f 35972c94     ..g./CO;o3.#.,.5
    eb50:	25b82577 1db81db8 25982598 259725b7     w%.%.....%.%.%.%
    eb60:	3c733d97 20e500c5 ffffdefc f7dff7de     .=s<... ........
    eb70:	ffdfffdf f7deffdf f7beffde b596ffdf     ................
    eb80:	62cd7baf 11061084 3b4f32ed 3370334f     .{.b.....2O;O3p3
    eb90:	2b6f3370 2b6f3370 2b6f2b6f 336f2b6f     p3o+p3o+o+o+o+o3
    eba0:	33702b6f 23b12b70 25973556 35982597     o+p3p+.#V5.%.%.5
    ebb0:	23702c73 33702b6f 33703370 33703370     s,p#o+p3p3p3p3p3
    ebc0:	33703370 336f336f 336f336f 336f336f     p3p3o3o3o3o3o3o3
    ebd0:	2b6f2b70 336f336f 336f336f 2b703370     p+o+o3o3o3o3p3p+
    ebe0:	2c73236f 1d973597 1db81db8 25b825b8     o#s,.5.......%.%
    ebf0:	25b825b8 25982598 2d982598 23f23d77     .%.%.%.%.%.-w=.#
    ec00:	33702370 334f334f 336f3370 33703370     p#p3O3O3p3o3p3p3
    ec10:	2b6f2b6f 3370336f 336f334f 2b90336f     o+o+o3p3O3o3o3.+
    ec20:	2c942370 1d982d98 1db81db8 25b825b8     p#.,.-.......%.%
    ec30:	25b825b8 25b825b8 25b825b8 25b825b8     .%.%.%.%.%.%.%.%
    ec40:	25b825b8 25b825b8 25b825b8 25b825b8     .%.%.%.%.%.%.%.%
    ec50:	25b825b8 25b825b8 25b825b8 25b825b8     .%.%.%.%.%.%.%.%
    ec60:	25b825b8 25b825b8 25b825b8 25b825b8     .%.%.%.%.%.%.%.%
    ec70:	25b825b8 25b825b8 25b825b8 25b825b8     .%.%.%.%.%.%.%.%
    ec80:	25b825b8 25b825b8 25b825b8 25b825b8     .%.%.%.%.%.%.%.%
    ec90:	25b825b8 25b825b8 1db81db8 155725b8     .%.%.%.%.....%W.
    eca0:	25b825b8 25b825b8 25b825b8 25b825b8     .%.%.%.%.%.%.%.%
    ecb0:	25b825b8 25b825b8 25b825b8 25b825b8     .%.%.%.%.%.%.%.%
    ecc0:	25b825b8 25b825b8 25b825b8 25b825b8     .%.%.%.%.%.%.%.%
    ecd0:	25b825b8 25b825b8 25b825b8 25b825b8     .%.%.%.%.%.%.%.%
    ece0:	25b825b8 25b825b8 25b825b8 25b825b8     .%.%.%.%.%.%.%.%
    ecf0:	25b825b8 25b825b8 25b825b8 25b825b8     .%.%.%.%.%.%.%.%
    ed00:	259825b8 25b72598 25972598 35b82d77     .%.%.%.%.%.%w-.5
    ed10:	3d773d98 45774577 45974577 45974597     .=w=wEwEwE.E.E.E
    ed20:	45974597 3d984598 259835b8 1d9825b8     .E.E.E.=.5.%.%..
    ed30:	25981d98 35b82597 3d983d98 3d983d78     ...%.%.5.=.=x=.=
    ed40:	45974597 3d973d97 45974597 3d974597     .E.E.=.=.E.E.E.=
    ed50:	2d973597 25b82597 2db82597 45983db8     .5.-.%.%.%.-.=.E
    ed60:	45983d98 45974578 45974597 45974597     .=.ExE.E.E.E.E.E
    ed70:	45784578 45574578 2aee5d57 5a8c0002     xExExEWEW].*...Z
    ed80:	ffdfffff ffdfffdf fffeffde ffffffdf     ................
    ed90:	18e5d65a 5c940105 45985577 35983d98     Z......\wU.E.=.5
    eda0:	25972577 45362d97 0043120a ffff8c72     w%.%.-6E..C.r...
    edb0:	ffdef7be f7dfffdf f7dff7ff 94b3ffff     ................
    edc0:	19c90002 4d775d36 3d984577 259835b8     ....6]wMwE.=.5.%
    edd0:	25b825b8 25b71db7 25982598 25971db7     .%.%...%.%.%...%
    ede0:	34733db8 20e500c5 ffffdefc f7dff7de     .=s4... ........
    edf0:	ffdfffdf ffdfffdf ffffffdf 7bd0ffff     ...............{
    ee00:	08630001 01470084 4d974cd5 45784577     ..c...G..L.MwExE
    ee10:	3d974578 45974597 3d973d97 45974597     xE.=.E.E.=.=.E.E
    ee20:	3d974597 3d983d98 25982d97 257725b8     .E.=.=.=.-.%.%w%
    ee30:	3d983598 45783d78 45784578 45784577     .5.=x=xExExEwExE
    ee40:	45784578 45774577 45974597 45974597     xExEwEwE.E.E.E.E
    ee50:	45974578 45974597 3d984578 3d774578     xE.E.E.ExE.=xEw=
    ee60:	35973db8 25b82577 1db81db8 25b825b8     .=.5w%.%.....%.%
    ee70:	1db81db8 25b825b8 25971d97 35b82d77     .....%.%...%w-.5
    ee80:	45784598 45974578 3d774597 45974578     .ExExE.E.Ew=xE.E
    ee90:	45974597 45974597 3d774577 3d983d97     .E.E.E.EwEw=.=.=
    eea0:	35983d98 25982598 25b81d98 25b825b8     .=.5.%.%...%.%.%
    eeb0:	25b825b8 25982598 25b825b8 25b825b8     .%.%.%.%.%.%.%.%
    eec0:	25b825b8 25b825b8 25b825b8 25b825b8     .%.%.%.%.%.%.%.%
    eed0:	25b825b8 25b825b8 25b825b8 25b825b8     .%.%.%.%.%.%.%.%
    eee0:	25b825b8 25b825b8 25b825b8 25b825b8     .%.%.%.%.%.%.%.%
    eef0:	25b825b8 25b825b8 25b825b8 25b825b8     .%.%.%.%.%.%.%.%
    ef00:	25b825b8 25b825b8 25b825b8 25b825b8     .%.%.%.%.%.%.%.%
    ef10:	25b825b8 25b825b8 1db81db8 155725b8     .%.%.%.%.....%W.
    ef20:	25b825b8 25b825b8 25b825b8 25b825b8     .%.%.%.%.%.%.%.%
    ef30:	25b825b8 25b825b8 25b825b8 25b825b8     .%.%.%.%.%.%.%.%
    ef40:	25b825b8 25b825b8 25b825b8 25b825b8     .%.%.%.%.%.%.%.%
    ef50:	25b825b8 25b825b8 25b825b8 25b825b8     .%.%.%.%.%.%.%.%
    ef60:	25b825b8 25b825b8 25b825b8 25b825b8     .%.%.%.%.%.%.%.%
    ef70:	25b825b8 25b825b8 25b825b8 25b825b8     .%.%.%.%.%.%.%.%
    ef80:	25b825b8 25982598 25b825b8 25972598     .%.%.%.%.%.%.%.%
    ef90:	25772597 25972577 25772597 25972577     .%w%w%.%.%w%w%.%
    efa0:	25772577 25972597 1db825b8 1db81db8     w%w%.%.%.%......
    efb0:	25b81d97 259725b8 25972577 25972597     ...%.%.%w%.%.%.%
    efc0:	25972597 25972597 25972577 25972597     .%.%.%.%w%.%.%.%
    efd0:	25982597 25b82598 25b81db8 25972597     .%.%.%.%...%.%.%
    efe0:	25772597 25772577 25772577 25772577     .%w%w%w%w%w%w%w%
    eff0:	25772577 2d572597 1b0e4577 5aac0022     w%w%.%W-wE.."..Z
    f000:	ffdfffff ffdeffdf f7def7de fffff7be     ................
    f010:	1905d65a 44730106 25773577 25982597     Z.....sDw5w%.%.%
    f020:	25981db8 45362d97 0043122a ffff8c52     ...%.-6E*.C.R...
    f030:	f7bef7be f7dfffdf f7bef7df 94b4ffff     ................
    f040:	11c90022 357744f6 25972d77 25b81d98     "....Dw5w-.%...%
    f050:	1db81db8 25b71db7 25b82597 1d971db7     .......%.%.%....
    f060:	347335b8 210600c5 ffdfdedc f7def7be     .5s4...!........
    f070:	ffdfffdf ffdfffdf ce59ffdf 6b2ec5f8     ..........Y....k
    f080:	19470863 12cc1a2a 2d973515 25972577     c.G.*....5.-w%.%
    f090:	25772577 25772577 25772597 25772597     w%w%w%w%.%w%.%w%
    f0a0:	25772577 25972597 25b82598 25982598     w%w%.%.%.%.%.%.%
    f0b0:	25972598 25772577 25772577 25772577     .%.%w%w%w%w%w%w%
    f0c0:	25772577 25772577 25772577 25772577     w%w%w%w%w%w%w%w%
    f0d0:	25772597 25772577 25972597 25972597     .%w%w%w%.%.%.%.%
    f0e0:	25972597 25b825b8 25b81db8 25b825b8     .%.%.%.%...%.%.%
    f0f0:	1db81db8 259825b8 25b82598 25982598     .....%.%.%.%.%.%
    f100:	25782598 25972577 25972577 25772577     .%x%w%.%w%.%w%w%
    f110:	25772577 25772577 25972577 25972597     w%w%w%w%w%.%.%.%
    f120:	25982597 25982598 25b825b8 25b825b8     .%.%.%.%.%.%.%.%
    f130:	25b825b8 25982598 25b825b8 25b825b8     .%.%.%.%.%.%.%.%
    f140:	25b825b8 25b825b8 25b825b8 25b825b8     .%.%.%.%.%.%.%.%
    f150:	25b825b8 25b825b8 25b825b8 25b825b8     .%.%.%.%.%.%.%.%
    f160:	25b825b8 25b825b8 25b825b8 25b825b8     .%.%.%.%.%.%.%.%
    f170:	25b825b8 25b825b8 25b825b8 25b825b8     .%.%.%.%.%.%.%.%
    f180:	25b825b8 25b825b8 25b825b8 25b825b8     .%.%.%.%.%.%.%.%
    f190:	25b825b8 25b825b8 1db81db8 155725b8     .%.%.%.%.....%W.
    f1a0:	25b825b8 25b825b8 25b825b8 25b825b8     .%.%.%.%.%.%.%.%
    f1b0:	25b825b8 25b825b8 25b825b8 25b825b8     .%.%.%.%.%.%.%.%
    f1c0:	25b825b8 25b825b8 25b825b8 25b825b8     .%.%.%.%.%.%.%.%
    f1d0:	25b825b8 25b825b8 25b825b8 25b825b8     .%.%.%.%.%.%.%.%
    f1e0:	25b825b8 25b825b8 25b825b8 25b825b8     .%.%.%.%.%.%.%.%
    f1f0:	25b825b8 25b825b8 25b825b8 25b825b8     .%.%.%.%.%.%.%.%
    f200:	25b825b8 25b825b8 25b825b8 25982598     .%.%.%.%.%.%.%.%
    f210:	25982598 25982598 25982598 25982598     .%.%.%.%.%.%.%.%
    f220:	25982598 25982598 25b825b8 1db81db8     .%.%.%.%.%.%....
    f230:	25b825b8 259825b8 25982598 25982598     .%.%.%.%.%.%.%.%
    f240:	25982598 25982598 25982598 25982598     .%.%.%.%.%.%.%.%
    f250:	25982598 25b825b8 25b825b8 25982598     .%.%.%.%.%.%.%.%
    f260:	25982598 25982598 25982598 25982598     .%.%.%.%.%.%.%.%
    f270:	25972598 2d772598 1b0e4577 5aac0043     .%.%.%w-wE..C..Z
    f280:	ffdfffff ffffffff ffffffff ffffffff     ................
    f290:	10e5d69b 44940126 25973598 25982598     ....&..D.5.%.%.%
    f2a0:	259725b8 45362d97 0043120a ffff8c73     .%.%.-6E..C.s...
    f2b0:	ffffffbf ffdfffdf ffdfffff 9cd4ffff     ................
    f2c0:	11c90022 35974516 25b82597 25b82598     "....E.5.%.%.%.%
    f2d0:	1db81db8 25b725b8 25b82598 25971db7     .....%.%.%.%...%
    f2e0:	34733597 20e500c5 ffffe6fc ffffffdf     .5s4... ........
    f2f0:	ffdfffff ffffffff 524affff 18c50802     ..........JR....
    f300:	224b0064 3d565d36 25972d77 25981d97     d.K"6]V=w-.%...%
    f310:	25982598 25982598 25982598 25982598     .%.%.%.%.%.%.%.%
    f320:	25982598 25982598 25b825b8 25982598     .%.%.%.%.%.%.%.%
    f330:	25982598 25982598 25982598 25982598     .%.%.%.%.%.%.%.%
    f340:	25982598 25982598 25982598 25982598     .%.%.%.%.%.%.%.%
    f350:	25982598 25982598 25982598 25982598     .%.%.%.%.%.%.%.%
    f360:	25982598 25b825b8 25b825b8 25b825b8     .%.%.%.%.%.%.%.%
    f370:	1db825b8 25b825b8 25b825b8 259825b8     .%...%.%.%.%.%.%
    f380:	25982598 25982598 25982598 25982598     .%.%.%.%.%.%.%.%
    f390:	25982598 25982598 25982598 25982598     .%.%.%.%.%.%.%.%
    f3a0:	25982598 25b825b8 25b825b8 25b825b8     .%.%.%.%.%.%.%.%
    f3b0:	25b825b8 25b825b8 25b825b8 25b825b8     .%.%.%.%.%.%.%.%
    f3c0:	25b825b8 25b825b8 25b825b8 25b825b8     .%.%.%.%.%.%.%.%
    f3d0:	25b825b8 25b825b8 25b825b8 25b825b8     .%.%.%.%.%.%.%.%
    f3e0:	25b825b8 25b825b8 25b825b8 25b825b8     .%.%.%.%.%.%.%.%
    f3f0:	25b825b8 25b825b8 25b825b8 25b825b8     .%.%.%.%.%.%.%.%
    f400:	25b825b8 25b825b8 25b825b8 25b825b8     .%.%.%.%.%.%.%.%
    f410:	25b825b8 25b825b8 1db81db8 155725b8     .%.%.%.%.....%W.
    f420:	25b825b8 25b825b8 25b825b8 25b825b8     .%.%.%.%.%.%.%.%
    f430:	25b825b8 25b825b8 25b825b8 25b825b8     .%.%.%.%.%.%.%.%
    f440:	25b825b8 25b825b8 25b825b8 25b825b8     .%.%.%.%.%.%.%.%
    f450:	25b825b8 25b825b8 25b825b8 25b825b8     .%.%.%.%.%.%.%.%
    f460:	25b825b8 25b825b8 25b825b8 25b825b8     .%.%.%.%.%.%.%.%
    f470:	25b825b8 25b825b8 25b825b8 25b825b8     .%.%.%.%.%.%.%.%
    f480:	25b825b8 25b825b8 25b825b8 25982598     .%.%.%.%.%.%.%.%
    f490:	25b825b8 25b825b8 25b825b8 25b825b8     .%.%.%.%.%.%.%.%
    f4a0:	25b825b8 25b825b8 25b825b8 1db81db8     .%.%.%.%.%.%....
    f4b0:	25b825b8 25b825b8 25b825b8 25b825b8     .%.%.%.%.%.%.%.%
    f4c0:	25b825b8 1db81db8 25b825b8 25b825b8     .%.%.....%.%.%.%
    f4d0:	25b825b8 25b825b8 25b825b8 25b825b8     .%.%.%.%.%.%.%.%
    f4e0:	25b825b8 25b825b8 25b825b8 1db81db8     .%.%.%.%.%.%....
    f4f0:	25b825b8 2d7725b8 232e4557 5a8b0043     .%.%.%w-WE.#C..Z
    f500:	e6fcef1d e71cef1d e71ce71c e71ce6fc     ................
    f510:	1905c5b8 3c930126 25983598 259825b8     ....&..<.5.%.%.%
    f520:	259725b8 45362d97 0043120a ef3e8c12     .%.%.-6E..C...>.
    f530:	e71ce6fc e6fce6fc e6fce6fc 8c32ef3d     ............=.2.
    f540:	19ea0023 2d974516 1db82597 25b825b8     #....E.-.%...%.%
    f550:	1db81db8 25b825b8 25b825b8 25971db7     .....%.%.%.%...%
    f560:	3c533d97 20e500c5 ef1dce3a e71cef1c     .=S<... :.......
    f570:	e71cef1d e71de71c 4a2ae6fd 11060843     ..........*JC...
    f580:	12ac0147 2d774557 1db82597 25b81d98     G...WEw-.%.....%
    f590:	25982598 1db825b8 25b825b8 25b825b8     .%.%.%...%.%.%.%
    f5a0:	25b825b8 25b825b8 25b825b8 259825b8     .%.%.%.%.%.%.%.%
    f5b0:	25b825b8 25b825b8 25b825b8 25b825b8     .%.%.%.%.%.%.%.%
    f5c0:	25b825b8 25b825b8 25b825b8 25b825b8     .%.%.%.%.%.%.%.%
    f5d0:	25b825b8 25b825b8 25b825b8 25b825b8     .%.%.%.%.%.%.%.%
    f5e0:	25b825b8 25b825b8 25b825b8 25b825b8     .%.%.%.%.%.%.%.%
    f5f0:	25b825b8 25b825b8 25b825b8 25b825b8     .%.%.%.%.%.%.%.%
    f600:	25b825b8 25b825b8 25b825b8 25b825b8     .%.%.%.%.%.%.%.%
    f610:	25b825b8 25b825b8 25b825b8 25b825b8     .%.%.%.%.%.%.%.%
    f620:	25b825b8 25b825b8 25b825b8 25b825b8     .%.%.%.%.%.%.%.%
    f630:	25b825b8 25b825b8 25b825b8 25b825b8     .%.%.%.%.%.%.%.%
    f640:	25b825b8 25b825b8 25b825b8 25b825b8     .%.%.%.%.%.%.%.%
    f650:	25b825b8 25b825b8 25b825b8 25b825b8     .%.%.%.%.%.%.%.%
    f660:	25b825b8 25b825b8 25b825b8 25b825b8     .%.%.%.%.%.%.%.%
    f670:	25b825b8 25b825b8 25b825b8 25b825b8     .%.%.%.%.%.%.%.%
    f680:	25b825b8 25b825b8 25b825b8 25b825b8     .%.%.%.%.%.%.%.%
    f690:	25b825b8 25b825b8 1db81db8 155725b8     .%.%.%.%.....%W.
    f6a0:	25b825b8 25b825b8 25b825b8 25b825b8     .%.%.%.%.%.%.%.%
    f6b0:	25b825b8 25b825b8 25b825b8 25b825b8     .%.%.%.%.%.%.%.%
    f6c0:	25b825b8 25b825b8 25b825b8 25b825b8     .%.%.%.%.%.%.%.%
    f6d0:	25b825b8 25b825b8 25b825b8 25b825b8     .%.%.%.%.%.%.%.%
    f6e0:	25b825b8 25b825b8 25b825b8 25b825b8     .%.%.%.%.%.%.%.%
    f6f0:	25b825b8 25b825b8 25b825b8 25b825b8     .%.%.%.%.%.%.%.%
    f700:	25b825b8 25b825b8 25b825b8 25b825b8     .%.%.%.%.%.%.%.%
    f710:	25b825b8 25b825b8 1db81db8 25b825b8     .%.%.%.%.....%.%
    f720:	25b825b8 25b825b8 25b825b8 25b825b8     .%.%.%.%.%.%.%.%
    f730:	25b825b8 25b825b8 25b825b8 25b825b8     .%.%.%.%.%.%.%.%
    f740:	25b825b8 25b825b8 25b825b8 25b825b8     .%.%.%.%.%.%.%.%
    f750:	25b825b8 25b825b8 25b825b8 25b825b8     .%.%.%.%.%.%.%.%
    f760:	25b82598 25b825b8 25b825b8 25b825b8     .%.%.%.%.%.%.%.%
    f770:	25b825b8 2d772598 1aee4d77 20c50084     .%.%.%w-wM..... 
    f780:	28e530e5 28e528e5 28e528e5 30e63106     .0.(.(.(.(.(.1.0
    f790:	10a528e6 44740127 1d973598 1db825b8     .(..'.tD.5...%..
    f7a0:	259825b8 3d362d97 088411ea 30e528e6     .%.%.-6=.....(.0
    f7b0:	28e53105 28e528e5 29052905 20e52906     .1.(.(.(.).).). 
    f7c0:	11ca0885 2d974516 1db82597 25b825b8     .....E.-.%...%.%
    f7d0:	1db81db8 25b825b8 1db825b8 25971db7     .....%.%.%.....%
    f7e0:	3c533d98 188500c6 290628e6 28e52906     .=S<.....(.).).(
    f7f0:	28e528e5 29062906 20c53106 32ad0885     .(.(.).).1. ...2
    f800:	351554f5 25972d77 1d9825b8 25981d97     .T.5w-.%.%.....%
    f810:	25982598 1db825b8 25b825b8 25b825b8     .%.%.%...%.%.%.%
    f820:	25982598 1db81db8 25b825b8 25b825b8     .%.%.....%.%.%.%
    f830:	25b825b8 25b825b8 25b825b8 25b825b8     .%.%.%.%.%.%.%.%
    f840:	25b825b8 25b825b8 25b825b8 25b825b8     .%.%.%.%.%.%.%.%
    f850:	25b825b8 25b825b8 25b825b8 25b825b8     .%.%.%.%.%.%.%.%
    f860:	25b825b8 25982598 25982598 25b825b8     .%.%.%.%.%.%.%.%
    f870:	25b825b8 25b825b8 25b825b8 25b825b8     .%.%.%.%.%.%.%.%
    f880:	25b825b8 25b825b8 25b825b8 25b825b8     .%.%.%.%.%.%.%.%
    f890:	25982598 25b825b8 25b825b8 25982598     .%.%.%.%.%.%.%.%
    f8a0:	25b825b8 25982598 25b825b8 25b825b8     .%.%.%.%.%.%.%.%
    f8b0:	25b825b8 1db81db8 25b825b8 25b825b8     .%.%.....%.%.%.%
    f8c0:	25b825b8 25b825b8 25b825b8 25b825b8     .%.%.%.%.%.%.%.%
    f8d0:	25b825b8 25b825b8 25b825b8 25b825b8     .%.%.%.%.%.%.%.%
    f8e0:	25b825b8 25b825b8 25b825b8 25b825b8     .%.%.%.%.%.%.%.%
    f8f0:	25b825b8 25b825b8 25b825b8 25b825b8     .%.%.%.%.%.%.%.%
    f900:	25b825b8 25b825b8 25b825b8 25b825b8     .%.%.%.%.%.%.%.%
    f910:	25b825b8 25b825b8 1db81db8 155725b8     .%.%.%.%.....%W.
    f920:	25b825b8 25b825b8 25b825b8 25b825b8     .%.%.%.%.%.%.%.%
    f930:	25b825b8 25b825b8 25b825b8 25b825b8     .%.%.%.%.%.%.%.%
    f940:	25b825b8 25b825b8 25b825b8 25b825b8     .%.%.%.%.%.%.%.%
    f950:	25b825b8 25b825b8 25b825b8 25b825b8     .%.%.%.%.%.%.%.%
    f960:	25b825b8 25b825b8 25b825b8 25b825b8     .%.%.%.%.%.%.%.%
    f970:	25b825b8 25b825b8 25b825b8 25b825b8     .%.%.%.%.%.%.%.%
    f980:	25b825b8 25b825b8 25b825b8 25b825b8     .%.%.%.%.%.%.%.%
    f990:	25b825b8 25b825b8 1db81db8 25b825b8     .%.%.%.%.....%.%
    f9a0:	25b825b8 25b825b8 25b825b8 25b825b8     .%.%.%.%.%.%.%.%
    f9b0:	25b825b8 25b825b8 25b825b8 25b825b8     .%.%.%.%.%.%.%.%
    f9c0:	25b825b8 25b825b8 25b825b8 25b825b8     .%.%.%.%.%.%.%.%
    f9d0:	25b825b8 25b825b8 25b825b8 25b825b8     .%.%.%.%.%.%.%.%
    f9e0:	25b82598 25b825b8 25b825b8 25b825b8     .%.%.%.%.%.%.%.%
    f9f0:	25b825b8 2d772598 1aed4557 20840084     .%.%.%w-WE..... 
    fa00:	20631843 18431843 18631863 18641864     C.c C.C.c.c.d.d.
    fa10:	10851864 44740127 25983597 1db81db8     d...'.tD.5.%....
    fa20:	259825b8 45362d97 0885120a 20641884     .%.%.-6E......d 
    fa30:	20641863 18431864 18641863 18841863     c.d d.C.c.d.c...
    fa40:	11ca0885 2d974516 1db725b7 1d9825b8     .....E.-.%...%..
    fa50:	1db81db8 25b825b8 1db81db8 25971db8     .....%.%.......%
    fa60:	34333d98 18a500c6 18431864 18431863     .=34....d.C.c.C.
    fa70:	18431843 18641864 08c61884 232f00c5     C.C.d.d......./#
    fa80:	2d974577 25b82597 1d981d98 25982598     wE.-.%.%.....%.%
    fa90:	25b82598 1db825b8 25b825b8 25b825b8     .%.%.%...%.%.%.%
    faa0:	25982598 1db81db8 25b825b8 25b825b8     .%.%.....%.%.%.%
    fab0:	25b825b8 25b825b8 25b825b8 25b825b8     .%.%.%.%.%.%.%.%
    fac0:	25b825b8 25b825b8 25b825b8 25982598     .%.%.%.%.%.%.%.%
    fad0:	25b825b8 25b825b8 25b825b8 25b825b8     .%.%.%.%.%.%.%.%
    fae0:	25b825b8 25982598 25982598 25b825b8     .%.%.%.%.%.%.%.%
    faf0:	25b825b8 25b825b8 25b825b8 25b825b8     .%.%.%.%.%.%.%.%
    fb00:	25b825b8 25b825b8 25b825b8 25b825b8     .%.%.%.%.%.%.%.%
    fb10:	25982598 25b825b8 25b825b8 25982598     .%.%.%.%.%.%.%.%
    fb20:	25b825b8 25982598 25b825b8 25b825b8     .%.%.%.%.%.%.%.%
    fb30:	25b825b8 1db81db8 25b825b8 25b825b8     .%.%.....%.%.%.%
    fb40:	25b825b8 25b825b8 25b825b8 25b825b8     .%.%.%.%.%.%.%.%
    fb50:	25b825b8 25b825b8 25b825b8 25b825b8     .%.%.%.%.%.%.%.%
    fb60:	25b825b8 25b825b8 25b825b8 25b825b8     .%.%.%.%.%.%.%.%
    fb70:	25b825b8 25b825b8 25b825b8 25b825b8     .%.%.%.%.%.%.%.%
    fb80:	25b825b8 25b825b8 25b825b8 25b825b8     .%.%.%.%.%.%.%.%
    fb90:	25b825b8 25b825b8 1db81db8 155725b8     .%.%.%.%.....%W.
    fba0:	25b825b8 25b825b8 25b825b8 25b825b8     .%.%.%.%.%.%.%.%
    fbb0:	25b825b8 25b825b8 25b825b8 25b825b8     .%.%.%.%.%.%.%.%
    fbc0:	25b825b8 25b825b8 25b825b8 25b825b8     .%.%.%.%.%.%.%.%
    fbd0:	25b825b8 25b825b8 25b825b8 25b825b8     .%.%.%.%.%.%.%.%
    fbe0:	25b825b8 25b825b8 25b825b8 25b825b8     .%.%.%.%.%.%.%.%
    fbf0:	25b825b8 25b825b8 25b825b8 25b825b8     .%.%.%.%.%.%.%.%
    fc00:	25b825b8 25b825b8 25b825b8 25b825b8     .%.%.%.%.%.%.%.%
    fc10:	25982598 25b825b8 25b825b8 25b825b8     .%.%.%.%.%.%.%.%
    fc20:	25b825b8 25b825b8 25b825b8 1db81db8     .%.%.%.%.%.%....
    fc30:	25b825b8 25982598 25982598 25b825b8     .%.%.%.%.%.%.%.%
    fc40:	25b825b8 25b825b8 25982598 25b825b8     .%.%.%.%.%.%.%.%
    fc50:	25b825b8 25b825b8 25b825b8 25b825b8     .%.%.%.%.%.%.%.%
    fc60:	25b825b8 25b825b8 25b825b8 25b825b8     .%.%.%.%.%.%.%.%
    fc70:	1d981db8 257725b8 1aed4557 20c500a5     .....%w%WE..... 
    fc80:	28852085 20a520a4 20a420a4 20a520a5     . .(. . . . . . 
    fc90:	10a520a5 3c940127 25973577 1db725b7     . ..'..<w5.%.%..
    fca0:	259725b8 45562d77 08c509ea 208518a5     .%.%w-VE....... 
    fcb0:	208520a5 20852085 20a520a5 20c520a5     . . . . . . . . 
    fcc0:	11ca0885 2d974516 1db725b7 25b825b8     .....E.-.%...%.%
    fcd0:	1db81db8 1db81db8 1db81db8 259725b8     .............%.%
    fce0:	34733d98 18c500e6 208420c5 20a420a5     .=s4..... . . . 
    fcf0:	20a52084 18a520a4 3b2f08e6 2cd43412     . . . ..../;.4.,
    fd00:	25972d77 25b825b8 25982598 25982598     w-.%.%.%.%.%.%.%
    fd10:	25b82598 25b825b8 25b825b8 25b825b8     .%.%.%.%.%.%.%.%
    fd20:	25b825b8 25b825b8 25b825b8 25b825b8     .%.%.%.%.%.%.%.%
    fd30:	25b825b8 25b825b8 25b825b8 25b825b8     .%.%.%.%.%.%.%.%
    fd40:	25b825b8 1db81db8 25b825b8 25b825b8     .%.%.....%.%.%.%
    fd50:	25982598 25b825b8 25b825b8 25b825b8     .%.%.%.%.%.%.%.%
    fd60:	25b825b8 25982598 25b825b8 25b825b8     .%.%.%.%.%.%.%.%
    fd70:	25b825b8 25b825b8 25b825b8 25b825b8     .%.%.%.%.%.%.%.%
    fd80:	25b825b8 25b825b8 25b825b8 25b825b8     .%.%.%.%.%.%.%.%
    fd90:	25b825b8 25b825b8 25b825b8 25b825b8     .%.%.%.%.%.%.%.%
    fda0:	25b825b8 25b825b8 25b825b8 25b825b8     .%.%.%.%.%.%.%.%
    fdb0:	25b825b8 25b825b8 25b825b8 25b825b8     .%.%.%.%.%.%.%.%
    fdc0:	25b825b8 25b825b8 25b825b8 25b825b8     .%.%.%.%.%.%.%.%
    fdd0:	25b825b8 25b825b8 25b825b8 25b825b8     .%.%.%.%.%.%.%.%
    fde0:	25b825b8 25b825b8 25b825b8 25b825b8     .%.%.%.%.%.%.%.%
    fdf0:	25b825b8 25b825b8 25b825b8 25b825b8     .%.%.%.%.%.%.%.%
    fe00:	25b825b8 25b825b8 25b825b8 25b825b8     .%.%.%.%.%.%.%.%
    fe10:	25b825b8 25b825b8 1db81db8 155725b8     .%.%.%.%.....%W.
    fe20:	25b825b8 25b825b8 25b825b8 25b825b8     .%.%.%.%.%.%.%.%
    fe30:	25b825b8 25b825b8 25b825b8 25b825b8     .%.%.%.%.%.%.%.%
    fe40:	25b825b8 25b825b8 25b825b8 25b825b8     .%.%.%.%.%.%.%.%
    fe50:	25b825b8 25b825b8 25b825b8 25b825b8     .%.%.%.%.%.%.%.%
    fe60:	25b825b8 25b825b8 25b825b8 25b825b8     .%.%.%.%.%.%.%.%
    fe70:	25b825b8 25b825b8 25b825b8 25b825b8     .%.%.%.%.%.%.%.%
    fe80:	25b825b8 25b825b8 25b825b8 25b825b8     .%.%.%.%.%.%.%.%
    fe90:	25982598 25b825b8 25b825b8 25b825b8     .%.%.%.%.%.%.%.%
    fea0:	25b825b8 25b825b8 25b825b8 1db81db8     .%.%.%.%.%.%....
    feb0:	25b825b8 25982598 25982598 25b825b8     .%.%.%.%.%.%.%.%
    fec0:	25b825b8 25b825b8 25b82598 25b825b8     .%.%.%.%.%.%.%.%
    fed0:	25b825b8 25b825b8 25b825b8 25b825b8     .%.%.%.%.%.%.%.%
    fee0:	25b825b8 25b825b8 25b825b8 25b825b8     .%.%.%.%.%.%.%.%
    fef0:	1db81db8 25971db8 0aed4598 00c500a4     .......%.E......
    ff00:	08850885 00840084 00a400a4 00a400a4     ................
    ff10:	00c500a5 34940147 25973598 25b725b7     ....G..4.5.%.%.%
    ff20:	259725b8 3d562d97 00a5020a 00a500a5     .%.%.-V=........
    ff30:	00a400a5 00840884 00a408a5 00a508a4     ................
    ff40:	01c900a5 2d973d36 1db72598 25b825b8     ....6=.-.%...%.%
    ff50:	1db81db8 1db81db8 1db81db8 25972598     .............%.%
    ff60:	2c533598 00c40106 008400a4 00840884     .5S,............
    ff70:	08840884 00a508a4 3c5300e6 2d774db8     ..........S<.Mw-
    ff80:	25972597 25b825b8 25982598 25982598     .%.%.%.%.%.%.%.%
    ff90:	25b82598 25b825b8 25b825b8 25b825b8     .%.%.%.%.%.%.%.%
    ffa0:	25b825b8 25b825b8 25b825b8 25b825b8     .%.%.%.%.%.%.%.%
    ffb0:	25b825b8 25b825b8 25b825b8 25b825b8     .%.%.%.%.%.%.%.%
    ffc0:	25b825b8 1db81db8 25b825b8 25b825b8     .%.%.....%.%.%.%
    ffd0:	25982598 25b825b8 25b825b8 25b825b8     .%.%.%.%.%.%.%.%
    ffe0:	25b825b8 25982598 25b825b8 25b825b8     .%.%.%.%.%.%.%.%
    fff0:	25b825b8 25b825b8 25b825b8 25b825b8     .%.%.%.%.%.%.%.%
   10000:	25b825b8 25b825b8 25b825b8 25b825b8     .%.%.%.%.%.%.%.%
   10010:	25b825b8 25b825b8 25b825b8 25b825b8     .%.%.%.%.%.%.%.%
   10020:	25b825b8 25b825b8 25b825b8 25b825b8     .%.%.%.%.%.%.%.%
   10030:	25b825b8 25b825b8 25b825b8 25b825b8     .%.%.%.%.%.%.%.%
   10040:	25b825b8 25b825b8 25b825b8 25b825b8     .%.%.%.%.%.%.%.%
   10050:	25b825b8 25b825b8 25b825b8 25b825b8     .%.%.%.%.%.%.%.%
   10060:	25b825b8 25b825b8 25b825b8 25b825b8     .%.%.%.%.%.%.%.%
   10070:	25b825b8 25b825b8 25b825b8 25b825b8     .%.%.%.%.%.%.%.%
   10080:	25b825b8 25b825b8 25b825b8 25b825b8     .%.%.%.%.%.%.%.%
   10090:	25b825b8 25b825b8 1db81db8 155725b8     .%.%.%.%.....%W.
   100a0:	25b825b8 25b825b8 25b825b8 25b825b8     .%.%.%.%.%.%.%.%
   100b0:	25b825b8 25b825b8 25b825b8 25b825b8     .%.%.%.%.%.%.%.%
   100c0:	25b825b8 25b825b8 25b825b8 25b825b8     .%.%.%.%.%.%.%.%
   100d0:	25b825b8 25b825b8 25b825b8 25b825b8     .%.%.%.%.%.%.%.%
   100e0:	25b825b8 25b825b8 25b825b8 25b825b8     .%.%.%.%.%.%.%.%
   100f0:	25b825b8 25b825b8 25b825b8 25b825b8     .%.%.%.%.%.%.%.%
   10100:	25b825b8 25b825b8 25b825b8 25b825b8     .%.%.%.%.%.%.%.%
   10110:	25b825b8 25b825b8 25b825b8 25b825b8     .%.%.%.%.%.%.%.%
   10120:	25b825b8 25b825b8 25b825b8 25b825b8     .%.%.%.%.%.%.%.%
   10130:	25b825b8 25b825b8 25b825b8 25b825b8     .%.%.%.%.%.%.%.%
   10140:	25b825b8 25b825b8 25b825b8 1db825b8     .%.%.%.%.%.%.%..
   10150:	25b825b8 25b825b8 25982598 25b825b8     .%.%.%.%.%.%.%.%
   10160:	25b825b8 25b825b8 25b825b8 25b825b8     .%.%.%.%.%.%.%.%
   10170:	25b825b8 257725b8 1c323598 1b0e0b0e     .%.%.%w%.52.....
   10180:	1aee1aed 1aed1aed 1aee1aed 1aee1aee     ................
   10190:	130e1b0e 2cf50b4f 25972d97 25b725b7     ....O..,.-.%.%.%
   101a0:	25982598 2d772597 130e13d1 1aee1b0e     .%.%.%w-........
   101b0:	1aed1aee 1aee1aee 1aee1aee 1b0e1aed     ................
   101c0:	13b1130e 25982d57 1d9825b8 25b825b8     ....W-.%.%...%.%
   101d0:	1db825b8 1db81db8 1db81db8 25972598     .%...........%.%
   101e0:	2cf52db8 1b0d0b2e 1aed1b0e 1aed1aed     .-.,............
   101f0:	1aed1aed 130d1b0d 2cd50b2e 25973597     ...........,.5.%
   10200:	25b82598 25b825b8 25b825b8 25982598     .%.%.%.%.%.%.%.%
   10210:	25982598 25982598 25b825b8 25b825b8     .%.%.%.%.%.%.%.%
   10220:	25b825b8 25b825b8 25b825b8 25b825b8     .%.%.%.%.%.%.%.%
   10230:	25b825b8 25b825b8 25b825b8 25b825b8     .%.%.%.%.%.%.%.%
   10240:	25b825b8 25b825b8 25b825b8 25b825b8     .%.%.%.%.%.%.%.%
   10250:	25b825b8 25b825b8 25b825b8 25b825b8     .%.%.%.%.%.%.%.%
   10260:	25b825b8 25b825b8 25b825b8 25b825b8     .%.%.%.%.%.%.%.%
   10270:	25b825b8 25b825b8 1db81db8 25b825b8     .%.%.%.%.....%.%
   10280:	25b825b8 25b825b8 25b825b8 25b825b8     .%.%.%.%.%.%.%.%
   10290:	25b825b8 25b825b8 25b825b8 25b825b8     .%.%.%.%.%.%.%.%
   102a0:	25b825b8 25b825b8 25b825b8 1db81db8     .%.%.%.%.%.%....
   102b0:	25b825b8 25b825b8 25b825b8 25982598     .%.%.%.%.%.%.%.%
   102c0:	25b825b8 25b825b8 25b825b8 25b825b8     .%.%.%.%.%.%.%.%
   102d0:	25b825b8 25b825b8 25b825b8 25b825b8     .%.%.%.%.%.%.%.%
   102e0:	25b825b8 25b825b8 25b825b8 25b825b8     .%.%.%.%.%.%.%.%
   102f0:	25b825b8 25b825b8 25b825b8 25b825b8     .%.%.%.%.%.%.%.%
   10300:	25b825b8 25b825b8 25b825b8 25b825b8     .%.%.%.%.%.%.%.%
   10310:	25b825b8 25b825b8 1db81db8 155725b8     .%.%.%.%.....%W.
   10320:	25b825b8 25b825b8 25b825b8 25b825b8     .%.%.%.%.%.%.%.%
   10330:	25b825b8 25b825b8 25b825b8 25b825b8     .%.%.%.%.%.%.%.%
   10340:	25b825b8 25b825b8 25b825b8 25b825b8     .%.%.%.%.%.%.%.%
   10350:	25b825b8 25b825b8 25b825b8 25b825b8     .%.%.%.%.%.%.%.%
   10360:	25b825b8 25b825b8 25b825b8 25b825b8     .%.%.%.%.%.%.%.%
   10370:	25b825b8 25b825b8 25b825b8 25b825b8     .%.%.%.%.%.%.%.%
   10380:	25b825b8 25b825b8 25b825b8 25b825b8     .%.%.%.%.%.%.%.%
   10390:	25b825b8 25b825b8 25b825b8 25b825b8     .%.%.%.%.%.%.%.%
   103a0:	25b825b8 25b825b8 25b825b8 25b825b8     .%.%.%.%.%.%.%.%
   103b0:	25b825b8 25b825b8 25b825b8 25b825b8     .%.%.%.%.%.%.%.%
   103c0:	25b825b8 25b825b8 25b825b8 1db81db8     .%.%.%.%.%.%....
   103d0:	25b825b8 25b825b8 25982598 25b825b8     .%.%.%.%.%.%.%.%
   103e0:	25b825b8 25b825b8 25b825b8 25b825b8     .%.%.%.%.%.%.%.%
   103f0:	25b825b8 259825b8 2d972597 45973d97     .%.%.%.%.%.-.=.E
   10400:	45774577 45774577 45774577 45774577     wEwEwEwEwEwEwEwE
   10410:	45974577 35973d98 25b82597 25b825b8     wE.E.=.5.%.%.%.%
   10420:	25982598 2d972597 45973d97 45774577     .%.%.%.-.=.EwEwE
   10430:	45774577 45774577 45774577 45974577     wEwEwEwEwEwEwE.E
   10440:	35983d97 25982d97 1db825b8 25b825b8     .=.5.-.%.%...%.%
   10450:	25b825b8 1db81db8 25981db8 25982598     .%.%.......%.%.%
   10460:	2d972598 45773d97 45774577 45774577     .%.-.=wEwEwEwEwE
   10470:	45974577 45974577 35973d97 25982597     wE.EwE.E.=.5.%.%
   10480:	25b825b8 25b825b8 25b825b8 25b825b8     .%.%.%.%.%.%.%.%
   10490:	25982598 25982598 25b825b8 25b825b8     .%.%.%.%.%.%.%.%
   104a0:	25b825b8 25b825b8 25b825b8 25b825b8     .%.%.%.%.%.%.%.%
   104b0:	25b825b8 25b825b8 25b825b8 25b825b8     .%.%.%.%.%.%.%.%
   104c0:	25b825b8 25b825b8 25b825b8 25b825b8     .%.%.%.%.%.%.%.%
   104d0:	25b825b8 25b825b8 25b825b8 25b825b8     .%.%.%.%.%.%.%.%
   104e0:	25b825b8 25b825b8 25b825b8 25b825b8     .%.%.%.%.%.%.%.%
   104f0:	25b825b8 25b825b8 1db81db8 25b825b8     .%.%.%.%.....%.%
   10500:	25b825b8 25b825b8 25b825b8 25b825b8     .%.%.%.%.%.%.%.%
   10510:	25b825b8 25b825b8 25b825b8 25b825b8     .%.%.%.%.%.%.%.%
   10520:	25b825b8 25b825b8 25b825b8 1db81db8     .%.%.%.%.%.%....
   10530:	25b825b8 25b825b8 25b825b8 25982598     .%.%.%.%.%.%.%.%
   10540:	25b825b8 25b825b8 25b825b8 25b825b8     .%.%.%.%.%.%.%.%
   10550:	25b825b8 25b825b8 25b825b8 25b825b8     .%.%.%.%.%.%.%.%
   10560:	25b825b8 25b825b8 25b825b8 25b825b8     .%.%.%.%.%.%.%.%
   10570:	25b825b8 25b825b8 25b825b8 25b825b8     .%.%.%.%.%.%.%.%
   10580:	25b825b8 25b825b8 25b825b8 25b825b8     .%.%.%.%.%.%.%.%
   10590:	25b825b8 25b825b8 1db81db8 155725b8     .%.%.%.%.....%W.
   105a0:	25b825b8 25b825b8 25b825b8 25b825b8     .%.%.%.%.%.%.%.%
   105b0:	25b825b8 25b825b8 25b825b8 25b825b8     .%.%.%.%.%.%.%.%
   105c0:	25b825b8 25b825b8 25b825b8 25b825b8     .%.%.%.%.%.%.%.%
   105d0:	25b825b8 25b825b8 25b825b8 25b825b8     .%.%.%.%.%.%.%.%
   105e0:	25b825b8 25b825b8 25b825b8 25b825b8     .%.%.%.%.%.%.%.%
   105f0:	25b825b8 25b825b8 25b825b8 25b825b8     .%.%.%.%.%.%.%.%
   10600:	25b825b8 25b825b8 25b825b8 25b825b8     .%.%.%.%.%.%.%.%
   10610:	25b825b8 25b825b8 25b825b8 25b825b8     .%.%.%.%.%.%.%.%
   10620:	25b825b8 25b825b8 25b825b8 25b825b8     .%.%.%.%.%.%.%.%
   10630:	25b825b8 25b825b8 25b825b8 25b825b8     .%.%.%.%.%.%.%.%
   10640:	25b825b8 25b825b8 25b825b8 25b825b8     .%.%.%.%.%.%.%.%
   10650:	25b825b8 25b825b8 25b825b8 25b825b8     .%.%.%.%.%.%.%.%
   10660:	25b825b8 25b825b8 25b825b8 25b825b8     .%.%.%.%.%.%.%.%
   10670:	25b825b8 25982598 25972598 2d772577     .%.%.%.%.%.%w%w-
   10680:	2d772577 2d772d77 2d772d77 2d772d77     w%w-w-w-w-w-w-w-
   10690:	2d772d77 25982597 1d9825b8 25b825b8     w-w-.%.%.%...%.%
   106a0:	25982598 25971d98 2d772577 2d572d77     .%.%...%w%w-w-W-
   106b0:	2d772d77 2d772d77 2d772d77 25772d77     w-w-w-w-w-w-w-w%
   106c0:	25972597 25b82598 25b825b8 25b825b8     .%.%.%.%.%.%.%.%
   106d0:	25b825b8 25b825b8 25b825b8 259825b8     .%.%.%.%.%.%.%.%
   106e0:	25972598 2d772577 2d772577 2d772d77     .%.%w%w-w%w-w-w-
   106f0:	2d772d77 2d772d77 25972577 25982597     w-w-w-w-w%.%.%.%
   10700:	25b825b8 25b825b8 25b825b8 25b825b8     .%.%.%.%.%.%.%.%
   10710:	25b825b8 25b825b8 25b825b8 25b825b8     .%.%.%.%.%.%.%.%
   10720:	25b825b8 25b825b8 25b825b8 25b825b8     .%.%.%.%.%.%.%.%
   10730:	25b825b8 25b825b8 25b825b8 25b825b8     .%.%.%.%.%.%.%.%
   10740:	25b825b8 25b825b8 25b825b8 25b825b8     .%.%.%.%.%.%.%.%
   10750:	25b825b8 25b825b8 25b825b8 25b825b8     .%.%.%.%.%.%.%.%
   10760:	25b825b8 25b825b8 25b825b8 25b825b8     .%.%.%.%.%.%.%.%
   10770:	25b825b8 25b825b8 25b825b8 25b825b8     .%.%.%.%.%.%.%.%
   10780:	25b825b8 25b825b8 25b825b8 25b825b8     .%.%.%.%.%.%.%.%
   10790:	25b825b8 25b825b8 25b825b8 25b825b8     .%.%.%.%.%.%.%.%
   107a0:	25b825b8 25b825b8 25b825b8 25b825b8     .%.%.%.%.%.%.%.%
   107b0:	25b825b8 25b825b8 25b825b8 25b825b8     .%.%.%.%.%.%.%.%
   107c0:	25b825b8 25b825b8 25b825b8 25b825b8     .%.%.%.%.%.%.%.%
   107d0:	25b825b8 25b825b8 25b825b8 25b825b8     .%.%.%.%.%.%.%.%
   107e0:	25b825b8 25b825b8 25b825b8 25b825b8     .%.%.%.%.%.%.%.%
   107f0:	25b825b8 25b825b8 25b825b8 25b825b8     .%.%.%.%.%.%.%.%
   10800:	25b825b8 25b825b8 25b825b8 25b825b8     .%.%.%.%.%.%.%.%
   10810:	25b825b8 25b825b8 1db81db8 155725b8     .%.%.%.%.....%W.
   10820:	25b825b8 25b825b8 25b825b8 25b825b8     .%.%.%.%.%.%.%.%
   10830:	25b825b8 25b825b8 25b825b8 25b825b8     .%.%.%.%.%.%.%.%
   10840:	25b825b8 25b825b8 25b825b8 25b825b8     .%.%.%.%.%.%.%.%
   10850:	25b825b8 25b825b8 25b825b8 25b825b8     .%.%.%.%.%.%.%.%
   10860:	25b825b8 25b825b8 25b825b8 25b825b8     .%.%.%.%.%.%.%.%
   10870:	25b825b8 25b825b8 25b825b8 25b825b8     .%.%.%.%.%.%.%.%
   10880:	25b825b8 25b825b8 25b825b8 25b825b8     .%.%.%.%.%.%.%.%
   10890:	25b825b8 25b825b8 25b825b8 25b825b8     .%.%.%.%.%.%.%.%
   108a0:	25b825b8 25b825b8 25b825b8 25b825b8     .%.%.%.%.%.%.%.%
   108b0:	25b825b8 25b825b8 25b825b8 25b825b8     .%.%.%.%.%.%.%.%
   108c0:	25b825b8 25b825b8 25b825b8 25b825b8     .%.%.%.%.%.%.%.%
   108d0:	25b825b8 25b825b8 25b825b8 25b825b8     .%.%.%.%.%.%.%.%
   108e0:	25b825b8 25b825b8 25b825b8 25b825b8     .%.%.%.%.%.%.%.%
   108f0:	25b825b8 25982598 25b825b8 25b825b8     .%.%.%.%.%.%.%.%
   10900:	25b825b8 25b825b8 25b825b8 25b825b8     .%.%.%.%.%.%.%.%
   10910:	25b825b8 1d981d98 1db81d98 25b825b8     .%.%.........%.%
   10920:	25982598 25982598 25982598 25b825b8     .%.%.%.%.%.%.%.%
   10930:	25b825b8 25b825b8 1db825b8 1db825b8     .%.%.%.%.%...%..
   10940:	25b825b8 25b825b8 25b825b8 25b825b8     .%.%.%.%.%.%.%.%
   10950:	25b825b8 25b825b8 25b825b8 25b825b8     .%.%.%.%.%.%.%.%
   10960:	25b825b8 25b825b8 25b825b8 25b82598     .%.%.%.%.%.%.%.%
   10970:	25b825b8 259825b8 1d9825b8 25b825b8     .%.%.%.%.%...%.%
   10980:	25b825b8 25b825b8 25b825b8 25b825b8     .%.%.%.%.%.%.%.%
   10990:	25b825b8 25b825b8 25b825b8 25b825b8     .%.%.%.%.%.%.%.%
   109a0:	25b825b8 25b825b8 25b825b8 25b825b8     .%.%.%.%.%.%.%.%
   109b0:	25b825b8 25b825b8 25b825b8 25b825b8     .%.%.%.%.%.%.%.%
   109c0:	25b825b8 25b825b8 25b825b8 25b825b8     .%.%.%.%.%.%.%.%
   109d0:	25b825b8 25b825b8 25b825b8 25b825b8     .%.%.%.%.%.%.%.%
   109e0:	25b825b8 25b825b8 25b825b8 25b825b8     .%.%.%.%.%.%.%.%
   109f0:	25b825b8 25b825b8 25b825b8 25b825b8     .%.%.%.%.%.%.%.%
   10a00:	25b825b8 25b825b8 25b825b8 25b825b8     .%.%.%.%.%.%.%.%
   10a10:	25b825b8 25b825b8 25b825b8 25b825b8     .%.%.%.%.%.%.%.%
   10a20:	25b825b8 25b825b8 25b825b8 25b825b8     .%.%.%.%.%.%.%.%
   10a30:	25b825b8 25b825b8 25b825b8 25b825b8     .%.%.%.%.%.%.%.%
   10a40:	25b825b8 25b825b8 25b825b8 25b825b8     .%.%.%.%.%.%.%.%
   10a50:	25b825b8 25b825b8 25b825b8 25b825b8     .%.%.%.%.%.%.%.%
   10a60:	25b825b8 25b825b8 25b825b8 25b825b8     .%.%.%.%.%.%.%.%
   10a70:	25b825b8 25b825b8 25b825b8 25b825b8     .%.%.%.%.%.%.%.%
   10a80:	25b825b8 25b825b8 25b825b8 25b825b8     .%.%.%.%.%.%.%.%
   10a90:	25b825b8 25b825b8 1db81db8 155725b8     .%.%.%.%.....%W.
   10aa0:	25b825b8 25b825b8 25b825b8 25b825b8     .%.%.%.%.%.%.%.%
   10ab0:	25b825b8 25b825b8 25b825b8 25b825b8     .%.%.%.%.%.%.%.%
   10ac0:	25b825b8 25b825b8 25b825b8 25b825b8     .%.%.%.%.%.%.%.%
   10ad0:	25b825b8 25b825b8 25b825b8 25b825b8     .%.%.%.%.%.%.%.%
   10ae0:	25b825b8 25b825b8 25b825b8 25b825b8     .%.%.%.%.%.%.%.%
   10af0:	25b825b8 25b825b8 25b825b8 25b825b8     .%.%.%.%.%.%.%.%
   10b00:	25b825b8 25b825b8 25b825b8 25b825b8     .%.%.%.%.%.%.%.%
   10b10:	25b825b8 25b825b8 25b825b8 25b825b8     .%.%.%.%.%.%.%.%
   10b20:	25b825b8 25b825b8 25b825b8 25b825b8     .%.%.%.%.%.%.%.%
   10b30:	25b825b8 25b825b8 25b825b8 25b825b8     .%.%.%.%.%.%.%.%
   10b40:	25b825b8 25b825b8 25b825b8 25b825b8     .%.%.%.%.%.%.%.%
   10b50:	25b825b8 25b825b8 25b825b8 25b825b8     .%.%.%.%.%.%.%.%
   10b60:	25b825b8 25b825b8 25b825b8 25b825b8     .%.%.%.%.%.%.%.%
   10b70:	25b825b8 1d9825b8 25b825b8 25b825b8     .%.%.%...%.%.%.%
   10b80:	25b825b8 25b825b8 25b825b8 25b825b8     .%.%.%.%.%.%.%.%
   10b90:	259825b8 25b81d98 25b825b8 25b825b8     .%.%...%.%.%.%.%
   10ba0:	25b825b8 25b825b8 1d9825b8 25b825b8     .%.%.%.%.%...%.%
   10bb0:	25b825b8 1db81db8 1db81db8 1db81db8     .%.%............
   10bc0:	1db81db8 25b825b8 25b825b8 25b825b8     .....%.%.%.%.%.%
   10bd0:	25b825b8 25b825b8 25b825b8 25b825b8     .%.%.%.%.%.%.%.%
   10be0:	25b825b8 25b825b8 25b825b8 25982598     .%.%.%.%.%.%.%.%
   10bf0:	25b825b8 25982598 25b825b8 25b825b8     .%.%.%.%.%.%.%.%
   10c00:	25b825b8 25b825b8 25b825b8 25b825b8     .%.%.%.%.%.%.%.%
   10c10:	25b825b8 25b825b8 25b825b8 25b825b8     .%.%.%.%.%.%.%.%
   10c20:	25b825b8 25b825b8 25b825b8 25b825b8     .%.%.%.%.%.%.%.%
   10c30:	25b825b8 25b825b8 25b825b8 25b825b8     .%.%.%.%.%.%.%.%
   10c40:	25b825b8 25b825b8 25b825b8 25b825b8     .%.%.%.%.%.%.%.%
   10c50:	25b825b8 25b825b8 25b825b8 25b825b8     .%.%.%.%.%.%.%.%
   10c60:	25b825b8 25b825b8 25b825b8 25b825b8     .%.%.%.%.%.%.%.%
   10c70:	25b825b8 25b825b8 25b825b8 25b825b8     .%.%.%.%.%.%.%.%
   10c80:	25b825b8 25b825b8 25b825b8 25b825b8     .%.%.%.%.%.%.%.%
   10c90:	25b825b8 25b825b8 25b825b8 25b825b8     .%.%.%.%.%.%.%.%
   10ca0:	25b825b8 25b825b8 25b825b8 25b825b8     .%.%.%.%.%.%.%.%
   10cb0:	25b825b8 25b825b8 25b825b8 25b825b8     .%.%.%.%.%.%.%.%
   10cc0:	25b825b8 25b825b8 25b825b8 25b825b8     .%.%.%.%.%.%.%.%
   10cd0:	25b825b8 25b825b8 25b825b8 25b825b8     .%.%.%.%.%.%.%.%
   10ce0:	25b825b8 25b825b8 25b825b8 25b825b8     .%.%.%.%.%.%.%.%
   10cf0:	25b825b8 25b825b8 25b825b8 25b825b8     .%.%.%.%.%.%.%.%
   10d00:	25b825b8 25b825b8 25b825b8 25b825b8     .%.%.%.%.%.%.%.%
   10d10:	25b825b8 25b825b8 1db81db8 155725b8     .%.%.%.%.....%W.
   10d20:	25b825b8 25b825b8 25b825b8 25b825b8     .%.%.%.%.%.%.%.%
   10d30:	25b825b8 25b825b8 25b825b8 25b825b8     .%.%.%.%.%.%.%.%
   10d40:	25b825b8 25b825b8 25b825b8 25b825b8     .%.%.%.%.%.%.%.%
   10d50:	25b825b8 25b825b8 25b825b8 25b825b8     .%.%.%.%.%.%.%.%
   10d60:	25b825b8 25b825b8 25b825b8 25b825b8     .%.%.%.%.%.%.%.%
   10d70:	25b825b8 25b825b8 25b825b8 25b825b8     .%.%.%.%.%.%.%.%
   10d80:	25b825b8 25b825b8 25b825b8 25b825b8     .%.%.%.%.%.%.%.%
   10d90:	25b825b8 25b825b8 25b825b8 25b825b8     .%.%.%.%.%.%.%.%
   10da0:	25b825b8 25b825b8 25b825b8 25b825b8     .%.%.%.%.%.%.%.%
   10db0:	25b825b8 25b825b8 25b825b8 25b825b8     .%.%.%.%.%.%.%.%
   10dc0:	25b825b8 25b825b8 25b825b8 25b825b8     .%.%.%.%.%.%.%.%
   10dd0:	25b825b8 25b825b8 25b825b8 25b825b8     .%.%.%.%.%.%.%.%
   10de0:	25b825b8 25b825b8 25b825b8 25b825b8     .%.%.%.%.%.%.%.%
   10df0:	25b825b8 25b825b8 25b825b8 25b825b8     .%.%.%.%.%.%.%.%
   10e00:	25b825b8 25b825b8 25b825b8 25b825b8     .%.%.%.%.%.%.%.%
   10e10:	25b825b8 25b825b8 25b825b8 25b825b8     .%.%.%.%.%.%.%.%
   10e20:	25b825b8 25b825b8 1db81db8 25b825b8     .%.%.%.%.....%.%
   10e30:	1db81db8 1db81db8 1db81db8 1db81db8     ................
   10e40:	1db81db8 25b825b8 25b825b8 25b825b8     .....%.%.%.%.%.%
   10e50:	25b825b8 25b825b8 25b825b8 25b825b8     .%.%.%.%.%.%.%.%
   10e60:	25b825b8 25b825b8 25b825b8 25b825b8     .%.%.%.%.%.%.%.%
   10e70:	25b825b8 25982598 25b825b8 25b825b8     .%.%.%.%.%.%.%.%
   10e80:	25b825b8 25b825b8 25b825b8 25b825b8     .%.%.%.%.%.%.%.%
   10e90:	25b825b8 25b825b8 25b825b8 25b825b8     .%.%.%.%.%.%.%.%
   10ea0:	25b825b8 25b825b8 25b825b8 25b825b8     .%.%.%.%.%.%.%.%
   10eb0:	25b825b8 25b825b8 25b825b8 25b825b8     .%.%.%.%.%.%.%.%
   10ec0:	25b825b8 25b825b8 25b825b8 25b825b8     .%.%.%.%.%.%.%.%
   10ed0:	25b825b8 25b825b8 25b825b8 25b825b8     .%.%.%.%.%.%.%.%
   10ee0:	25b825b8 25b825b8 25b825b8 25b825b8     .%.%.%.%.%.%.%.%
   10ef0:	25b825b8 25b825b8 25b825b8 25b825b8     .%.%.%.%.%.%.%.%
   10f00:	25b825b8 25b825b8 25b825b8 25b825b8     .%.%.%.%.%.%.%.%
   10f10:	25b825b8 25b825b8 25b825b8 25b825b8     .%.%.%.%.%.%.%.%
   10f20:	25b825b8 25b825b8 25b825b8 25b825b8     .%.%.%.%.%.%.%.%
   10f30:	25b825b8 25b825b8 25b825b8 25b825b8     .%.%.%.%.%.%.%.%
   10f40:	25b825b8 25b825b8 25b825b8 25b825b8     .%.%.%.%.%.%.%.%
   10f50:	25b825b8 25b825b8 25b825b8 25b825b8     .%.%.%.%.%.%.%.%
   10f60:	25b825b8 25b825b8 25b825b8 25b825b8     .%.%.%.%.%.%.%.%
   10f70:	25b825b8 25b825b8 25b825b8 25b825b8     .%.%.%.%.%.%.%.%
   10f80:	25b825b8 25b825b8 25b825b8 25b825b8     .%.%.%.%.%.%.%.%
   10f90:	25b825b8 25b825b8 1db81db8 155725b8     .%.%.%.%.....%W.
   10fa0:	25b825b8 25b825b8 25b825b8 25b825b8     .%.%.%.%.%.%.%.%
   10fb0:	25b825b8 25b825b8 25b825b8 25b825b8     .%.%.%.%.%.%.%.%
   10fc0:	25b825b8 25b825b8 25b825b8 25b825b8     .%.%.%.%.%.%.%.%
   10fd0:	25b825b8 25b825b8 25b825b8 25b825b8     .%.%.%.%.%.%.%.%
   10fe0:	25b825b8 25b825b8 25b825b8 25b825b8     .%.%.%.%.%.%.%.%
   10ff0:	25b825b8 25b825b8 25b825b8 25b825b8     .%.%.%.%.%.%.%.%
   11000:	25b825b8 25b825b8 25b825b8 25b825b8     .%.%.%.%.%.%.%.%
   11010:	25b825b8 25b825b8 25b825b8 25b825b8     .%.%.%.%.%.%.%.%
   11020:	25b825b8 25b825b8 25b825b8 25b825b8     .%.%.%.%.%.%.%.%
   11030:	25b825b8 25b825b8 25b825b8 25b825b8     .%.%.%.%.%.%.%.%
   11040:	25b825b8 25b825b8 25b825b8 25b825b8     .%.%.%.%.%.%.%.%
   11050:	25b825b8 25b825b8 25b825b8 25b825b8     .%.%.%.%.%.%.%.%
   11060:	25b825b8 25b825b8 25b825b8 25b825b8     .%.%.%.%.%.%.%.%
   11070:	25b825b8 25b825b8 1db81db8 1db81db8     .%.%.%.%........
   11080:	1db81db8 25b825b8 25b825b8 25b825b8     .....%.%.%.%.%.%
   11090:	25b825b8 25b825b8 25b825b8 25b825b8     .%.%.%.%.%.%.%.%
   110a0:	25b825b8 25b825b8 25b825b8 1d9825b8     .%.%.%.%.%.%.%..
   110b0:	1db81db8 1db825b8 1db81db8 1db81db8     .....%..........
   110c0:	25b81d98 25b825b8 25b825b8 25b825b8     ...%.%.%.%.%.%.%
   110d0:	25b825b8 25b825b8 25b825b8 25b825b8     .%.%.%.%.%.%.%.%
   110e0:	25b825b8 25b825b8 25b825b8 25b825b8     .%.%.%.%.%.%.%.%
   110f0:	25b825b8 25982598 25982598 25982598     .%.%.%.%.%.%.%.%
   11100:	25b825b8 25b825b8 25b825b8 25b825b8     .%.%.%.%.%.%.%.%
   11110:	25b825b8 25b825b8 25b825b8 25b825b8     .%.%.%.%.%.%.%.%
   11120:	25b825b8 25b825b8 25b825b8 25b825b8     .%.%.%.%.%.%.%.%
   11130:	25b825b8 25b825b8 25b825b8 25b825b8     .%.%.%.%.%.%.%.%
   11140:	25b825b8 25b825b8 25b825b8 25b825b8     .%.%.%.%.%.%.%.%
   11150:	25b825b8 25b825b8 25b825b8 25b825b8     .%.%.%.%.%.%.%.%
   11160:	25b825b8 25b825b8 25b825b8 25b825b8     .%.%.%.%.%.%.%.%
   11170:	25b825b8 25b825b8 25b825b8 25b825b8     .%.%.%.%.%.%.%.%
   11180:	25b825b8 25b825b8 25b825b8 25b825b8     .%.%.%.%.%.%.%.%
   11190:	25b825b8 25b825b8 25b825b8 25b825b8     .%.%.%.%.%.%.%.%
   111a0:	25b825b8 25b825b8 25b825b8 25b825b8     .%.%.%.%.%.%.%.%
   111b0:	25b825b8 25b825b8 25b825b8 25b825b8     .%.%.%.%.%.%.%.%
   111c0:	25b825b8 25b825b8 25b825b8 25b825b8     .%.%.%.%.%.%.%.%
   111d0:	25b825b8 25b825b8 25b825b8 25b825b8     .%.%.%.%.%.%.%.%
   111e0:	25b825b8 25b825b8 25b825b8 25b825b8     .%.%.%.%.%.%.%.%
   111f0:	25b825b8 25b825b8 25b825b8 25b825b8     .%.%.%.%.%.%.%.%
   11200:	25b825b8 25b825b8 25b825b8 25b825b8     .%.%.%.%.%.%.%.%
   11210:	25b825b8 25b825b8 1db81db8 155725b8     .%.%.%.%.....%W.
   11220:	25b825b8 25b825b8 25b825b8 25b825b8     .%.%.%.%.%.%.%.%
   11230:	25b825b8 25b825b8 25b825b8 25b825b8     .%.%.%.%.%.%.%.%
   11240:	25b825b8 25b825b8 25b825b8 25b825b8     .%.%.%.%.%.%.%.%
   11250:	25b825b8 25b825b8 25b825b8 25b825b8     .%.%.%.%.%.%.%.%
   11260:	25b825b8 25b825b8 25b825b8 25b825b8     .%.%.%.%.%.%.%.%
   11270:	25b825b8 25b825b8 25b825b8 25b825b8     .%.%.%.%.%.%.%.%
   11280:	25b825b8 25b825b8 25b825b8 25b825b8     .%.%.%.%.%.%.%.%
   11290:	25b825b8 25b825b8 25b825b8 25b825b8     .%.%.%.%.%.%.%.%
   112a0:	25b825b8 25b825b8 25b825b8 25b825b8     .%.%.%.%.%.%.%.%
   112b0:	25b825b8 25b825b8 25b825b8 25b825b8     .%.%.%.%.%.%.%.%
   112c0:	25b825b8 25b825b8 25b825b8 25b825b8     .%.%.%.%.%.%.%.%
   112d0:	25b825b8 25b825b8 25b825b8 25b825b8     .%.%.%.%.%.%.%.%
   112e0:	25b825b8 25b825b8 25b825b8 25b825b8     .%.%.%.%.%.%.%.%
   112f0:	25b825b8 25b825b8 1db81db8 1db81db8     .%.%.%.%........
   11300:	1db81db8 25b825b8 25b825b8 25b825b8     .....%.%.%.%.%.%
   11310:	25b825b8 25b825b8 25b825b8 25b825b8     .%.%.%.%.%.%.%.%
   11320:	25b825b8 25b825b8 25b825b8 25b825b8     .%.%.%.%.%.%.%.%
   11330:	1db81db8 25b825b8 1db825b8 25b825b8     .....%.%.%...%.%
   11340:	25b825b8 25b825b8 25b825b8 25b825b8     .%.%.%.%.%.%.%.%
   11350:	25b825b8 25b825b8 25b825b8 25b825b8     .%.%.%.%.%.%.%.%
   11360:	25b825b8 25b825b8 25b825b8 25b825b8     .%.%.%.%.%.%.%.%
   11370:	25b825b8 25982598 25982598 25982598     .%.%.%.%.%.%.%.%
   11380:	25b825b8 25b825b8 25b825b8 25b825b8     .%.%.%.%.%.%.%.%
   11390:	25b825b8 25b825b8 25b825b8 25b825b8     .%.%.%.%.%.%.%.%
   113a0:	25b825b8 25b825b8 25b825b8 25b825b8     .%.%.%.%.%.%.%.%
   113b0:	25b825b8 25b825b8 25b825b8 25b825b8     .%.%.%.%.%.%.%.%
   113c0:	25b825b8 25b825b8 25b825b8 25b825b8     .%.%.%.%.%.%.%.%
   113d0:	25b825b8 25b825b8 25b825b8 25b825b8     .%.%.%.%.%.%.%.%
   113e0:	25b825b8 25b825b8 25b825b8 25b825b8     .%.%.%.%.%.%.%.%
   113f0:	25b825b8 25b825b8 25b825b8 25b825b8     .%.%.%.%.%.%.%.%
   11400:	25b825b8 25b825b8 25b825b8 25b825b8     .%.%.%.%.%.%.%.%
   11410:	25b825b8 25b825b8 25b825b8 25b825b8     .%.%.%.%.%.%.%.%
   11420:	25b825b8 25b825b8 25b825b8 25b825b8     .%.%.%.%.%.%.%.%
   11430:	25b825b8 25b825b8 25b825b8 25b825b8     .%.%.%.%.%.%.%.%
   11440:	25b825b8 25b825b8 25b825b8 25b825b8     .%.%.%.%.%.%.%.%
   11450:	25b825b8 25b825b8 25b825b8 25b825b8     .%.%.%.%.%.%.%.%
   11460:	25b825b8 25b825b8 25b825b8 25b825b8     .%.%.%.%.%.%.%.%
   11470:	25b825b8 25b825b8 25b825b8 25b825b8     .%.%.%.%.%.%.%.%
   11480:	25b825b8 25b825b8 25b825b8 25b825b8     .%.%.%.%.%.%.%.%
   11490:	25b825b8 25b825b8 1db81db8 155725b8     .%.%.%.%.....%W.
   114a0:	25b825b8 25b825b8 25b825b8 25b825b8     .%.%.%.%.%.%.%.%
   114b0:	25b825b8 25b825b8 25b825b8 25b825b8     .%.%.%.%.%.%.%.%
   114c0:	25b825b8 25b825b8 25b825b8 25b825b8     .%.%.%.%.%.%.%.%
   114d0:	25b825b8 25b825b8 25b825b8 25b825b8     .%.%.%.%.%.%.%.%
   114e0:	25b825b8 25b825b8 25b825b8 25b825b8     .%.%.%.%.%.%.%.%
   114f0:	25b825b8 25b825b8 25b825b8 25b825b8     .%.%.%.%.%.%.%.%
   11500:	25b825b8 25b825b8 25b825b8 25b825b8     .%.%.%.%.%.%.%.%
   11510:	25b825b8 25b825b8 25b825b8 25b825b8     .%.%.%.%.%.%.%.%
   11520:	25b825b8 25b825b8 25b825b8 25b825b8     .%.%.%.%.%.%.%.%
   11530:	25b825b8 25b825b8 25b825b8 25b825b8     .%.%.%.%.%.%.%.%
   11540:	25b825b8 25b825b8 25b825b8 25b825b8     .%.%.%.%.%.%.%.%
   11550:	25b825b8 25b825b8 25b825b8 25b825b8     .%.%.%.%.%.%.%.%
   11560:	25b825b8 25b825b8 25b825b8 25b825b8     .%.%.%.%.%.%.%.%
   11570:	25b825b8 25b825b8 1db81db8 1db81db8     .%.%.%.%........
   11580:	1db81db8 25b825b8 25b825b8 25b825b8     .....%.%.%.%.%.%
   11590:	25b825b8 25b825b8 25b825b8 25b825b8     .%.%.%.%.%.%.%.%
   115a0:	25b825b8 25982598 25b825b8 25b82598     .%.%.%.%.%.%.%.%
   115b0:	1db81db8 25b825b8 25b825b8 25982598     .....%.%.%.%.%.%
   115c0:	25b825b8 25982598 25982598 25982598     .%.%.%.%.%.%.%.%
   115d0:	25b825b8 25b825b8 1db81db8 25b82598     .%.%.%.%.....%.%
   115e0:	1db81db8 25b825b8 25b825b8 25b825b8     .....%.%.%.%.%.%
   115f0:	25b825b8 25b825b8 25b825b8 25982598     .%.%.%.%.%.%.%.%
   11600:	25b825b8 25b825b8 25b825b8 25b825b8     .%.%.%.%.%.%.%.%
   11610:	25b825b8 25b825b8 25b825b8 25b825b8     .%.%.%.%.%.%.%.%
   11620:	25b825b8 25b825b8 25b825b8 25b825b8     .%.%.%.%.%.%.%.%
   11630:	25b825b8 25b825b8 25b825b8 25b825b8     .%.%.%.%.%.%.%.%
   11640:	25b825b8 25b825b8 25b825b8 25b825b8     .%.%.%.%.%.%.%.%
   11650:	25b825b8 25b825b8 25b825b8 25b825b8     .%.%.%.%.%.%.%.%
   11660:	25b825b8 25b825b8 25b825b8 25b825b8     .%.%.%.%.%.%.%.%
   11670:	25b825b8 25b825b8 25b825b8 25b825b8     .%.%.%.%.%.%.%.%
   11680:	25b825b8 25b825b8 25b825b8 25b825b8     .%.%.%.%.%.%.%.%
   11690:	25b825b8 25b825b8 25b825b8 25b825b8     .%.%.%.%.%.%.%.%
   116a0:	25b825b8 25b825b8 25b825b8 25b825b8     .%.%.%.%.%.%.%.%
   116b0:	25b825b8 25b825b8 25b825b8 25b825b8     .%.%.%.%.%.%.%.%
   116c0:	25b825b8 25b825b8 25b825b8 25b825b8     .%.%.%.%.%.%.%.%
   116d0:	25b825b8 25b825b8 25b825b8 25b825b8     .%.%.%.%.%.%.%.%
   116e0:	25b825b8 25b825b8 25b825b8 25b825b8     .%.%.%.%.%.%.%.%
   116f0:	25b825b8 25b825b8 25b825b8 25b825b8     .%.%.%.%.%.%.%.%
   11700:	25b825b8 25b825b8 25b825b8 25b825b8     .%.%.%.%.%.%.%.%
   11710:	25b825b8 25b825b8 1db81db8 155725b8     .%.%.%.%.....%W.
   11720:	25b825b8 25b825b8 25b825b8 25b825b8     .%.%.%.%.%.%.%.%
   11730:	25b825b8 25b825b8 25b825b8 25b825b8     .%.%.%.%.%.%.%.%
   11740:	25b825b8 25b825b8 25b825b8 25b825b8     .%.%.%.%.%.%.%.%
   11750:	25b825b8 25b825b8 25b825b8 25b825b8     .%.%.%.%.%.%.%.%
   11760:	25b825b8 25b825b8 25b825b8 25b825b8     .%.%.%.%.%.%.%.%
   11770:	25b825b8 25b825b8 25b825b8 25b825b8     .%.%.%.%.%.%.%.%
   11780:	25b825b8 25b825b8 25b825b8 25b825b8     .%.%.%.%.%.%.%.%
   11790:	25b825b8 25b825b8 25b825b8 25b825b8     .%.%.%.%.%.%.%.%
   117a0:	25b825b8 25b825b8 25b825b8 25b825b8     .%.%.%.%.%.%.%.%
   117b0:	25b825b8 25b825b8 25b825b8 25b825b8     .%.%.%.%.%.%.%.%
   117c0:	25b825b8 25b825b8 25b825b8 25b825b8     .%.%.%.%.%.%.%.%
   117d0:	25b825b8 25b825b8 25b825b8 25b825b8     .%.%.%.%.%.%.%.%
   117e0:	25b825b8 25b825b8 25b825b8 25b825b8     .%.%.%.%.%.%.%.%
   117f0:	25b825b8 25b825b8 1db81db8 1db81db8     .%.%.%.%........
   11800:	1db81db8 25b825b8 25b825b8 25b825b8     .....%.%.%.%.%.%
   11810:	25b825b8 25b825b8 25b825b8 25b825b8     .%.%.%.%.%.%.%.%
   11820:	25b825b8 25982598 25b825b8 25b82598     .%.%.%.%.%.%.%.%
   11830:	25b825b8 259825b8 25b825b8 25982598     .%.%.%.%.%.%.%.%
   11840:	25b825b8 25982598 25982598 25982598     .%.%.%.%.%.%.%.%
   11850:	25b825b8 25b825b8 25b825b8 25982598     .%.%.%.%.%.%.%.%
   11860:	25b825b8 25b825b8 25b825b8 25b825b8     .%.%.%.%.%.%.%.%
   11870:	25b825b8 25b825b8 25b825b8 25982598     .%.%.%.%.%.%.%.%
   11880:	25b825b8 25b825b8 25b825b8 25b825b8     .%.%.%.%.%.%.%.%
   11890:	25b825b8 25b825b8 25b825b8 25b825b8     .%.%.%.%.%.%.%.%
   118a0:	25b825b8 25b825b8 25b825b8 25b825b8     .%.%.%.%.%.%.%.%
   118b0:	25b825b8 25b825b8 25b825b8 25b825b8     .%.%.%.%.%.%.%.%
   118c0:	25b825b8 25b825b8 25b825b8 25b825b8     .%.%.%.%.%.%.%.%
   118d0:	25b825b8 25b825b8 25b825b8 25b825b8     .%.%.%.%.%.%.%.%
   118e0:	25b825b8 25b825b8 25b825b8 25b825b8     .%.%.%.%.%.%.%.%
   118f0:	25b825b8 25b825b8 25b825b8 25b825b8     .%.%.%.%.%.%.%.%
   11900:	25b825b8 25b825b8 25b825b8 25b825b8     .%.%.%.%.%.%.%.%
   11910:	25b825b8 25b825b8 25b825b8 25b825b8     .%.%.%.%.%.%.%.%
   11920:	25b825b8 25b825b8 25b825b8 25b825b8     .%.%.%.%.%.%.%.%
   11930:	25b825b8 25b825b8 25b825b8 25b825b8     .%.%.%.%.%.%.%.%
   11940:	25b825b8 25b825b8 25b825b8 25b825b8     .%.%.%.%.%.%.%.%
   11950:	25b825b8 25b825b8 25b825b8 25b825b8     .%.%.%.%.%.%.%.%
   11960:	25b825b8 25b825b8 25b825b8 25b825b8     .%.%.%.%.%.%.%.%
   11970:	25b825b8 25b825b8 25b825b8 25b825b8     .%.%.%.%.%.%.%.%
   11980:	25b825b8 25b825b8 25b825b8 25b825b8     .%.%.%.%.%.%.%.%
   11990:	25b825b8 25b825b8 1db81db8 155725b8     .%.%.%.%.....%W.
   119a0:	25b825b8 25b825b8 25b825b8 25b825b8     .%.%.%.%.%.%.%.%
   119b0:	25b825b8 25b825b8 25b825b8 25b825b8     .%.%.%.%.%.%.%.%
   119c0:	25b825b8 25b825b8 25b825b8 25b825b8     .%.%.%.%.%.%.%.%
   119d0:	25b825b8 25b825b8 25b825b8 25b825b8     .%.%.%.%.%.%.%.%
   119e0:	25b825b8 25b825b8 25b825b8 25b825b8     .%.%.%.%.%.%.%.%
   119f0:	25b825b8 25b825b8 25b825b8 25b825b8     .%.%.%.%.%.%.%.%
   11a00:	25b825b8 25b825b8 25b825b8 25b825b8     .%.%.%.%.%.%.%.%
   11a10:	25b825b8 25b825b8 25b825b8 25b825b8     .%.%.%.%.%.%.%.%
   11a20:	25b825b8 25b825b8 25b825b8 25b825b8     .%.%.%.%.%.%.%.%
   11a30:	25b825b8 25b825b8 25b825b8 25b825b8     .%.%.%.%.%.%.%.%
   11a40:	25b825b8 25b825b8 25b825b8 25b825b8     .%.%.%.%.%.%.%.%
   11a50:	25b825b8 25b825b8 25b825b8 25b825b8     .%.%.%.%.%.%.%.%
   11a60:	25b825b8 25b825b8 25b825b8 25b825b8     .%.%.%.%.%.%.%.%
   11a70:	25b825b8 25b825b8 25b825b8 25b825b8     .%.%.%.%.%.%.%.%
   11a80:	25b825b8 25b825b8 25b825b8 25b825b8     .%.%.%.%.%.%.%.%
   11a90:	25b825b8 25b825b8 25b825b8 25b825b8     .%.%.%.%.%.%.%.%
   11aa0:	25b825b8 25b825b8 25b825b8 25b825b8     .%.%.%.%.%.%.%.%
   11ab0:	25b825b8 25b825b8 25b825b8 25b825b8     .%.%.%.%.%.%.%.%
   11ac0:	25b825b8 25982598 25982598 25982598     .%.%.%.%.%.%.%.%
   11ad0:	25b825b8 25982598 25982598 25982598     .%.%.%.%.%.%.%.%
   11ae0:	25b82598 25b825b8 25b825b8 25b825b8     .%.%.%.%.%.%.%.%
   11af0:	25b825b8 25b825b8 25b825b8 25b825b8     .%.%.%.%.%.%.%.%
   11b00:	25b825b8 25b825b8 25b825b8 25b825b8     .%.%.%.%.%.%.%.%
   11b10:	25b825b8 25b825b8 25b825b8 25b825b8     .%.%.%.%.%.%.%.%
   11b20:	25b825b8 25b825b8 25b825b8 25b825b8     .%.%.%.%.%.%.%.%
   11b30:	25b825b8 25b825b8 25b825b8 25b825b8     .%.%.%.%.%.%.%.%
   11b40:	25b825b8 25b825b8 25b825b8 25b825b8     .%.%.%.%.%.%.%.%
   11b50:	25b825b8 25b825b8 25b825b8 25b825b8     .%.%.%.%.%.%.%.%
   11b60:	25b825b8 25b825b8 25b825b8 25b825b8     .%.%.%.%.%.%.%.%
   11b70:	25b825b8 25b825b8 25b825b8 25b825b8     .%.%.%.%.%.%.%.%
   11b80:	25b825b8 25b825b8 25b825b8 25b825b8     .%.%.%.%.%.%.%.%
   11b90:	25b825b8 25b825b8 25b825b8 25b825b8     .%.%.%.%.%.%.%.%
   11ba0:	25b825b8 25b825b8 25b825b8 25b825b8     .%.%.%.%.%.%.%.%
   11bb0:	25b825b8 25b825b8 25b825b8 25b825b8     .%.%.%.%.%.%.%.%
   11bc0:	25b825b8 25b825b8 25b825b8 25b825b8     .%.%.%.%.%.%.%.%
   11bd0:	25b825b8 25b825b8 25b825b8 25b825b8     .%.%.%.%.%.%.%.%
   11be0:	25b825b8 25b825b8 25b825b8 25b825b8     .%.%.%.%.%.%.%.%
   11bf0:	25b825b8 25b825b8 25b825b8 25b825b8     .%.%.%.%.%.%.%.%
   11c00:	25b825b8 25b825b8 25b825b8 25b825b8     .%.%.%.%.%.%.%.%
   11c10:	25b825b8 25b825b8 1db81db8 155725b8     .%.%.%.%.....%W.
   11c20:	25b825b8 25b825b8 25b825b8 25b825b8     .%.%.%.%.%.%.%.%
   11c30:	25b825b8 25b825b8 25b825b8 25b825b8     .%.%.%.%.%.%.%.%
   11c40:	25b825b8 25b825b8 25b825b8 25b825b8     .%.%.%.%.%.%.%.%
   11c50:	25b825b8 25b825b8 25b825b8 25b825b8     .%.%.%.%.%.%.%.%
   11c60:	25b825b8 25b825b8 25b825b8 25b825b8     .%.%.%.%.%.%.%.%
   11c70:	25b825b8 25b825b8 25b825b8 25b825b8     .%.%.%.%.%.%.%.%
   11c80:	25b825b8 25b825b8 25b825b8 25b825b8     .%.%.%.%.%.%.%.%
   11c90:	25b825b8 25b825b8 25b825b8 25b825b8     .%.%.%.%.%.%.%.%
   11ca0:	25b825b8 25b825b8 25b825b8 25b825b8     .%.%.%.%.%.%.%.%
   11cb0:	25b825b8 25b825b8 25b825b8 25b825b8     .%.%.%.%.%.%.%.%
   11cc0:	25b825b8 25b825b8 25b825b8 25b825b8     .%.%.%.%.%.%.%.%
   11cd0:	25b825b8 25b825b8 25b825b8 25b825b8     .%.%.%.%.%.%.%.%
   11ce0:	25b825b8 25b825b8 25b825b8 25b825b8     .%.%.%.%.%.%.%.%
   11cf0:	25b825b8 25b825b8 25b825b8 25b825b8     .%.%.%.%.%.%.%.%
   11d00:	25b825b8 25b825b8 25b825b8 25b825b8     .%.%.%.%.%.%.%.%
   11d10:	25b825b8 25b825b8 25b825b8 25b825b8     .%.%.%.%.%.%.%.%
   11d20:	25b825b8 25b825b8 25b825b8 25b825b8     .%.%.%.%.%.%.%.%
   11d30:	25b825b8 25b825b8 25b825b8 25b825b8     .%.%.%.%.%.%.%.%
   11d40:	1d9825b8 259825b8 25982598 25b82598     .%...%.%.%.%.%.%
   11d50:	25b825b8 25982598 25982598 25982598     .%.%.%.%.%.%.%.%
   11d60:	25982598 25b81d98 25b825b8 25b825b8     .%.%...%.%.%.%.%
   11d70:	25b825b8 25b825b8 25b825b8 25b825b8     .%.%.%.%.%.%.%.%
   11d80:	25b825b8 25b825b8 25b825b8 25b825b8     .%.%.%.%.%.%.%.%
   11d90:	25b825b8 25b825b8 25b825b8 25b825b8     .%.%.%.%.%.%.%.%
   11da0:	25b825b8 25b825b8 25b825b8 25b825b8     .%.%.%.%.%.%.%.%
   11db0:	25b825b8 25b825b8 25b825b8 25b825b8     .%.%.%.%.%.%.%.%
   11dc0:	25b825b8 25b825b8 25b825b8 25b825b8     .%.%.%.%.%.%.%.%
   11dd0:	25b825b8 25b825b8 25b825b8 25b825b8     .%.%.%.%.%.%.%.%
   11de0:	25b825b8 25b825b8 25b825b8 25b825b8     .%.%.%.%.%.%.%.%
   11df0:	25b825b8 25b825b8 25b825b8 25b825b8     .%.%.%.%.%.%.%.%
   11e00:	25b825b8 25b825b8 25b825b8 25b825b8     .%.%.%.%.%.%.%.%
   11e10:	25b825b8 25b825b8 25b825b8 25b825b8     .%.%.%.%.%.%.%.%
   11e20:	25b825b8 25b825b8 25b825b8 25b825b8     .%.%.%.%.%.%.%.%
   11e30:	25b825b8 25b825b8 25b825b8 25b825b8     .%.%.%.%.%.%.%.%
   11e40:	25b825b8 25b825b8 25b825b8 25b825b8     .%.%.%.%.%.%.%.%
   11e50:	25b825b8 25b825b8 25b825b8 25b825b8     .%.%.%.%.%.%.%.%
   11e60:	25b825b8 25b825b8 25b825b8 25b825b8     .%.%.%.%.%.%.%.%
   11e70:	25b825b8 25b825b8 25b825b8 25b825b8     .%.%.%.%.%.%.%.%
   11e80:	25b825b8 25b825b8 25b825b8 25b825b8     .%.%.%.%.%.%.%.%
   11e90:	25b825b8 25b825b8 1db81db8 155725b8     .%.%.%.%.....%W.
   11ea0:	25b825b8 25b825b8 25b825b8 25b825b8     .%.%.%.%.%.%.%.%
   11eb0:	25b825b8 25b825b8 25b825b8 25b825b8     .%.%.%.%.%.%.%.%
   11ec0:	25b825b8 25b825b8 25b825b8 25b825b8     .%.%.%.%.%.%.%.%
   11ed0:	25b825b8 25b825b8 25b825b8 25b825b8     .%.%.%.%.%.%.%.%
   11ee0:	25b825b8 25b825b8 25b825b8 25b825b8     .%.%.%.%.%.%.%.%
   11ef0:	25b825b8 25b825b8 25b825b8 25b825b8     .%.%.%.%.%.%.%.%
   11f00:	25b825b8 25b825b8 25b825b8 25b825b8     .%.%.%.%.%.%.%.%
   11f10:	25b825b8 25b825b8 25b825b8 25b825b8     .%.%.%.%.%.%.%.%
   11f20:	25b825b8 25b825b8 25b825b8 25b825b8     .%.%.%.%.%.%.%.%
   11f30:	25b825b8 25b825b8 25b825b8 25b825b8     .%.%.%.%.%.%.%.%
   11f40:	25b825b8 25b825b8 25b825b8 25b825b8     .%.%.%.%.%.%.%.%
   11f50:	25b825b8 25b825b8 25b825b8 25b825b8     .%.%.%.%.%.%.%.%
   11f60:	25b825b8 25b825b8 25b825b8 25b825b8     .%.%.%.%.%.%.%.%
   11f70:	25b825b8 25b825b8 25b825b8 25b825b8     .%.%.%.%.%.%.%.%
   11f80:	25b825b8 25b825b8 25b825b8 25b825b8     .%.%.%.%.%.%.%.%
   11f90:	25b825b8 25b825b8 25b825b8 25b825b8     .%.%.%.%.%.%.%.%
   11fa0:	25b825b8 25b825b8 25b825b8 25b825b8     .%.%.%.%.%.%.%.%
   11fb0:	25b825b8 25b825b8 25b825b8 25b825b8     .%.%.%.%.%.%.%.%
   11fc0:	25b825b8 25b825b8 25b825b8 1db825b8     .%.%.%.%.%.%.%..
   11fd0:	25981db8 25982598 25982598 25b825b8     ...%.%.%.%.%.%.%
   11fe0:	25b825b8 25b825b8 25b825b8 25b825b8     .%.%.%.%.%.%.%.%
   11ff0:	25b825b8 25b825b8 25982598 25b825b8     .%.%.%.%.%.%.%.%
   12000:	25b825b8 25b825b8 25b825b8 25b825b8     .%.%.%.%.%.%.%.%
   12010:	25b825b8 25b825b8 25b825b8 25b825b8     .%.%.%.%.%.%.%.%
   12020:	25b825b8 25b825b8 25b825b8 25b825b8     .%.%.%.%.%.%.%.%
   12030:	25b825b8 25b825b8 25b825b8 25b825b8     .%.%.%.%.%.%.%.%
   12040:	25b825b8 25b825b8 25b825b8 25b825b8     .%.%.%.%.%.%.%.%
   12050:	25b825b8 25b825b8 25b825b8 25b825b8     .%.%.%.%.%.%.%.%
   12060:	25b825b8 25b825b8 25b825b8 25b825b8     .%.%.%.%.%.%.%.%
   12070:	25b825b8 25b825b8 25b825b8 25b825b8     .%.%.%.%.%.%.%.%
   12080:	25b825b8 25b825b8 25b825b8 25b825b8     .%.%.%.%.%.%.%.%
   12090:	25b825b8 25b825b8 25b825b8 25b825b8     .%.%.%.%.%.%.%.%
   120a0:	25b825b8 25b825b8 25b825b8 25b825b8     .%.%.%.%.%.%.%.%
   120b0:	25b825b8 25b825b8 25b825b8 25b825b8     .%.%.%.%.%.%.%.%
   120c0:	25b825b8 25b825b8 25b825b8 25b825b8     .%.%.%.%.%.%.%.%
   120d0:	25b825b8 25b825b8 25b825b8 25b825b8     .%.%.%.%.%.%.%.%
   120e0:	25b825b8 25b825b8 25b825b8 25b825b8     .%.%.%.%.%.%.%.%
   120f0:	25b825b8 25b825b8 25b825b8 25b825b8     .%.%.%.%.%.%.%.%
   12100:	25b825b8 25b825b8 25b825b8 25b825b8     .%.%.%.%.%.%.%.%
   12110:	25b825b8 25b825b8 1db81db8 155725b8     .%.%.%.%.....%W.
   12120:	25b825b8 25b825b8 25b825b8 25b825b8     .%.%.%.%.%.%.%.%
   12130:	25b825b8 25b825b8 25b825b8 25b825b8     .%.%.%.%.%.%.%.%
   12140:	25b825b8 25b825b8 25b825b8 25b825b8     .%.%.%.%.%.%.%.%
   12150:	25b825b8 25b825b8 25b825b8 25b825b8     .%.%.%.%.%.%.%.%
   12160:	25b825b8 25b825b8 25b825b8 25b825b8     .%.%.%.%.%.%.%.%
   12170:	25b825b8 25b825b8 25b825b8 25b825b8     .%.%.%.%.%.%.%.%
   12180:	25b825b8 25b825b8 25b825b8 25b825b8     .%.%.%.%.%.%.%.%
   12190:	25b825b8 25b825b8 25b825b8 25b825b8     .%.%.%.%.%.%.%.%
   121a0:	25b825b8 25b825b8 25b825b8 25b825b8     .%.%.%.%.%.%.%.%
   121b0:	25b825b8 25b825b8 25b825b8 25b825b8     .%.%.%.%.%.%.%.%
   121c0:	25b825b8 25b825b8 25b825b8 25b825b8     .%.%.%.%.%.%.%.%
   121d0:	25b825b8 25b825b8 25b825b8 25b825b8     .%.%.%.%.%.%.%.%
   121e0:	25b825b8 25b825b8 25b825b8 25b825b8     .%.%.%.%.%.%.%.%
   121f0:	25b825b8 25b825b8 25b825b8 25b825b8     .%.%.%.%.%.%.%.%
   12200:	25b825b8 25b825b8 25b825b8 25b825b8     .%.%.%.%.%.%.%.%
   12210:	25b825b8 25b825b8 25b825b8 25b825b8     .%.%.%.%.%.%.%.%
   12220:	25b825b8 25b825b8 25b825b8 25b825b8     .%.%.%.%.%.%.%.%
   12230:	25b825b8 25b825b8 25b825b8 25b825b8     .%.%.%.%.%.%.%.%
   12240:	25b825b8 1db81db8 25b825b8 1d981d98     .%.%.....%.%....
   12250:	1d981d98 25981d98 1d982598 25b825b8     .......%.%...%.%
   12260:	1d9825b8 25b825b8 25b81d98 25b825b8     .%...%.%...%.%.%
   12270:	25b825b8 25b825b8 25982598 25b825b8     .%.%.%.%.%.%.%.%
   12280:	25b825b8 25b825b8 25b825b8 25b825b8     .%.%.%.%.%.%.%.%
   12290:	25b825b8 25b825b8 25b825b8 25b825b8     .%.%.%.%.%.%.%.%
   122a0:	25b825b8 25b825b8 25b825b8 25b825b8     .%.%.%.%.%.%.%.%
   122b0:	25b825b8 25b825b8 25b825b8 25b825b8     .%.%.%.%.%.%.%.%
   122c0:	25b825b8 25b825b8 25b825b8 25b825b8     .%.%.%.%.%.%.%.%
   122d0:	25b825b8 25b825b8 25b825b8 25b825b8     .%.%.%.%.%.%.%.%
   122e0:	25b825b8 25b825b8 25b825b8 25b825b8     .%.%.%.%.%.%.%.%
   122f0:	25b825b8 25b825b8 25b825b8 25b825b8     .%.%.%.%.%.%.%.%
   12300:	25b825b8 25b825b8 25b825b8 25b825b8     .%.%.%.%.%.%.%.%
   12310:	25b825b8 25b825b8 25b825b8 25b825b8     .%.%.%.%.%.%.%.%
   12320:	25b825b8 25b825b8 25b825b8 25b825b8     .%.%.%.%.%.%.%.%
   12330:	25b825b8 25b825b8 25b825b8 25b825b8     .%.%.%.%.%.%.%.%
   12340:	25b825b8 25b825b8 25b825b8 25b825b8     .%.%.%.%.%.%.%.%
   12350:	25b825b8 25b825b8 25b825b8 25b825b8     .%.%.%.%.%.%.%.%
   12360:	25b825b8 25b825b8 25b825b8 25b825b8     .%.%.%.%.%.%.%.%
   12370:	25b825b8 25b825b8 25b825b8 25b825b8     .%.%.%.%.%.%.%.%
   12380:	25b825b8 25b825b8 25b825b8 25b825b8     .%.%.%.%.%.%.%.%
   12390:	25b825b8 25b825b8 1db81db8 155725b8     .%.%.%.%.....%W.
   123a0:	25b825b8 25b825b8 25b825b8 25b825b8     .%.%.%.%.%.%.%.%
   123b0:	25b825b8 25b825b8 25b825b8 25b825b8     .%.%.%.%.%.%.%.%
   123c0:	25b825b8 25b825b8 25b825b8 25b825b8     .%.%.%.%.%.%.%.%
   123d0:	25b825b8 25b825b8 25b825b8 25b825b8     .%.%.%.%.%.%.%.%
   123e0:	25b825b8 25b825b8 25b825b8 25b825b8     .%.%.%.%.%.%.%.%
   123f0:	25b825b8 25b825b8 25b825b8 25b825b8     .%.%.%.%.%.%.%.%
   12400:	25b825b8 25b825b8 25b825b8 25b825b8     .%.%.%.%.%.%.%.%
   12410:	25b825b8 25b825b8 25b825b8 25b825b8     .%.%.%.%.%.%.%.%
   12420:	25b825b8 25b825b8 25b825b8 25b825b8     .%.%.%.%.%.%.%.%
   12430:	25b825b8 25b825b8 25b825b8 25b825b8     .%.%.%.%.%.%.%.%
   12440:	25b825b8 25b825b8 25b825b8 25b825b8     .%.%.%.%.%.%.%.%
   12450:	25b825b8 25b825b8 25b825b8 25b825b8     .%.%.%.%.%.%.%.%
   12460:	25b825b8 25b825b8 25b825b8 25b825b8     .%.%.%.%.%.%.%.%
   12470:	25b825b8 25b825b8 25b825b8 25b825b8     .%.%.%.%.%.%.%.%
   12480:	25b825b8 25b825b8 25b825b8 25b825b8     .%.%.%.%.%.%.%.%
   12490:	25b825b8 25b825b8 25b825b8 25b825b8     .%.%.%.%.%.%.%.%
   124a0:	25b825b8 25b825b8 25982598 25b825b8     .%.%.%.%.%.%.%.%
   124b0:	25b825b8 25b825b8 25b825b8 25b825b8     .%.%.%.%.%.%.%.%
   124c0:	1d9825b8 1db81db8 25b81d98 1d9825b8     .%.........%.%..
   124d0:	25b82598 25b825b8 1d971d98 1d971d97     .%.%.%.%........
   124e0:	1db71db7 25b825b8 25b825b8 25b825b8     .....%.%.%.%.%.%
   124f0:	25b825b8 25b825b8 25b825b8 25b825b8     .%.%.%.%.%.%.%.%
   12500:	25b825b8 25b825b8 25b825b8 25b825b8     .%.%.%.%.%.%.%.%
   12510:	25b825b8 25b825b8 25b825b8 25b825b8     .%.%.%.%.%.%.%.%
   12520:	25b825b8 25b825b8 25b825b8 25b825b8     .%.%.%.%.%.%.%.%
   12530:	25b825b8 25b825b8 25b825b8 25b825b8     .%.%.%.%.%.%.%.%
   12540:	25b825b8 25b825b8 25b825b8 25b825b8     .%.%.%.%.%.%.%.%
   12550:	25b825b8 25b825b8 25b825b8 25b825b8     .%.%.%.%.%.%.%.%
   12560:	25b825b8 25b825b8 25b825b8 25b825b8     .%.%.%.%.%.%.%.%
   12570:	25b825b8 25b825b8 25b825b8 25b825b8     .%.%.%.%.%.%.%.%
   12580:	25b825b8 25b825b8 25b825b8 25b825b8     .%.%.%.%.%.%.%.%
   12590:	25b825b8 25b825b8 25b825b8 25b825b8     .%.%.%.%.%.%.%.%
   125a0:	25b825b8 25b825b8 25b825b8 25b825b8     .%.%.%.%.%.%.%.%
   125b0:	25b825b8 25b825b8 25b825b8 25b825b8     .%.%.%.%.%.%.%.%
   125c0:	25b825b8 25b825b8 25b825b8 25b825b8     .%.%.%.%.%.%.%.%
   125d0:	25b825b8 25b825b8 25b825b8 25b825b8     .%.%.%.%.%.%.%.%
   125e0:	25b825b8 25b825b8 25b825b8 25b825b8     .%.%.%.%.%.%.%.%
   125f0:	25b825b8 25b825b8 25b825b8 25b825b8     .%.%.%.%.%.%.%.%
   12600:	25b825b8 25b825b8 25b825b8 25b825b8     .%.%.%.%.%.%.%.%
   12610:	25b825b8 25b825b8 1d981db8 155625b8     .%.%.%.%.....%V.
   12620:	25b825b8 25b825b8 25b825b8 25b825b8     .%.%.%.%.%.%.%.%
   12630:	25b825b8 25b825b8 25b825b8 25b825b8     .%.%.%.%.%.%.%.%
   12640:	25b825b8 25b825b8 25b825b8 25b825b8     .%.%.%.%.%.%.%.%
   12650:	25b825b8 25b825b8 25b825b8 25b825b8     .%.%.%.%.%.%.%.%
   12660:	25b825b8 25b825b8 25b825b8 25b825b8     .%.%.%.%.%.%.%.%
   12670:	25b825b8 25b825b8 25b825b8 25b825b8     .%.%.%.%.%.%.%.%
   12680:	25b825b8 25b825b8 25b825b8 25b825b8     .%.%.%.%.%.%.%.%
   12690:	25b825b8 25b825b8 25b825b8 25b825b8     .%.%.%.%.%.%.%.%
   126a0:	25b825b8 25b825b8 25b825b8 25b825b8     .%.%.%.%.%.%.%.%
   126b0:	25b825b8 25b825b8 25b825b8 25b825b8     .%.%.%.%.%.%.%.%
   126c0:	25b825b8 25b825b8 25b825b8 25b825b8     .%.%.%.%.%.%.%.%
   126d0:	25b825b8 25b825b8 25b825b8 25b825b8     .%.%.%.%.%.%.%.%
   126e0:	25b825b8 25b825b8 25b825b8 25b825b8     .%.%.%.%.%.%.%.%
   126f0:	25b825b8 25b825b8 25b825b8 25b825b8     .%.%.%.%.%.%.%.%
   12700:	25b825b8 25b825b8 25b825b8 25b825b8     .%.%.%.%.%.%.%.%
   12710:	25b825b8 25b825b8 25b825b8 25b825b8     .%.%.%.%.%.%.%.%
   12720:	25b825b8 25b825b8 25982598 25b825b8     .%.%.%.%.%.%.%.%
   12730:	25b825b8 25b825b8 25b825b8 25b825b8     .%.%.%.%.%.%.%.%
   12740:	25b825b8 1d981d98 25972598 2d772577     .%.%.....%.%w%w-
   12750:	25772557 25772577 25772577 25772577     W%w%w%w%w%w%w%w%
   12760:	25772577 25982577 25b82598 25b825b8     w%w%w%.%.%.%.%.%
   12770:	25b825b8 25b825b8 25b825b8 25b825b8     .%.%.%.%.%.%.%.%
   12780:	25b825b8 25b825b8 25b825b8 25b825b8     .%.%.%.%.%.%.%.%
   12790:	25b825b8 25b825b8 25b825b8 25b825b8     .%.%.%.%.%.%.%.%
   127a0:	25b825b8 25b825b8 25b825b8 25b825b8     .%.%.%.%.%.%.%.%
   127b0:	25b825b8 25b825b8 25b825b8 25b825b8     .%.%.%.%.%.%.%.%
   127c0:	25b825b8 25b825b8 25b825b8 25b825b8     .%.%.%.%.%.%.%.%
   127d0:	25b825b8 25b825b8 25b825b8 25b825b8     .%.%.%.%.%.%.%.%
   127e0:	25b825b8 25b825b8 25b825b8 25b825b8     .%.%.%.%.%.%.%.%
   127f0:	25b825b8 25b825b8 25b825b8 25b825b8     .%.%.%.%.%.%.%.%
   12800:	25b825b8 25b825b8 25b825b8 25b825b8     .%.%.%.%.%.%.%.%
   12810:	25b825b8 25b825b8 25b825b8 25b825b8     .%.%.%.%.%.%.%.%
   12820:	25b825b8 25b825b8 25b825b8 25b825b8     .%.%.%.%.%.%.%.%
   12830:	25b825b8 25b825b8 25b825b8 25b825b8     .%.%.%.%.%.%.%.%
   12840:	25b825b8 25b825b8 25b825b8 25b825b8     .%.%.%.%.%.%.%.%
   12850:	25b825b8 25b825b8 25b825b8 25b825b8     .%.%.%.%.%.%.%.%
   12860:	25b825b8 25b825b8 25b825b8 25b825b8     .%.%.%.%.%.%.%.%
   12870:	25b825b8 25b825b8 25b825b8 25b825b8     .%.%.%.%.%.%.%.%
   12880:	25b825b8 25b825b8 25b825b8 25b825b8     .%.%.%.%.%.%.%.%
   12890:	25b825b8 25b825b8 1d981db8 155625b8     .%.%.%.%.....%V.
   128a0:	25b825b8 25b825b8 25b825b8 25b825b8     .%.%.%.%.%.%.%.%
   128b0:	25b825b8 25b825b8 25b825b8 25b825b8     .%.%.%.%.%.%.%.%
   128c0:	25b825b8 25b825b8 25b825b8 25b825b8     .%.%.%.%.%.%.%.%
   128d0:	25b825b8 25b825b8 25b825b8 25b825b8     .%.%.%.%.%.%.%.%
   128e0:	25b825b8 25b825b8 25b825b8 25b825b8     .%.%.%.%.%.%.%.%
   128f0:	25b825b8 25b825b8 25b825b8 25b825b8     .%.%.%.%.%.%.%.%
   12900:	25b825b8 25b825b8 25b825b8 25b825b8     .%.%.%.%.%.%.%.%
   12910:	25b825b8 25b825b8 25b825b8 25b825b8     .%.%.%.%.%.%.%.%
   12920:	25b825b8 25b825b8 25b825b8 25b825b8     .%.%.%.%.%.%.%.%
   12930:	25b825b8 25b825b8 25b825b8 25b825b8     .%.%.%.%.%.%.%.%
   12940:	25b825b8 25b825b8 25b825b8 25b825b8     .%.%.%.%.%.%.%.%
   12950:	25b825b8 25b825b8 25b825b8 25b825b8     .%.%.%.%.%.%.%.%
   12960:	25b825b8 25b825b8 25b825b8 25b825b8     .%.%.%.%.%.%.%.%
   12970:	25b825b8 25b825b8 25b825b8 25b825b8     .%.%.%.%.%.%.%.%
   12980:	25b825b8 25b825b8 25b825b8 25b825b8     .%.%.%.%.%.%.%.%
   12990:	1db81db8 25b825b8 25b825b8 25b825b8     .....%.%.%.%.%.%
   129a0:	25b825b8 25b825b8 25b825b8 25b825b8     .%.%.%.%.%.%.%.%
   129b0:	25b825b8 1db81db8 25b825b8 1db81db8     .%.%.....%.%....
   129c0:	25b825b8 1d9725b8 35b82597 45783d98     .%.%.%...%.5.=xE
   129d0:	45784577 3d974597 3d983d97 3d984598     wExE.E.=.=.=.E.=
   129e0:	3d983d98 2d773598 25b82597 25b825b8     .=.=.5w-.%.%.%.%
   129f0:	1db81db8 25b825b8 25b825b8 25982598     .....%.%.%.%.%.%
   12a00:	25b825b8 25b825b8 25b825b8 25b825b8     .%.%.%.%.%.%.%.%
   12a10:	25b825b8 25b825b8 25b825b8 25b825b8     .%.%.%.%.%.%.%.%
   12a20:	25b825b8 25b825b8 25b825b8 25b825b8     .%.%.%.%.%.%.%.%
   12a30:	25b825b8 25b825b8 25b825b8 25b825b8     .%.%.%.%.%.%.%.%
   12a40:	25b825b8 25b825b8 25b825b8 25b825b8     .%.%.%.%.%.%.%.%
   12a50:	25b825b8 25b825b8 25b825b8 25b825b8     .%.%.%.%.%.%.%.%
   12a60:	25b825b8 25b825b8 25b825b8 25b825b8     .%.%.%.%.%.%.%.%
   12a70:	25b825b8 25b825b8 25b825b8 25b825b8     .%.%.%.%.%.%.%.%
   12a80:	25b825b8 25b825b8 25b825b8 25b825b8     .%.%.%.%.%.%.%.%
   12a90:	25b825b8 25b825b8 25b825b8 25b825b8     .%.%.%.%.%.%.%.%
   12aa0:	25b825b8 25b825b8 25b825b8 25b825b8     .%.%.%.%.%.%.%.%
   12ab0:	25b825b8 25b825b8 25b825b8 25b825b8     .%.%.%.%.%.%.%.%
   12ac0:	25b825b8 25b825b8 25b825b8 25b825b8     .%.%.%.%.%.%.%.%
   12ad0:	25b825b8 25b825b8 25b825b8 25b825b8     .%.%.%.%.%.%.%.%
   12ae0:	25b825b8 25b825b8 25b825b8 25b825b8     .%.%.%.%.%.%.%.%
   12af0:	25b825b8 25b825b8 25b825b8 25b825b8     .%.%.%.%.%.%.%.%
   12b00:	25b825b8 25b825b8 25b825b8 25b825b8     .%.%.%.%.%.%.%.%
   12b10:	25b825b8 25b825b8 1d981db8 155725b8     .%.%.%.%.....%W.
   12b20:	25b825b8 25b825b8 25b825b8 25b825b8     .%.%.%.%.%.%.%.%
   12b30:	25b825b8 25b825b8 25b825b8 25b825b8     .%.%.%.%.%.%.%.%
   12b40:	25b825b8 25b825b8 25b825b8 25b825b8     .%.%.%.%.%.%.%.%
   12b50:	25b825b8 25b825b8 25b825b8 25b825b8     .%.%.%.%.%.%.%.%
   12b60:	25b825b8 25b825b8 25b825b8 25b825b8     .%.%.%.%.%.%.%.%
   12b70:	25b825b8 25b825b8 25b825b8 25b825b8     .%.%.%.%.%.%.%.%
   12b80:	25b825b8 25b825b8 25b825b8 25b825b8     .%.%.%.%.%.%.%.%
   12b90:	25b825b8 25b825b8 25b825b8 25b825b8     .%.%.%.%.%.%.%.%
   12ba0:	25b825b8 25b825b8 25b825b8 25b825b8     .%.%.%.%.%.%.%.%
   12bb0:	25b825b8 25b825b8 25b825b8 25b825b8     .%.%.%.%.%.%.%.%
   12bc0:	25b825b8 25b825b8 25b825b8 25b825b8     .%.%.%.%.%.%.%.%
   12bd0:	25b825b8 25b825b8 25b825b8 25b825b8     .%.%.%.%.%.%.%.%
   12be0:	25b825b8 25b825b8 25b825b8 25b825b8     .%.%.%.%.%.%.%.%
   12bf0:	25b825b8 25b825b8 25b825b8 25b825b8     .%.%.%.%.%.%.%.%
   12c00:	25b825b8 25b825b8 25b825b8 25b825b8     .%.%.%.%.%.%.%.%
   12c10:	1db81db8 25b825b8 25b825b8 25b825b8     .....%.%.%.%.%.%
   12c20:	25b825b8 25b825b8 25b825b8 25b825b8     .%.%.%.%.%.%.%.%
   12c30:	25b825b8 1db81db8 25b825b8 1db81db8     .%.%.....%.%....
   12c40:	259725b8 2d772598 24523557 2bb023b0     .%.%.%w-W5R$.#.+
   12c50:	2bb02bb0 2bb02bb0 2b902b90 2bb02bb0     .+.+.+.+.+.+.+.+
   12c60:	23d12bb0 35361bf2 25972d77 25b82598     .+.#..65w-.%.%.%
   12c70:	25b825b8 25b825b8 25b825b8 25982598     .%.%.%.%.%.%.%.%
   12c80:	25b825b8 25b825b8 25b825b8 25b825b8     .%.%.%.%.%.%.%.%
   12c90:	25b825b8 25b825b8 25b825b8 25b825b8     .%.%.%.%.%.%.%.%
   12ca0:	25b825b8 25b825b8 25b825b8 25b825b8     .%.%.%.%.%.%.%.%
   12cb0:	25b825b8 25b825b8 25b825b8 25b825b8     .%.%.%.%.%.%.%.%
   12cc0:	25b825b8 25b825b8 25b825b8 25b825b8     .%.%.%.%.%.%.%.%
   12cd0:	25b825b8 25b825b8 25b825b8 25b825b8     .%.%.%.%.%.%.%.%
   12ce0:	25b825b8 25b825b8 25b825b8 25b825b8     .%.%.%.%.%.%.%.%
   12cf0:	25b825b8 25b825b8 25b825b8 25b825b8     .%.%.%.%.%.%.%.%
   12d00:	25b825b8 25b825b8 25b825b8 25b825b8     .%.%.%.%.%.%.%.%
   12d10:	25b825b8 25b825b8 25b825b8 25b825b8     .%.%.%.%.%.%.%.%
   12d20:	25b825b8 25b825b8 25b825b8 25b825b8     .%.%.%.%.%.%.%.%
   12d30:	25b825b8 25b825b8 25b825b8 25b825b8     .%.%.%.%.%.%.%.%
   12d40:	25b825b8 25b825b8 25b825b8 25b825b8     .%.%.%.%.%.%.%.%
   12d50:	25b825b8 25b825b8 25b825b8 25b825b8     .%.%.%.%.%.%.%.%
   12d60:	25b825b8 25b825b8 25b825b8 25b825b8     .%.%.%.%.%.%.%.%
   12d70:	25b825b8 25b825b8 25b825b8 25b825b8     .%.%.%.%.%.%.%.%
   12d80:	25b825b8 25b825b8 25b825b8 25b825b8     .%.%.%.%.%.%.%.%
   12d90:	25b825b8 25b825b8 1d981db8 155725b8     .%.%.%.%.....%W.
   12da0:	25b825b8 25b825b8 25b825b8 25b825b8     .%.%.%.%.%.%.%.%
   12db0:	25b825b8 25b825b8 25b825b8 25b825b8     .%.%.%.%.%.%.%.%
   12dc0:	25b825b8 25b825b8 25b825b8 25b825b8     .%.%.%.%.%.%.%.%
   12dd0:	25b825b8 25b825b8 25b825b8 25b825b8     .%.%.%.%.%.%.%.%
   12de0:	25b825b8 25b825b8 25b825b8 25b825b8     .%.%.%.%.%.%.%.%
   12df0:	25b825b8 25b825b8 25b825b8 25b825b8     .%.%.%.%.%.%.%.%
   12e00:	25b825b8 25b825b8 25b825b8 25b825b8     .%.%.%.%.%.%.%.%
   12e10:	25b825b8 25b825b8 25b825b8 25b825b8     .%.%.%.%.%.%.%.%
   12e20:	25b825b8 25b825b8 25b825b8 25b825b8     .%.%.%.%.%.%.%.%
   12e30:	25b825b8 25b825b8 25b825b8 25b825b8     .%.%.%.%.%.%.%.%
   12e40:	25b825b8 25b825b8 25b825b8 25b825b8     .%.%.%.%.%.%.%.%
   12e50:	25b825b8 25b825b8 25b825b8 25b825b8     .%.%.%.%.%.%.%.%
   12e60:	25b825b8 25b825b8 25b825b8 25b825b8     .%.%.%.%.%.%.%.%
   12e70:	25b825b8 25b825b8 25b825b8 25b825b8     .%.%.%.%.%.%.%.%
   12e80:	25b825b8 25b825b8 25b825b8 25b825b8     .%.%.%.%.%.%.%.%
   12e90:	25b825b8 25b825b8 25b825b8 25b825b8     .%.%.%.%.%.%.%.%
   12ea0:	25982598 25b825b8 1db81db8 25b825b8     .%.%.%.%.....%.%
   12eb0:	25b825b8 25b825b8 25b825b8 1d971db8     .%.%.%.%.%.%....
   12ec0:	35b82d97 3d773598 02295556 00820042     .-.5.5w=VU).B...
   12ed0:	00820062 00620061 00a40083 00830083     b...a.b.........
   12ee0:	00630083 44f50147 25973d97 25b82598     ..c.G..D.=.%.%.%
   12ef0:	25b825b8 1db825b8 1db81db8 25b825b8     .%.%.%.......%.%
   12f00:	25982598 25b825b8 25b825b8 25b825b8     .%.%.%.%.%.%.%.%
   12f10:	25b825b8 25b825b8 25b825b8 25b825b8     .%.%.%.%.%.%.%.%
   12f20:	25b825b8 25b825b8 25b825b8 25b825b8     .%.%.%.%.%.%.%.%
   12f30:	25b825b8 25b825b8 25b825b8 25b825b8     .%.%.%.%.%.%.%.%
   12f40:	25b825b8 25b825b8 25b825b8 25b825b8     .%.%.%.%.%.%.%.%
   12f50:	25b825b8 25b825b8 25b825b8 25b825b8     .%.%.%.%.%.%.%.%
   12f60:	25b825b8 25b825b8 25b825b8 25b825b8     .%.%.%.%.%.%.%.%
   12f70:	25b825b8 25b825b8 25b825b8 25b825b8     .%.%.%.%.%.%.%.%
   12f80:	25b825b8 25b825b8 25b825b8 25b825b8     .%.%.%.%.%.%.%.%
   12f90:	25b825b8 25b825b8 25b825b8 25b825b8     .%.%.%.%.%.%.%.%
   12fa0:	25b825b8 25b825b8 25b825b8 25b825b8     .%.%.%.%.%.%.%.%
   12fb0:	25b825b8 25b825b8 25b825b8 25b825b8     .%.%.%.%.%.%.%.%
   12fc0:	25b825b8 25b825b8 25b825b8 25b825b8     .%.%.%.%.%.%.%.%
   12fd0:	25b825b8 25b825b8 25b825b8 25b825b8     .%.%.%.%.%.%.%.%
   12fe0:	25b825b8 25b825b8 25b825b8 25b825b8     .%.%.%.%.%.%.%.%
   12ff0:	25b825b8 25b825b8 25b825b8 25b825b8     .%.%.%.%.%.%.%.%
   13000:	25b825b8 25b825b8 25b825b8 25b825b8     .%.%.%.%.%.%.%.%
   13010:	25b825b8 25b825b8 1d981db8 155725b8     .%.%.%.%.....%W.
   13020:	25b825b8 25b825b8 25b825b8 25b825b8     .%.%.%.%.%.%.%.%
   13030:	25b825b8 25b825b8 25b825b8 25b825b8     .%.%.%.%.%.%.%.%
   13040:	25b825b8 25b825b8 25b825b8 25b825b8     .%.%.%.%.%.%.%.%
   13050:	25b825b8 25b825b8 25b825b8 25b825b8     .%.%.%.%.%.%.%.%
   13060:	25b825b8 25b825b8 25b825b8 25b825b8     .%.%.%.%.%.%.%.%
   13070:	25b825b8 25b825b8 25b825b8 25b825b8     .%.%.%.%.%.%.%.%
   13080:	25b825b8 25b825b8 25b825b8 25b825b8     .%.%.%.%.%.%.%.%
   13090:	25b825b8 25b825b8 25b825b8 25b825b8     .%.%.%.%.%.%.%.%
   130a0:	25b825b8 25b825b8 25b825b8 25b825b8     .%.%.%.%.%.%.%.%
   130b0:	25b825b8 25b825b8 25b825b8 25b825b8     .%.%.%.%.%.%.%.%
   130c0:	25b825b8 25b825b8 25b825b8 25b825b8     .%.%.%.%.%.%.%.%
   130d0:	25b825b8 25b825b8 25b825b8 25b825b8     .%.%.%.%.%.%.%.%
   130e0:	25b825b8 25b825b8 25b825b8 25b825b8     .%.%.%.%.%.%.%.%
   130f0:	25b825b8 25b825b8 25b825b8 25b825b8     .%.%.%.%.%.%.%.%
   13100:	25b825b8 25b825b8 25b825b8 25b825b8     .%.%.%.%.%.%.%.%
   13110:	25b825b8 25b825b8 25b825b8 25b825b8     .%.%.%.%.%.%.%.%
   13120:	25982598 25b825b8 1db81db8 25b825b8     .%.%.%.%.....%.%
   13130:	25b825b8 25b71d97 25b725b7 2d972598     .%.%...%.%.%.%.-
   13140:	2c932d15 44523c93 32a95451 49a439c5     .-.,.<RDQT.2.9.I
   13150:	41a449a4 418541a5 188328c4 42292966     .I.A.A.A.(..f))B
   13160:	3a094209 4c122a6b 2d563493 25982d97     .B.:k*.L.4V-.-.%
   13170:	25982598 1db825b8 1db81db8 25b825b8     .%.%.%.......%.%
   13180:	25982598 25b825b8 25b825b8 25b825b8     .%.%.%.%.%.%.%.%
   13190:	25b825b8 25b825b8 25b825b8 25b825b8     .%.%.%.%.%.%.%.%
   131a0:	25b825b8 25b825b8 25b825b8 25b825b8     .%.%.%.%.%.%.%.%
   131b0:	25b825b8 25b825b8 25b825b8 25b825b8     .%.%.%.%.%.%.%.%
   131c0:	25b825b8 25b825b8 25b825b8 25b825b8     .%.%.%.%.%.%.%.%
   131d0:	25b825b8 25b825b8 25b825b8 25b825b8     .%.%.%.%.%.%.%.%
   131e0:	25b825b8 25b825b8 25b825b8 25b825b8     .%.%.%.%.%.%.%.%
   131f0:	25b825b8 25b825b8 25b825b8 25b825b8     .%.%.%.%.%.%.%.%
   13200:	25b825b8 25b825b8 25b825b8 25b825b8     .%.%.%.%.%.%.%.%
   13210:	25b825b8 25b825b8 25b825b8 25b825b8     .%.%.%.%.%.%.%.%
   13220:	25b825b8 25b825b8 25b825b8 25b825b8     .%.%.%.%.%.%.%.%
   13230:	25b825b8 25b825b8 25b825b8 25b825b8     .%.%.%.%.%.%.%.%
   13240:	25b825b8 25b825b8 25b825b8 25b825b8     .%.%.%.%.%.%.%.%
   13250:	25b825b8 25b825b8 25b825b8 25b825b8     .%.%.%.%.%.%.%.%
   13260:	25b825b8 25b825b8 25b825b8 25b825b8     .%.%.%.%.%.%.%.%
   13270:	25b825b8 25b825b8 25b825b8 25b825b8     .%.%.%.%.%.%.%.%
   13280:	25b825b8 25b825b8 25b825b8 25b825b8     .%.%.%.%.%.%.%.%
   13290:	25b825b8 25b825b8 1d981db8 155725b8     .%.%.%.%.....%W.
   132a0:	25b825b8 25b825b8 25b825b8 25b825b8     .%.%.%.%.%.%.%.%
   132b0:	25b825b8 25b825b8 25b825b8 25b825b8     .%.%.%.%.%.%.%.%
   132c0:	25b825b8 25b825b8 25b825b8 25b825b8     .%.%.%.%.%.%.%.%
   132d0:	25b825b8 25b825b8 25b825b8 25b825b8     .%.%.%.%.%.%.%.%
   132e0:	25b825b8 25b825b8 25b825b8 25b825b8     .%.%.%.%.%.%.%.%
   132f0:	25b825b8 25b825b8 25b825b8 25b825b8     .%.%.%.%.%.%.%.%
   13300:	25b825b8 25b825b8 25b825b8 25b825b8     .%.%.%.%.%.%.%.%
   13310:	25b825b8 25b825b8 25b825b8 25b825b8     .%.%.%.%.%.%.%.%
   13320:	25b825b8 25b825b8 25b825b8 25b825b8     .%.%.%.%.%.%.%.%
   13330:	25b825b8 25b825b8 25b825b8 25b825b8     .%.%.%.%.%.%.%.%
   13340:	25b825b8 25b825b8 25b825b8 25b825b8     .%.%.%.%.%.%.%.%
   13350:	25b825b8 25b825b8 25b825b8 25b825b8     .%.%.%.%.%.%.%.%
   13360:	25b825b8 25b825b8 25b825b8 25b825b8     .%.%.%.%.%.%.%.%
   13370:	25b825b8 25b825b8 25b825b8 25b825b8     .%.%.%.%.%.%.%.%
   13380:	25b825b8 25b825b8 25b825b8 25b825b8     .%.%.%.%.%.%.%.%
   13390:	25b825b8 25b825b8 25b825b8 25b825b8     .%.%.%.%.%.%.%.%
   133a0:	25b825b8 25b825b8 25b825b8 25b825b8     .%.%.%.%.%.%.%.%
   133b0:	25b825b8 25b725b7 25972597 3d972597     .%.%.%.%.%.%.%.=
   133c0:	01663431 09040125 9cef10e2 ee51eeb4     14f.%.........Q.
   133d0:	ee52ee52 de14e674 08004185 ffffa4d4     R.R.t....A......
   133e0:	f7fff77e 1187cefc 34520106 25773d77     ~.........R4w=w%
   133f0:	25982598 25b82598 25b825b8 25b825b8     .%.%.%.%.%.%.%.%
   13400:	25b825b8 25982598 25b825b8 25b825b8     .%.%.%.%.%.%.%.%
   13410:	25b825b8 25b825b8 25b825b8 25b825b8     .%.%.%.%.%.%.%.%
   13420:	25b825b8 25b825b8 25b825b8 25b825b8     .%.%.%.%.%.%.%.%
   13430:	25b825b8 25b825b8 25b825b8 25b825b8     .%.%.%.%.%.%.%.%
   13440:	25b825b8 25b825b8 25b825b8 25b825b8     .%.%.%.%.%.%.%.%
   13450:	25b825b8 25b825b8 25b825b8 25b825b8     .%.%.%.%.%.%.%.%
   13460:	25b825b8 25b825b8 25b825b8 25b825b8     .%.%.%.%.%.%.%.%
   13470:	25b825b8 25b825b8 25b825b8 25b825b8     .%.%.%.%.%.%.%.%
   13480:	25b825b8 25b825b8 25b825b8 25b825b8     .%.%.%.%.%.%.%.%
   13490:	25b825b8 25b825b8 25b825b8 25b825b8     .%.%.%.%.%.%.%.%
   134a0:	25b825b8 25b825b8 25b825b8 25b825b8     .%.%.%.%.%.%.%.%
   134b0:	25b825b8 25b825b8 25b825b8 25b825b8     .%.%.%.%.%.%.%.%
   134c0:	25b825b8 25b825b8 25b825b8 25b825b8     .%.%.%.%.%.%.%.%
   134d0:	25b825b8 25b825b8 25b825b8 25b825b8     .%.%.%.%.%.%.%.%
   134e0:	25b825b8 25b825b8 25b825b8 25b825b8     .%.%.%.%.%.%.%.%
   134f0:	25b825b8 25b825b8 25b825b8 25b825b8     .%.%.%.%.%.%.%.%
   13500:	25b825b8 25b825b8 25b825b8 25b825b8     .%.%.%.%.%.%.%.%
   13510:	25b825b8 25b825b8 1d981db8 155725b8     .%.%.%.%.....%W.
   13520:	25b825b8 25b825b8 25b825b8 25b825b8     .%.%.%.%.%.%.%.%
   13530:	25b825b8 25b825b8 25b825b8 25b825b8     .%.%.%.%.%.%.%.%
   13540:	25b825b8 25b825b8 25b825b8 25b825b8     .%.%.%.%.%.%.%.%
   13550:	25b825b8 25b825b8 25b825b8 25b825b8     .%.%.%.%.%.%.%.%
   13560:	25b825b8 25b825b8 25b825b8 25b825b8     .%.%.%.%.%.%.%.%
   13570:	25b825b8 25b825b8 25b825b8 25b825b8     .%.%.%.%.%.%.%.%
   13580:	25b825b8 25b825b8 25b825b8 25b825b8     .%.%.%.%.%.%.%.%
   13590:	25b825b8 25b825b8 25b825b8 25b825b8     .%.%.%.%.%.%.%.%
   135a0:	25b825b8 25b825b8 25b825b8 25b825b8     .%.%.%.%.%.%.%.%
   135b0:	25b825b8 25b825b8 25b825b8 25b825b8     .%.%.%.%.%.%.%.%
   135c0:	25b825b8 25b825b8 25b825b8 25b825b8     .%.%.%.%.%.%.%.%
   135d0:	25b825b8 25b825b8 25b825b8 25b825b8     .%.%.%.%.%.%.%.%
   135e0:	25b825b8 25b825b8 25b825b8 25b825b8     .%.%.%.%.%.%.%.%
   135f0:	25b825b8 25b825b8 25b825b8 25b825b8     .%.%.%.%.%.%.%.%
   13600:	25b825b8 25b825b8 25b825b8 25b825b8     .%.%.%.%.%.%.%.%
   13610:	25b825b8 25b825b8 25b825b8 25b825b8     .%.%.%.%.%.%.%.%
   13620:	25b825b8 25b825b8 25b825b8 25b825b8     .%.%.%.%.%.%.%.%
   13630:	25b825b8 259725b7 2d972597 4d143536     .%.%.%.%.%.-65.M
   13640:	08e243ce 28e018e2 bcec28c0 fe6efed0     .C.....(.(....n.
   13650:	fe70fe6f de14ee53 104149c5 ffffad14     o.p.S....IA.....
   13660:	fffff7be 2987defc 43f100e5 35564d36     .......)...C6MV5
   13670:	25982d97 25982598 25b81d98 25b825b8     .-.%.%.%...%.%.%
   13680:	25b825b8 25982598 25b825b8 25b825b8     .%.%.%.%.%.%.%.%
   13690:	25b825b8 25b825b8 25b825b8 25b825b8     .%.%.%.%.%.%.%.%
   136a0:	25b825b8 25b825b8 25b825b8 25b825b8     .%.%.%.%.%.%.%.%
   136b0:	25b825b8 25b825b8 25b825b8 25b825b8     .%.%.%.%.%.%.%.%
   136c0:	25b825b8 25b825b8 25b825b8 25b825b8     .%.%.%.%.%.%.%.%
   136d0:	25b825b8 25b825b8 25b825b8 25b825b8     .%.%.%.%.%.%.%.%
   136e0:	25b825b8 25b825b8 25b825b8 25b825b8     .%.%.%.%.%.%.%.%
   136f0:	25b825b8 25b825b8 25b825b8 25b825b8     .%.%.%.%.%.%.%.%
   13700:	25b825b8 25b825b8 25b825b8 25b825b8     .%.%.%.%.%.%.%.%
   13710:	25b825b8 25b825b8 25b825b8 25b825b8     .%.%.%.%.%.%.%.%
   13720:	25b825b8 25b825b8 25b825b8 25b825b8     .%.%.%.%.%.%.%.%
   13730:	25b825b8 25b825b8 25b825b8 25b825b8     .%.%.%.%.%.%.%.%
   13740:	25b825b8 25b825b8 25b825b8 25b825b8     .%.%.%.%.%.%.%.%
   13750:	25b825b8 25b825b8 25b825b8 25b825b8     .%.%.%.%.%.%.%.%
   13760:	25b825b8 25b825b8 25b825b8 25b825b8     .%.%.%.%.%.%.%.%
   13770:	25b825b8 25b825b8 25b825b8 25b825b8     .%.%.%.%.%.%.%.%
   13780:	25b825b8 25b825b8 25b825b8 25b825b8     .%.%.%.%.%.%.%.%
   13790:	25b825b8 25b825b8 1d981db8 155725b8     .%.%.%.%.....%W.
   137a0:	25b825b8 25b825b8 25b825b8 25b825b8     .%.%.%.%.%.%.%.%
   137b0:	25b825b8 25b825b8 25b825b8 25b825b8     .%.%.%.%.%.%.%.%
   137c0:	25b825b8 25b825b8 25b825b8 25b825b8     .%.%.%.%.%.%.%.%
   137d0:	25b825b8 25b825b8 25b825b8 25b825b8     .%.%.%.%.%.%.%.%
   137e0:	25b825b8 25b825b8 25b825b8 25b825b8     .%.%.%.%.%.%.%.%
   137f0:	25b825b8 25b825b8 25b825b8 25b825b8     .%.%.%.%.%.%.%.%
   13800:	25b825b8 25b825b8 25b825b8 25b825b8     .%.%.%.%.%.%.%.%
   13810:	25b825b8 25b825b8 25b825b8 25b825b8     .%.%.%.%.%.%.%.%
   13820:	25b825b8 25b825b8 25b825b8 25b825b8     .%.%.%.%.%.%.%.%
   13830:	25b825b8 25b825b8 25b825b8 25b825b8     .%.%.%.%.%.%.%.%
   13840:	25b825b8 25b825b8 25b825b8 25b825b8     .%.%.%.%.%.%.%.%
   13850:	25b825b8 25b825b8 25b825b8 25b825b8     .%.%.%.%.%.%.%.%
   13860:	25b825b8 25b825b8 25b825b8 25b825b8     .%.%.%.%.%.%.%.%
   13870:	25b825b8 25b825b8 25b825b8 25b825b8     .%.%.%.%.%.%.%.%
   13880:	25b825b8 25b825b8 25b825b8 25b825b8     .%.%.%.%.%.%.%.%
   13890:	25b825b8 25b825b8 25b825b8 25b825b8     .%.%.%.%.%.%.%.%
   138a0:	25b825b8 25b825b8 25982598 25b825b8     .%.%.%.%.%.%.%.%
   138b0:	25982598 25772598 3d772577 09c623af     .%.%.%w%w%w=.#..
   138c0:	bd914ae9 cd6ec56f dd8bcd6c ed67ed88     .J..o.n.l.....g.
   138d0:	cca8f5a9 59c659a1 d679c595 ffffe73c     .....Y.Y..y.<...
   138e0:	fffff7be ce9af7be 430dce9b 23f101c8     ...........C...#
   138f0:	1d763577 25982597 25b81d98 25b825b8     w5v..%.%...%.%.%
   13900:	25b825b8 25b825b8 25b825b8 25b825b8     .%.%.%.%.%.%.%.%
   13910:	25b825b8 25b825b8 25b825b8 25b825b8     .%.%.%.%.%.%.%.%
   13920:	25b825b8 25b825b8 25b825b8 25b825b8     .%.%.%.%.%.%.%.%
   13930:	25b825b8 25b825b8 25b825b8 25b825b8     .%.%.%.%.%.%.%.%
   13940:	25b825b8 25b825b8 25b825b8 25b825b8     .%.%.%.%.%.%.%.%
   13950:	25b825b8 25b825b8 25b825b8 25b825b8     .%.%.%.%.%.%.%.%
   13960:	25b825b8 25b825b8 25b825b8 25b825b8     .%.%.%.%.%.%.%.%
   13970:	25b825b8 25b825b8 25b825b8 25b825b8     .%.%.%.%.%.%.%.%
   13980:	25b825b8 25b825b8 25b825b8 25b825b8     .%.%.%.%.%.%.%.%
   13990:	25b825b8 25b825b8 25b825b8 25b825b8     .%.%.%.%.%.%.%.%
   139a0:	25b825b8 25b825b8 25b825b8 25b825b8     .%.%.%.%.%.%.%.%
   139b0:	25b825b8 25b825b8 25b825b8 25b825b8     .%.%.%.%.%.%.%.%
   139c0:	25b825b8 25b825b8 25b825b8 25b825b8     .%.%.%.%.%.%.%.%
   139d0:	25b825b8 25b825b8 25b825b8 25b825b8     .%.%.%.%.%.%.%.%
   139e0:	25b825b8 25b825b8 25b825b8 25b825b8     .%.%.%.%.%.%.%.%
   139f0:	25b825b8 25b825b8 25b825b8 25b825b8     .%.%.%.%.%.%.%.%
   13a00:	25b825b8 25b825b8 25b825b8 25b825b8     .%.%.%.%.%.%.%.%
   13a10:	25b825b8 25b825b8 1d981db8 155725b8     .%.%.%.%.....%W.
   13a20:	25b825b8 25b825b8 25b825b8 25b825b8     .%.%.%.%.%.%.%.%
   13a30:	25b825b8 25b825b8 25b825b8 25b825b8     .%.%.%.%.%.%.%.%
   13a40:	25b825b8 25b825b8 25b825b8 25b825b8     .%.%.%.%.%.%.%.%
   13a50:	25b825b8 25b825b8 25b825b8 25b825b8     .%.%.%.%.%.%.%.%
   13a60:	25b825b8 25b825b8 25b825b8 25b825b8     .%.%.%.%.%.%.%.%
   13a70:	25b825b8 25b825b8 25b825b8 25b825b8     .%.%.%.%.%.%.%.%
   13a80:	25b825b8 25b825b8 25b825b8 25b825b8     .%.%.%.%.%.%.%.%
   13a90:	25b825b8 25b825b8 25b825b8 25b825b8     .%.%.%.%.%.%.%.%
   13aa0:	25b825b8 25b825b8 25b825b8 25b825b8     .%.%.%.%.%.%.%.%
   13ab0:	25b825b8 25b825b8 25b825b8 25b825b8     .%.%.%.%.%.%.%.%
   13ac0:	25b825b8 25b825b8 25b825b8 25b825b8     .%.%.%.%.%.%.%.%
   13ad0:	25b825b8 25b825b8 25b825b8 25b825b8     .%.%.%.%.%.%.%.%
   13ae0:	25b825b8 25b825b8 25b825b8 25b825b8     .%.%.%.%.%.%.%.%
   13af0:	25b825b8 25b825b8 25b825b8 25b825b8     .%.%.%.%.%.%.%.%
   13b00:	25b825b8 25b825b8 25b825b8 25b825b8     .%.%.%.%.%.%.%.%
   13b10:	25b825b8 25b825b8 25b825b8 25b825b8     .%.%.%.%.%.%.%.%
   13b20:	25b825b8 25b825b8 25b825b8 25b825b8     .%.%.%.%.%.%.%.%
   13b30:	25982598 2d9725b8 5db73d97 00202acb     .%.%.%.-.=.].* .
   13b40:	ff135223 feaffed1 f5a8fece ed44e524     #R..........$.D.
   13b50:	bc46ed66 30a22820 ffffe6da f7deffff     f.F. (.0........
   13b60:	f7ffffff ffffffff 3a29ffff 230d0042     ..........):B..#
   13b70:	359755b8 25982d97 25b82598 25b825b8     .U.5.-.%.%.%.%.%
   13b80:	25b825b8 25b825b8 25b825b8 25b825b8     .%.%.%.%.%.%.%.%
   13b90:	25b825b8 25b825b8 25b825b8 25b825b8     .%.%.%.%.%.%.%.%
   13ba0:	25b825b8 25b825b8 25b825b8 25b825b8     .%.%.%.%.%.%.%.%
   13bb0:	25b825b8 25b825b8 25b825b8 25b825b8     .%.%.%.%.%.%.%.%
   13bc0:	25b825b8 25b825b8 25b825b8 25b825b8     .%.%.%.%.%.%.%.%
   13bd0:	25b825b8 25b825b8 25b825b8 25b825b8     .%.%.%.%.%.%.%.%
   13be0:	25b825b8 25b825b8 25b825b8 25b825b8     .%.%.%.%.%.%.%.%
   13bf0:	25b825b8 25b825b8 25b825b8 25b825b8     .%.%.%.%.%.%.%.%
   13c00:	25b825b8 25b825b8 25b825b8 25b825b8     .%.%.%.%.%.%.%.%
   13c10:	25b825b8 25b825b8 25b825b8 25b825b8     .%.%.%.%.%.%.%.%
   13c20:	25b825b8 25b825b8 25b825b8 25b825b8     .%.%.%.%.%.%.%.%
   13c30:	25b825b8 25b825b8 25b825b8 25b825b8     .%.%.%.%.%.%.%.%
   13c40:	25b825b8 25b825b8 25b825b8 25b825b8     .%.%.%.%.%.%.%.%
   13c50:	25b825b8 25b825b8 25b825b8 25b825b8     .%.%.%.%.%.%.%.%
   13c60:	25b825b8 25b825b8 25b825b8 25b825b8     .%.%.%.%.%.%.%.%
   13c70:	25b825b8 25b825b8 25b825b8 25b825b8     .%.%.%.%.%.%.%.%
   13c80:	25b825b8 25b825b8 25b825b8 25b825b8     .%.%.%.%.%.%.%.%
   13c90:	25b825b8 25b825b8 1d981db8 155725b8     .%.%.%.%.....%W.
   13ca0:	25b825b8 25b825b8 25b825b8 25b825b8     .%.%.%.%.%.%.%.%
   13cb0:	25b825b8 25b825b8 25b825b8 25b825b8     .%.%.%.%.%.%.%.%
   13cc0:	25b825b8 25b825b8 25b825b8 25b825b8     .%.%.%.%.%.%.%.%
   13cd0:	25b825b8 25b825b8 25b825b8 25b825b8     .%.%.%.%.%.%.%.%
   13ce0:	25b825b8 25b825b8 25b825b8 25b825b8     .%.%.%.%.%.%.%.%
   13cf0:	25b825b8 25b825b8 25b825b8 25b825b8     .%.%.%.%.%.%.%.%
   13d00:	25b825b8 25b825b8 25b825b8 25b825b8     .%.%.%.%.%.%.%.%
   13d10:	25b825b8 25b825b8 25b825b8 25b825b8     .%.%.%.%.%.%.%.%
   13d20:	25b825b8 25b825b8 25b825b8 25b825b8     .%.%.%.%.%.%.%.%
   13d30:	25b825b8 25b825b8 25b825b8 25b825b8     .%.%.%.%.%.%.%.%
   13d40:	25b825b8 25b825b8 25b825b8 25b825b8     .%.%.%.%.%.%.%.%
   13d50:	25b825b8 25b825b8 25b825b8 25b825b8     .%.%.%.%.%.%.%.%
   13d60:	25b825b8 25b825b8 25b825b8 25b825b8     .%.%.%.%.%.%.%.%
   13d70:	25b825b8 25b825b8 25b825b8 25b825b8     .%.%.%.%.%.%.%.%
   13d80:	25b825b8 25b825b8 25b825b8 25b825b8     .%.%.%.%.%.%.%.%
   13d90:	25b825b8 25b825b8 25b825b8 25b825b8     .%.%.%.%.%.%.%.%
   13da0:	25b825b8 25b825b8 25b825b8 25b81db8     .%.%.%.%.%.%...%
   13db0:	25972598 3d562d77 22aa1b8f 8c0a638b     .%.%w-V=...".c..
   13dc0:	e5aab488 f5c7f5c9 f564f5a7 ed43f543     ..........d.C.C.
   13dd0:	bc45f5a6 30e33080 ef7cce57 ffffef7d     ..E..0.0W.|.}...
   13de0:	fffff7de 8410ef5d 8c72736e 53af94f4     ....]...nsr....S
   13df0:	1bb01a8b 25983577 25b82598 1db81db8     ....w5.%.%.%....
   13e00:	25b825b8 1db81db8 25b825b8 25b825b8     .%.%.....%.%.%.%
   13e10:	25b825b8 25b825b8 25b825b8 25b825b8     .%.%.%.%.%.%.%.%
   13e20:	25b825b8 25b825b8 25b825b8 25b825b8     .%.%.%.%.%.%.%.%
   13e30:	25b825b8 25b825b8 25b825b8 25b825b8     .%.%.%.%.%.%.%.%
   13e40:	25b825b8 25b825b8 25b825b8 25b825b8     .%.%.%.%.%.%.%.%
   13e50:	25b825b8 25b825b8 25b825b8 25b825b8     .%.%.%.%.%.%.%.%
   13e60:	25b825b8 25b825b8 25b825b8 25b825b8     .%.%.%.%.%.%.%.%
   13e70:	25b825b8 25b825b8 25b825b8 25b825b8     .%.%.%.%.%.%.%.%
   13e80:	25b825b8 25b825b8 25b825b8 25b825b8     .%.%.%.%.%.%.%.%
   13e90:	25b825b8 25b825b8 25b825b8 25b825b8     .%.%.%.%.%.%.%.%
   13ea0:	25b825b8 25b825b8 25b825b8 25b825b8     .%.%.%.%.%.%.%.%
   13eb0:	25b825b8 25b825b8 25b825b8 25b825b8     .%.%.%.%.%.%.%.%
   13ec0:	25b825b8 25b825b8 25b825b8 25b825b8     .%.%.%.%.%.%.%.%
   13ed0:	25b825b8 25b825b8 25b825b8 25b825b8     .%.%.%.%.%.%.%.%
   13ee0:	25b825b8 25b825b8 25b825b8 25b825b8     .%.%.%.%.%.%.%.%
   13ef0:	25b825b8 25b825b8 25b825b8 25b825b8     .%.%.%.%.%.%.%.%
   13f00:	25b825b8 25b825b8 25b825b8 25b825b8     .%.%.%.%.%.%.%.%
   13f10:	25b825b8 25b825b8 1d981db8 155725b8     .%.%.%.%.....%W.
   13f20:	25b825b8 25b825b8 25b825b8 25b825b8     .%.%.%.%.%.%.%.%
   13f30:	25b825b8 25b825b8 25b825b8 25b825b8     .%.%.%.%.%.%.%.%
   13f40:	25b825b8 25b825b8 25b825b8 25b825b8     .%.%.%.%.%.%.%.%
   13f50:	25b825b8 25b825b8 25b825b8 25b825b8     .%.%.%.%.%.%.%.%
   13f60:	25b825b8 25b825b8 25b825b8 25b825b8     .%.%.%.%.%.%.%.%
   13f70:	25b825b8 25b825b8 25b825b8 25b825b8     .%.%.%.%.%.%.%.%
   13f80:	25b825b8 25b825b8 25b825b8 25b825b8     .%.%.%.%.%.%.%.%
   13f90:	25b825b8 25b825b8 25b825b8 25b825b8     .%.%.%.%.%.%.%.%
   13fa0:	25b825b8 25b825b8 25b825b8 25b825b8     .%.%.%.%.%.%.%.%
   13fb0:	25b825b8 25b825b8 25b825b8 25b825b8     .%.%.%.%.%.%.%.%
   13fc0:	25b825b8 25b825b8 25b825b8 25b825b8     .%.%.%.%.%.%.%.%
   13fd0:	25b825b8 25b825b8 25b825b8 25b825b8     .%.%.%.%.%.%.%.%
   13fe0:	25b825b8 25b825b8 25b825b8 25b825b8     .%.%.%.%.%.%.%.%
   13ff0:	25b825b8 25b825b8 25b825b8 25b825b8     .%.%.%.%.%.%.%.%
   14000:	25b825b8 25b825b8 25b825b8 25b825b8     .%.%.%.%.%.%.%.%
   14010:	25b825b8 25b825b8 25b825b8 25b825b8     .%.%.%.%.%.%.%.%
   14020:	25b825b8 25b825b8 25b825b8 25b81db8     .%.%.%.%.%.%...%
   14030:	2d772598 5d763d97 00200185 ff33940a     .%w-.=v].. ...3.
   14040:	e525fe6c ed43e523 f542ed23 ed22f542     l.%.#.C.#.B.B.".
   14050:	bc66f586 28c23080 d6d9bdf6 ffffe77c     ..f..0.(....|...
   14060:	fffff7be 18a3dedb c5f80000 7c52ffff     ..............R|
   14070:	0a2a0042 25973d57 25b82598 1db81d98     B.*.W=.%.%.%....
   14080:	25b825b8 25b825b8 25b825b8 25b825b8     .%.%.%.%.%.%.%.%
   14090:	25b825b8 25b825b8 25b825b8 25b825b8     .%.%.%.%.%.%.%.%
   140a0:	25b825b8 25b825b8 25b825b8 25b825b8     .%.%.%.%.%.%.%.%
   140b0:	25b825b8 25b825b8 25b825b8 25b825b8     .%.%.%.%.%.%.%.%
   140c0:	25b825b8 25b825b8 25b825b8 25b825b8     .%.%.%.%.%.%.%.%
   140d0:	25b825b8 25b825b8 25b825b8 25b825b8     .%.%.%.%.%.%.%.%
   140e0:	25b825b8 25b825b8 25b825b8 25b825b8     .%.%.%.%.%.%.%.%
   140f0:	25b825b8 25b825b8 25b825b8 25b825b8     .%.%.%.%.%.%.%.%
   14100:	25b825b8 25b825b8 25b825b8 25b825b8     .%.%.%.%.%.%.%.%
   14110:	25b825b8 25b825b8 25b825b8 25b825b8     .%.%.%.%.%.%.%.%
   14120:	25b825b8 25b825b8 25b825b8 25b825b8     .%.%.%.%.%.%.%.%
   14130:	25b825b8 25b825b8 25b825b8 25b825b8     .%.%.%.%.%.%.%.%
   14140:	25b825b8 25b825b8 25b825b8 25b825b8     .%.%.%.%.%.%.%.%
   14150:	25b825b8 25b825b8 25b825b8 25b825b8     .%.%.%.%.%.%.%.%
   14160:	25b825b8 25b825b8 25b825b8 25b825b8     .%.%.%.%.%.%.%.%
   14170:	25b825b8 25b825b8 25b825b8 25b825b8     .%.%.%.%.%.%.%.%
   14180:	25b825b8 25b825b8 25b825b8 25b825b8     .%.%.%.%.%.%.%.%
   14190:	25b825b8 25b825b8 1d981db8 155725b8     .%.%.%.%.....%W.
   141a0:	25b825b8 25b825b8 25b825b8 25b825b8     .%.%.%.%.%.%.%.%
   141b0:	25b825b8 25b825b8 25b825b8 25b825b8     .%.%.%.%.%.%.%.%
   141c0:	25b825b8 25b825b8 25b825b8 25b825b8     .%.%.%.%.%.%.%.%
   141d0:	25b825b8 25b825b8 25b825b8 25b825b8     .%.%.%.%.%.%.%.%
   141e0:	25b825b8 25b825b8 25b825b8 25b825b8     .%.%.%.%.%.%.%.%
   141f0:	25b825b8 25b825b8 25b825b8 25b825b8     .%.%.%.%.%.%.%.%
   14200:	25b825b8 25b825b8 25b825b8 25b825b8     .%.%.%.%.%.%.%.%
   14210:	25b825b8 25b825b8 25b825b8 25b825b8     .%.%.%.%.%.%.%.%
   14220:	25b825b8 25b825b8 25b825b8 25b825b8     .%.%.%.%.%.%.%.%
   14230:	25b825b8 25b825b8 25b825b8 25b825b8     .%.%.%.%.%.%.%.%
   14240:	25b825b8 25b825b8 25b825b8 25b825b8     .%.%.%.%.%.%.%.%
   14250:	25b825b8 25b825b8 25b825b8 25b825b8     .%.%.%.%.%.%.%.%
   14260:	25b825b8 25b825b8 25b825b8 25b825b8     .%.%.%.%.%.%.%.%
   14270:	25b825b8 25b825b8 25b825b8 25b825b8     .%.%.%.%.%.%.%.%
   14280:	25b825b8 25b825b8 25b825b8 25b825b8     .%.%.%.%.%.%.%.%
   14290:	25b825b8 25b825b8 25b825b8 25b825b8     .%.%.%.%.%.%.%.%
   142a0:	25b825b8 25b825b8 1db71db7 25981db8     .%.%.%.%.......%
   142b0:	35362598 43ae2bf1 5a0152a6 fe0bb447     .%65.+.C.R.ZG...
   142c0:	ed44f5c7 f542ed22 f542f542 f523f542     ..D.".B.B.B.B.#.
   142d0:	c446f566 31033080 df19bdf5 fffeef7c     f.F..0.1....|...
   142e0:	fffff7de 3166e6fc c5b81062 7c11ffdf     ......f1b......|
   142f0:	1a4b0043 2d983d57 25b82598 25b825b8     C.K.W=.-.%.%.%.%
   14300:	25b825b8 25b825b8 25b825b8 25b825b8     .%.%.%.%.%.%.%.%
   14310:	25b825b8 25b825b8 25b825b8 25b825b8     .%.%.%.%.%.%.%.%
   14320:	25b825b8 25b825b8 25b825b8 25b825b8     .%.%.%.%.%.%.%.%
   14330:	25b825b8 25b825b8 25b825b8 25b825b8     .%.%.%.%.%.%.%.%
   14340:	25b825b8 25b825b8 25b825b8 25b825b8     .%.%.%.%.%.%.%.%
   14350:	25b825b8 25b825b8 25b825b8 25b825b8     .%.%.%.%.%.%.%.%
   14360:	25b825b8 25b825b8 25b825b8 25b825b8     .%.%.%.%.%.%.%.%
   14370:	25b825b8 25b825b8 25b825b8 25b825b8     .%.%.%.%.%.%.%.%
   14380:	25b825b8 25b825b8 25b825b8 25b825b8     .%.%.%.%.%.%.%.%
   14390:	25b825b8 25b825b8 25b825b8 25b825b8     .%.%.%.%.%.%.%.%
   143a0:	25b825b8 25b825b8 25b825b8 25b825b8     .%.%.%.%.%.%.%.%
   143b0:	25b825b8 25b825b8 25b825b8 25b825b8     .%.%.%.%.%.%.%.%
   143c0:	25b825b8 25b825b8 25b825b8 25b825b8     .%.%.%.%.%.%.%.%
   143d0:	25b825b8 25b825b8 25b825b8 25b825b8     .%.%.%.%.%.%.%.%
   143e0:	25b825b8 25b825b8 25b825b8 25b825b8     .%.%.%.%.%.%.%.%
   143f0:	25b825b8 25b825b8 25b825b8 25b825b8     .%.%.%.%.%.%.%.%
   14400:	25b825b8 25b825b8 25b825b8 25b825b8     .%.%.%.%.%.%.%.%
   14410:	25b825b8 25b825b8 1d981db8 155725b8     .%.%.%.%.....%W.
   14420:	25b825b8 25b825b8 25b825b8 25b825b8     .%.%.%.%.%.%.%.%
   14430:	25b825b8 25b825b8 25b825b8 25b825b8     .%.%.%.%.%.%.%.%
   14440:	25b825b8 25b825b8 25b825b8 25b825b8     .%.%.%.%.%.%.%.%
   14450:	25b825b8 25b825b8 25b825b8 25b825b8     .%.%.%.%.%.%.%.%
   14460:	25b825b8 25b825b8 25b825b8 25b825b8     .%.%.%.%.%.%.%.%
   14470:	25b825b8 25b825b8 25b825b8 25b825b8     .%.%.%.%.%.%.%.%
   14480:	25b825b8 25b825b8 25b825b8 25b825b8     .%.%.%.%.%.%.%.%
   14490:	25b825b8 25b825b8 25b825b8 25b825b8     .%.%.%.%.%.%.%.%
   144a0:	25b825b8 25b825b8 25b825b8 25b825b8     .%.%.%.%.%.%.%.%
   144b0:	25b825b8 25b825b8 25b825b8 25b825b8     .%.%.%.%.%.%.%.%
   144c0:	25b825b8 25b825b8 25b825b8 25b825b8     .%.%.%.%.%.%.%.%
   144d0:	25b825b8 25b825b8 25b825b8 25b825b8     .%.%.%.%.%.%.%.%
   144e0:	25b825b8 25b825b8 25b825b8 25b825b8     .%.%.%.%.%.%.%.%
   144f0:	25b825b8 25b825b8 25b825b8 25b825b8     .%.%.%.%.%.%.%.%
   14500:	25b825b8 25b825b8 25b825b8 25b825b8     .%.%.%.%.%.%.%.%
   14510:	25b825b8 25b825b8 25b825b8 25b825b8     .%.%.%.%.%.%.%.%
   14520:	25b825b8 25b81d97 1db71db7 25981d98     .%.%...%.......%
   14530:	2cd42d98 00810167 e5ceacad e568dd6a     .-.,g.......j.h.
   14540:	ed46e547 f544f565 f543f564 f543f522     G.F.e.D.d.C.".C.
   14550:	c445f566 28c03040 df3ac636 fffeef9c     f.E.@0.(6.:.....
   14560:	ffffffde 2905e6fc bdb70801 8411ffff     .......)........
   14570:	122a0023 2d974557 25982598 25b82598     #.*.WE.-.%.%.%.%
   14580:	25b825b8 25982598 25b825b8 25b825b8     .%.%.%.%.%.%.%.%
   14590:	25b825b8 25b825b8 25b825b8 25b825b8     .%.%.%.%.%.%.%.%
   145a0:	25b825b8 25b825b8 25b825b8 25b825b8     .%.%.%.%.%.%.%.%
   145b0:	25b825b8 25b825b8 25b825b8 25b825b8     .%.%.%.%.%.%.%.%
   145c0:	25b825b8 25b825b8 25b825b8 25b825b8     .%.%.%.%.%.%.%.%
   145d0:	25b825b8 25b825b8 25b825b8 25b825b8     .%.%.%.%.%.%.%.%
   145e0:	25b825b8 25b825b8 25b825b8 25b825b8     .%.%.%.%.%.%.%.%
   145f0:	25b825b8 25b825b8 25b825b8 25b825b8     .%.%.%.%.%.%.%.%
   14600:	25b825b8 25b825b8 25b825b8 25b825b8     .%.%.%.%.%.%.%.%
   14610:	25b825b8 25b825b8 25b825b8 25b825b8     .%.%.%.%.%.%.%.%
   14620:	25b825b8 25b825b8 25b825b8 25b825b8     .%.%.%.%.%.%.%.%
   14630:	25b825b8 25b825b8 25b825b8 25b825b8     .%.%.%.%.%.%.%.%
   14640:	25b825b8 25b825b8 25b825b8 25b825b8     .%.%.%.%.%.%.%.%
   14650:	25b825b8 25b825b8 25b825b8 25b825b8     .%.%.%.%.%.%.%.%
   14660:	25b825b8 25b825b8 25b825b8 25b825b8     .%.%.%.%.%.%.%.%
   14670:	25b825b8 25b825b8 25b825b8 25b825b8     .%.%.%.%.%.%.%.%
   14680:	25b825b8 25b825b8 25b825b8 25b825b8     .%.%.%.%.%.%.%.%
   14690:	25b825b8 25b825b8 1d981db8 155725b8     .%.%.%.%.....%W.
   146a0:	25b825b8 25b825b8 25b825b8 25b825b8     .%.%.%.%.%.%.%.%
   146b0:	25b825b8 25b825b8 25b825b8 25b825b8     .%.%.%.%.%.%.%.%
   146c0:	25b825b8 25b825b8 25b825b8 25b825b8     .%.%.%.%.%.%.%.%
   146d0:	25b825b8 25b825b8 25b825b8 25b825b8     .%.%.%.%.%.%.%.%
   146e0:	25b825b8 25b825b8 25b825b8 25b825b8     .%.%.%.%.%.%.%.%
   146f0:	25b825b8 25b825b8 25b825b8 25b825b8     .%.%.%.%.%.%.%.%
   14700:	25b825b8 25b825b8 25b825b8 25b825b8     .%.%.%.%.%.%.%.%
   14710:	25b825b8 25b825b8 25b825b8 25b825b8     .%.%.%.%.%.%.%.%
   14720:	25b825b8 25b825b8 25b825b8 25b825b8     .%.%.%.%.%.%.%.%
   14730:	25b825b8 25b825b8 25b825b8 25b825b8     .%.%.%.%.%.%.%.%
   14740:	25b825b8 25b825b8 25b825b8 25b825b8     .%.%.%.%.%.%.%.%
   14750:	25b825b8 25b825b8 25b825b8 25b825b8     .%.%.%.%.%.%.%.%
   14760:	25b825b8 25b825b8 25b825b8 25b825b8     .%.%.%.%.%.%.%.%
   14770:	25b825b8 25b825b8 25b825b8 25b825b8     .%.%.%.%.%.%.%.%
   14780:	25b825b8 25b825b8 25b825b8 25b825b8     .%.%.%.%.%.%.%.%
   14790:	25b825b8 25b825b8 25b825b8 25b825b8     .%.%.%.%.%.%.%.%
   147a0:	25b825b8 25b82598 25b81db8 25772598     .%.%.%.%...%.%w%
   147b0:	34b42d97 10820126 cd0c9c0b ccc9c4ca     .-.4&...........
   147c0:	d4e9ccc9 d4e8d4c8 e505d4c6 f523f544     ............D.#.
   147d0:	cc64f565 49405120 ce77bd72 f7fddf1a     e.d. Q@Ir.w.....
   147e0:	fffff7be 41e8e71c ce392925 8411ffff     .......A%)9.....
   147f0:	1a2b0022 25973d56 25982598 25b72597     ".+.V=.%.%.%.%.%
   14800:	1db81db7 259825b8 25b825b8 25b825b8     .....%.%.%.%.%.%
   14810:	25982598 25b825b8 25b825b8 25b825b8     .%.%.%.%.%.%.%.%
   14820:	25b825b8 25b825b8 25b825b8 25b825b8     .%.%.%.%.%.%.%.%
   14830:	25b825b8 25b825b8 25b825b8 25b825b8     .%.%.%.%.%.%.%.%
   14840:	25b825b8 25b825b8 25b825b8 25b825b8     .%.%.%.%.%.%.%.%
   14850:	25b825b8 25b825b8 25b825b8 25b825b8     .%.%.%.%.%.%.%.%
   14860:	25b825b8 25b825b8 25b825b8 25b825b8     .%.%.%.%.%.%.%.%
   14870:	25b825b8 25b825b8 25b825b8 25b825b8     .%.%.%.%.%.%.%.%
   14880:	25b825b8 25b825b8 25b825b8 25b825b8     .%.%.%.%.%.%.%.%
   14890:	25b825b8 25b825b8 25b825b8 25b825b8     .%.%.%.%.%.%.%.%
   148a0:	25b825b8 25b825b8 25b825b8 25b825b8     .%.%.%.%.%.%.%.%
   148b0:	25b825b8 25b825b8 25b825b8 25b825b8     .%.%.%.%.%.%.%.%
   148c0:	25b825b8 25b825b8 25b825b8 25b825b8     .%.%.%.%.%.%.%.%
   148d0:	25b825b8 25b825b8 25b825b8 25b825b8     .%.%.%.%.%.%.%.%
   148e0:	25b825b8 25b825b8 25b825b8 25b825b8     .%.%.%.%.%.%.%.%
   148f0:	25b825b8 25b825b8 25b825b8 25b825b8     .%.%.%.%.%.%.%.%
   14900:	25b825b8 25b825b8 25b825b8 25b825b8     .%.%.%.%.%.%.%.%
   14910:	25b825b8 25b825b8 1d981db8 155725b8     .%.%.%.%.....%W.
   14920:	25b825b8 25b825b8 25b825b8 25b825b8     .%.%.%.%.%.%.%.%
   14930:	25b825b8 25b825b8 25b825b8 25b825b8     .%.%.%.%.%.%.%.%
   14940:	25b825b8 25b825b8 25b825b8 25b825b8     .%.%.%.%.%.%.%.%
   14950:	25b825b8 25b825b8 25b825b8 25b825b8     .%.%.%.%.%.%.%.%
   14960:	25b825b8 25b825b8 25b825b8 25b825b8     .%.%.%.%.%.%.%.%
   14970:	25b825b8 25b825b8 25b825b8 25b825b8     .%.%.%.%.%.%.%.%
   14980:	25b825b8 25b825b8 25b825b8 25b825b8     .%.%.%.%.%.%.%.%
   14990:	25b825b8 25b825b8 25b825b8 25b825b8     .%.%.%.%.%.%.%.%
   149a0:	25b825b8 25b825b8 25b825b8 25b825b8     .%.%.%.%.%.%.%.%
   149b0:	25b825b8 25b825b8 25b825b8 25b825b8     .%.%.%.%.%.%.%.%
   149c0:	25b825b8 25b825b8 25b825b8 25b825b8     .%.%.%.%.%.%.%.%
   149d0:	25b825b8 25b825b8 25b825b8 25b825b8     .%.%.%.%.%.%.%.%
   149e0:	25b825b8 25b825b8 25b825b8 25b825b8     .%.%.%.%.%.%.%.%
   149f0:	25b825b8 25b825b8 25b825b8 25b825b8     .%.%.%.%.%.%.%.%
   14a00:	25b825b8 25b825b8 25b825b8 25b825b8     .%.%.%.%.%.%.%.%
   14a10:	25b825b8 25b825b8 25b825b8 25b825b8     .%.%.%.%.%.%.%.%
   14a20:	25b825b8 25982598 1d971d97 25772597     .%.%.%.%.....%w%
   14a30:	3c933d77 18a20926 41203901 49204100     w=.<&....9 A.A I
   14a40:	49204900 49004900 bc055120 ed23f566     .I I.I.I Q..f.#.
   14a50:	ed25f544 c4cad4c7 20c059e2 e75b94b0     D.%......Y. ..[.
   14a60:	ffffe71b ef3dffbf f79eef3d 8411ffff     ......=.=.......
   14a70:	1a0a0022 2d774d36 25982597 25b725b7     "...6Mw-.%.%.%.%
   14a80:	1db71db7 259825b8 25b82598 25b825b8     .....%.%.%.%.%.%
   14a90:	25b82598 25b825b8 25b825b8 25b825b8     .%.%.%.%.%.%.%.%
   14aa0:	25b825b8 25b825b8 25b825b8 25b825b8     .%.%.%.%.%.%.%.%
   14ab0:	25b825b8 25b825b8 25b825b8 25b825b8     .%.%.%.%.%.%.%.%
   14ac0:	25b825b8 25b825b8 25b825b8 25b825b8     .%.%.%.%.%.%.%.%
   14ad0:	25b825b8 25b825b8 25b825b8 25b825b8     .%.%.%.%.%.%.%.%
   14ae0:	25b825b8 25b825b8 25b825b8 25b825b8     .%.%.%.%.%.%.%.%
   14af0:	25b825b8 25b825b8 25b825b8 25b825b8     .%.%.%.%.%.%.%.%
   14b00:	25b825b8 25b825b8 25b825b8 25b825b8     .%.%.%.%.%.%.%.%
   14b10:	25b825b8 25b825b8 25b825b8 25b825b8     .%.%.%.%.%.%.%.%
   14b20:	25b825b8 25b825b8 25b825b8 25b825b8     .%.%.%.%.%.%.%.%
   14b30:	25b825b8 25b825b8 25b825b8 25b825b8     .%.%.%.%.%.%.%.%
   14b40:	25b825b8 25b825b8 25b825b8 25b825b8     .%.%.%.%.%.%.%.%
   14b50:	25b825b8 25b825b8 25b825b8 25b825b8     .%.%.%.%.%.%.%.%
   14b60:	25b825b8 25b825b8 25b825b8 25b825b8     .%.%.%.%.%.%.%.%
   14b70:	25b825b8 25b825b8 25b825b8 25b825b8     .%.%.%.%.%.%.%.%
   14b80:	25b825b8 25b825b8 25b825b8 25b825b8     .%.%.%.%.%.%.%.%
   14b90:	25b825b8 25b825b8 1d981db8 155725b8     .%.%.%.%.....%W.
   14ba0:	25b825b8 25b825b8 25b825b8 25b825b8     .%.%.%.%.%.%.%.%
   14bb0:	25b825b8 25b825b8 25b825b8 25b825b8     .%.%.%.%.%.%.%.%
   14bc0:	25b825b8 25b825b8 25b825b8 25b825b8     .%.%.%.%.%.%.%.%
   14bd0:	25b825b8 25b825b8 25b825b8 25b825b8     .%.%.%.%.%.%.%.%
   14be0:	25b825b8 25b825b8 25b825b8 25b825b8     .%.%.%.%.%.%.%.%
   14bf0:	25b825b8 25b825b8 25b825b8 25b825b8     .%.%.%.%.%.%.%.%
   14c00:	25b825b8 25b825b8 25b825b8 25b825b8     .%.%.%.%.%.%.%.%
   14c10:	25b825b8 25b825b8 25b825b8 25b825b8     .%.%.%.%.%.%.%.%
   14c20:	25b825b8 25b825b8 25b825b8 25b825b8     .%.%.%.%.%.%.%.%
   14c30:	25b825b8 25b825b8 25b825b8 25b825b8     .%.%.%.%.%.%.%.%
   14c40:	25b825b8 25b825b8 25b825b8 25b825b8     .%.%.%.%.%.%.%.%
   14c50:	25b825b8 25b825b8 25b825b8 25b825b8     .%.%.%.%.%.%.%.%
   14c60:	25b825b8 25b825b8 25b825b8 25b825b8     .%.%.%.%.%.%.%.%
   14c70:	25b825b8 25b825b8 25b825b8 25b825b8     .%.%.%.%.%.%.%.%
   14c80:	25b825b8 25b825b8 25b825b8 25b825b8     .%.%.%.%.%.%.%.%
   14c90:	25b825b8 25b825b8 25b825b8 25b825b8     .%.%.%.%.%.%.%.%
   14ca0:	25b825b8 25982598 259825b8 35772597     .%.%.%.%.%.%.%w5
   14cb0:	4c724d77 084100a3 18201020 18201800     wMrL..A. . ... .
   14cc0:	18001800 18001800 a3e82000 ed46f5cb     ......... ....F.
   14cd0:	f523f524 dd28f545 18005140 f75c9c4f     $.#.E.(.@Q..O.\.
   14ce0:	fffff75c ffffffdf ffdfffff 8c31ffdf     \.............1.
   14cf0:	22090002 45566536 25972d77 25b72597     ..."6eVEw-.%.%.%
   14d00:	1db71db7 25982598 25982598 25b825b8     .....%.%.%.%.%.%
   14d10:	25b825b8 1db825b8 25b825b8 25b825b8     .%.%.%...%.%.%.%
   14d20:	25b825b8 25b825b8 25b825b8 25b825b8     .%.%.%.%.%.%.%.%
   14d30:	25b825b8 25b825b8 25b825b8 25b825b8     .%.%.%.%.%.%.%.%
   14d40:	25b825b8 25b825b8 25b825b8 25b825b8     .%.%.%.%.%.%.%.%
   14d50:	25b825b8 25b825b8 25b825b8 25b825b8     .%.%.%.%.%.%.%.%
   14d60:	25b825b8 25b825b8 25b825b8 25b825b8     .%.%.%.%.%.%.%.%
   14d70:	25b825b8 25b825b8 25b825b8 25b825b8     .%.%.%.%.%.%.%.%
   14d80:	25b825b8 25b825b8 25b825b8 25b825b8     .%.%.%.%.%.%.%.%
   14d90:	25b825b8 25b825b8 25b825b8 25b825b8     .%.%.%.%.%.%.%.%
   14da0:	25b825b8 25b825b8 25b825b8 25b825b8     .%.%.%.%.%.%.%.%
   14db0:	25b825b8 25b825b8 25b825b8 25b825b8     .%.%.%.%.%.%.%.%
   14dc0:	25b825b8 25b825b8 25b825b8 25b825b8     .%.%.%.%.%.%.%.%
   14dd0:	25b825b8 25b825b8 25b825b8 25b825b8     .%.%.%.%.%.%.%.%
   14de0:	25b825b8 25b825b8 25b825b8 25b825b8     .%.%.%.%.%.%.%.%
   14df0:	25b825b8 25b825b8 25b825b8 25b825b8     .%.%.%.%.%.%.%.%
   14e00:	25b825b8 25b825b8 25b825b8 25b825b8     .%.%.%.%.%.%.%.%
   14e10:	25b825b8 25b825b8 1d981db8 155725b8     .%.%.%.%.....%W.
   14e20:	25b825b8 25b825b8 25b825b8 25b825b8     .%.%.%.%.%.%.%.%
   14e30:	25b825b8 25b825b8 25b825b8 25b825b8     .%.%.%.%.%.%.%.%
   14e40:	25b825b8 25b825b8 25b825b8 25b825b8     .%.%.%.%.%.%.%.%
   14e50:	25b825b8 25b825b8 25b825b8 25b825b8     .%.%.%.%.%.%.%.%
   14e60:	25b825b8 25b825b8 25b825b8 25b825b8     .%.%.%.%.%.%.%.%
   14e70:	25b825b8 25b825b8 25b825b8 25b825b8     .%.%.%.%.%.%.%.%
   14e80:	25b825b8 25b825b8 25b825b8 25b825b8     .%.%.%.%.%.%.%.%
   14e90:	25b825b8 25b825b8 25b825b8 25b825b8     .%.%.%.%.%.%.%.%
   14ea0:	25b825b8 25b825b8 25b825b8 25b825b8     .%.%.%.%.%.%.%.%
   14eb0:	25b825b8 25b825b8 25b825b8 25b825b8     .%.%.%.%.%.%.%.%
   14ec0:	25b825b8 25b825b8 25b825b8 25b825b8     .%.%.%.%.%.%.%.%
   14ed0:	25b825b8 25b825b8 25b825b8 25b825b8     .%.%.%.%.%.%.%.%
   14ee0:	25b825b8 25b825b8 25b825b8 25b825b8     .%.%.%.%.%.%.%.%
   14ef0:	25b825b8 25b825b8 25b825b8 25b825b8     .%.%.%.%.%.%.%.%
   14f00:	25b825b8 25b825b8 25b825b8 25b825b8     .%.%.%.%.%.%.%.%
   14f10:	25b825b8 25b825b8 25b825b8 25b825b8     .%.%.%.%.%.%.%.%
   14f20:	25b825b8 25b825b8 259725b8 1c7335b8     .%.%.%.%.%.%.5s.
   14f30:	2acb024a bdb7a5b7 c5b7bd97 bdb7bd97     J..*............
   14f40:	c597c597 c596bd96 8348c594 a36161c0     ..........H..aa.
   14f50:	f522f565 e525f523 a3e9b406 620782e8     e.".#.%........b
   14f60:	6a696a49 6269626a 6a696a49 49666a6a     IjijjbibIjijjjfI
   14f70:	20e52042 126a21e8 359834f4 25982597     B . .!j..4.5.%.%
   14f80:	25b725b7 25982598 25982598 25b825b8     .%.%.%.%.%.%.%.%
   14f90:	25b825b8 1db81db8 25b825b8 25b825b8     .%.%.....%.%.%.%
   14fa0:	25b825b8 25b825b8 25b825b8 25b825b8     .%.%.%.%.%.%.%.%
   14fb0:	25b825b8 25b825b8 25b825b8 25b825b8     .%.%.%.%.%.%.%.%
   14fc0:	25b825b8 25b825b8 25b825b8 25b825b8     .%.%.%.%.%.%.%.%
   14fd0:	25b825b8 25b825b8 25b825b8 25b825b8     .%.%.%.%.%.%.%.%
   14fe0:	25b825b8 25b825b8 25b825b8 25b825b8     .%.%.%.%.%.%.%.%
   14ff0:	25b825b8 25b825b8 25b825b8 25b825b8     .%.%.%.%.%.%.%.%
   15000:	25b825b8 25b825b8 25b825b8 25b825b8     .%.%.%.%.%.%.%.%
   15010:	25b825b8 25b825b8 25b825b8 25b825b8     .%.%.%.%.%.%.%.%
   15020:	25b825b8 25b825b8 25b825b8 25b825b8     .%.%.%.%.%.%.%.%
   15030:	25b825b8 25b825b8 25b825b8 25b825b8     .%.%.%.%.%.%.%.%
   15040:	25b825b8 25b825b8 25b825b8 25b825b8     .%.%.%.%.%.%.%.%
   15050:	25b825b8 25b825b8 25b825b8 25b825b8     .%.%.%.%.%.%.%.%
   15060:	25b825b8 25b825b8 25b825b8 25b825b8     .%.%.%.%.%.%.%.%
   15070:	25b825b8 25b825b8 25b825b8 25b825b8     .%.%.%.%.%.%.%.%
   15080:	25b825b8 25b825b8 25b825b8 25b825b8     .%.%.%.%.%.%.%.%
   15090:	25b825b8 25b825b8 1d981db8 155725b8     .%.%.%.%.....%W.
   150a0:	25b825b8 25b825b8 25b825b8 25b825b8     .%.%.%.%.%.%.%.%
   150b0:	25b825b8 25b825b8 25b825b8 25b825b8     .%.%.%.%.%.%.%.%
   150c0:	25b825b8 25b825b8 25b825b8 25b825b8     .%.%.%.%.%.%.%.%
   150d0:	25b825b8 25b825b8 25b825b8 25b825b8     .%.%.%.%.%.%.%.%
   150e0:	25b825b8 25b825b8 25b825b8 25b825b8     .%.%.%.%.%.%.%.%
   150f0:	25b825b8 25b825b8 25b825b8 25b825b8     .%.%.%.%.%.%.%.%
   15100:	25b825b8 25b825b8 25b825b8 25b825b8     .%.%.%.%.%.%.%.%
   15110:	25b825b8 25b825b8 25b825b8 25b825b8     .%.%.%.%.%.%.%.%
   15120:	25b825b8 25b825b8 25b825b8 25b825b8     .%.%.%.%.%.%.%.%
   15130:	25b825b8 25b825b8 25b825b8 25b825b8     .%.%.%.%.%.%.%.%
   15140:	25b825b8 25b825b8 25b825b8 25b825b8     .%.%.%.%.%.%.%.%
   15150:	25b825b8 25b825b8 25b825b8 25b825b8     .%.%.%.%.%.%.%.%
   15160:	25b825b8 25b825b8 25b825b8 25b825b8     .%.%.%.%.%.%.%.%
   15170:	25b825b8 25b825b8 25b825b8 25b825b8     .%.%.%.%.%.%.%.%
   15180:	25b825b8 25b825b8 25b825b8 25b825b8     .%.%.%.%.%.%.%.%
   15190:	25b825b8 25b825b8 25b825b8 25b825b8     .%.%.%.%.%.%.%.%
   151a0:	25b82598 1d981db8 257725b8 13d03598     .%.%.....%w%.5..
   151b0:	29e90063 fffff7df ffffffff ffffffff     c..)............
   151c0:	ffffffff fffefffe 72e9ffde 82811800     ...........r....
   151d0:	f522f567 ed45f523 f60fed8a 30008224     g.".#.E.....$..0
   151e0:	30003000 38003000 38003800 38003800     .0.0.0.8.8.8.8.8
   151f0:	30014001 10a32001 4d975493 25973577     .@.0. ...T.Mw5.%
   15200:	1db725b7 25b825b8 25b825b8 25b825b8     .%...%.%.%.%.%.%
   15210:	25b825b8 25b825b8 25b825b8 25b825b8     .%.%.%.%.%.%.%.%
   15220:	25b825b8 25b825b8 25b825b8 25b825b8     .%.%.%.%.%.%.%.%
   15230:	25b825b8 25b825b8 25b825b8 25b825b8     .%.%.%.%.%.%.%.%
   15240:	25b825b8 25b825b8 25b825b8 25b825b8     .%.%.%.%.%.%.%.%
   15250:	25b825b8 25b825b8 25b825b8 25b825b8     .%.%.%.%.%.%.%.%
   15260:	25b825b8 25b825b8 25b825b8 25b825b8     .%.%.%.%.%.%.%.%
   15270:	25b825b8 25b825b8 25b825b8 25b825b8     .%.%.%.%.%.%.%.%
   15280:	25b825b8 25b825b8 25b825b8 25b825b8     .%.%.%.%.%.%.%.%
   15290:	25b825b8 25b825b8 25b825b8 25b825b8     .%.%.%.%.%.%.%.%
   152a0:	25b825b8 25b825b8 25b825b8 25b825b8     .%.%.%.%.%.%.%.%
   152b0:	25b825b8 25b825b8 25b825b8 25b825b8     .%.%.%.%.%.%.%.%
   152c0:	25b825b8 25b825b8 25b825b8 25b825b8     .%.%.%.%.%.%.%.%
   152d0:	25b825b8 25b825b8 25b825b8 25b825b8     .%.%.%.%.%.%.%.%
   152e0:	25b825b8 25b825b8 25b825b8 25b825b8     .%.%.%.%.%.%.%.%
   152f0:	25b825b8 25b825b8 25b825b8 25b825b8     .%.%.%.%.%.%.%.%
   15300:	25b825b8 25b825b8 25b825b8 25b825b8     .%.%.%.%.%.%.%.%
   15310:	25b825b8 25b825b8 1d981db8 155725b8     .%.%.%.%.....%W.
   15320:	25b825b8 25b825b8 25b825b8 25b825b8     .%.%.%.%.%.%.%.%
   15330:	25b825b8 25b825b8 25b825b8 25b825b8     .%.%.%.%.%.%.%.%
   15340:	25b825b8 25b825b8 25b825b8 25b825b8     .%.%.%.%.%.%.%.%
   15350:	25b825b8 25b825b8 25b825b8 25b825b8     .%.%.%.%.%.%.%.%
   15360:	25b825b8 25b825b8 25b825b8 25b825b8     .%.%.%.%.%.%.%.%
   15370:	25b825b8 25b825b8 25b825b8 25b825b8     .%.%.%.%.%.%.%.%
   15380:	25b825b8 25b825b8 25b825b8 25b825b8     .%.%.%.%.%.%.%.%
   15390:	25b825b8 25b825b8 25b825b8 25b825b8     .%.%.%.%.%.%.%.%
   153a0:	25b825b8 25b825b8 25b825b8 25b825b8     .%.%.%.%.%.%.%.%
   153b0:	25b825b8 25b825b8 25b825b8 25b825b8     .%.%.%.%.%.%.%.%
   153c0:	25b825b8 25b825b8 25b825b8 25b825b8     .%.%.%.%.%.%.%.%
   153d0:	25b825b8 25b825b8 25b825b8 25b825b8     .%.%.%.%.%.%.%.%
   153e0:	25b825b8 25b825b8 25b825b8 25b825b8     .%.%.%.%.%.%.%.%
   153f0:	25b825b8 25b825b8 25b825b8 25b825b8     .%.%.%.%.%.%.%.%
   15400:	25b825b8 25b825b8 25b825b8 25b825b8     .%.%.%.%.%.%.%.%
   15410:	25b825b8 25b825b8 25b825b8 25b825b8     .%.%.%.%.%.%.%.%
   15420:	25b82598 1db81db8 25982598 34b42d77     .%.%.....%.%w-.4
   15430:	220801c8 e75bd6fb f7bdef9c f7bef7be     ..."..[.........
   15440:	ffbdf7be eef9ff9c 72c8f71a 82a42000     ...........r. ..
   15450:	f543ed67 e4e5f524 a2c3ab42 70c18982     g.C.$...B......p
   15460:	78c378e2 80a378a2 80a280a2 80a380a3     .x.x.x..........
   15470:	78c378a2 514570e4 1b4e42ac 2d9724b4     .x.x.pEQ.BN..$.-
   15480:	25b82598 25b825b8 25b825b8 25b825b8     .%.%.%.%.%.%.%.%
   15490:	25b825b8 25b825b8 25b825b8 25b825b8     .%.%.%.%.%.%.%.%
   154a0:	25b825b8 25b825b8 25b825b8 25b825b8     .%.%.%.%.%.%.%.%
   154b0:	25b825b8 25b825b8 25b825b8 25b825b8     .%.%.%.%.%.%.%.%
   154c0:	25b825b8 25b825b8 25b825b8 25b825b8     .%.%.%.%.%.%.%.%
   154d0:	25b825b8 25b825b8 25b825b8 25b825b8     .%.%.%.%.%.%.%.%
   154e0:	25b825b8 25b825b8 25b825b8 25b825b8     .%.%.%.%.%.%.%.%
   154f0:	25b825b8 25b825b8 25b825b8 25b825b8     .%.%.%.%.%.%.%.%
   15500:	25b825b8 25b825b8 25b825b8 25b825b8     .%.%.%.%.%.%.%.%
   15510:	25b825b8 25b825b8 25b825b8 25b825b8     .%.%.%.%.%.%.%.%
   15520:	25b825b8 25b825b8 25b825b8 25b825b8     .%.%.%.%.%.%.%.%
   15530:	25b825b8 25b825b8 25b825b8 25b825b8     .%.%.%.%.%.%.%.%
   15540:	25b825b8 25b825b8 25b825b8 25b825b8     .%.%.%.%.%.%.%.%
   15550:	25b825b8 25b825b8 25b825b8 25b825b8     .%.%.%.%.%.%.%.%
   15560:	25b825b8 25b825b8 25b825b8 25b825b8     .%.%.%.%.%.%.%.%
   15570:	25b825b8 25b825b8 25b825b8 25b825b8     .%.%.%.%.%.%.%.%
   15580:	25b825b8 25b825b8 25b825b8 25b825b8     .%.%.%.%.%.%.%.%
   15590:	25b825b8 25b825b8 1d981db8 155725b8     .%.%.%.%.....%W.
   155a0:	25b825b8 25b825b8 25b825b8 25b825b8     .%.%.%.%.%.%.%.%
   155b0:	25b825b8 25b825b8 25b825b8 25b825b8     .%.%.%.%.%.%.%.%
   155c0:	25b825b8 25b825b8 25b825b8 25b825b8     .%.%.%.%.%.%.%.%
   155d0:	25b825b8 25b825b8 25b825b8 25b825b8     .%.%.%.%.%.%.%.%
   155e0:	25b825b8 25b825b8 25b825b8 25b825b8     .%.%.%.%.%.%.%.%
   155f0:	25b825b8 25b825b8 25b825b8 25b825b8     .%.%.%.%.%.%.%.%
   15600:	25982598 25b825b8 25b825b8 25b825b8     .%.%.%.%.%.%.%.%
   15610:	25b825b8 25b825b8 25b825b8 25b825b8     .%.%.%.%.%.%.%.%
   15620:	25b825b8 25b825b8 25b825b8 25b825b8     .%.%.%.%.%.%.%.%
   15630:	25b825b8 25b825b8 25b825b8 25b825b8     .%.%.%.%.%.%.%.%
   15640:	25b825b8 25b825b8 25b825b8 25b825b8     .%.%.%.%.%.%.%.%
   15650:	25b825b8 25b825b8 25b825b8 25b825b8     .%.%.%.%.%.%.%.%
   15660:	25b825b8 25b825b8 25b825b8 25b825b8     .%.%.%.%.%.%.%.%
   15670:	25b825b8 25b825b8 25b825b8 25b825b8     .%.%.%.%.%.%.%.%
   15680:	25b825b8 25b825b8 25b825b8 25b825b8     .%.%.%.%.%.%.%.%
   15690:	25b825b8 25b825b8 25b825b8 25b825b8     .%.%.%.%.%.%.%.%
   156a0:	25b825b8 1db81db8 25982598 35772d97     .%.%.....%.%.-w5
   156b0:	3bae3cb4 cef9ae78 fffef7dd ffffffff     .<.;x...........
   156c0:	ffffffff eed7fffd 6a65f6b7 82832000     ..........ej. ..
   156d0:	f545f589 ed08fd87 480060e0 b9a588c1     ..E......`.H....
   156e0:	c164b964 c165c165 c165c165 c145c145     d.d.e.e.e.e.E.E.
   156f0:	b965c144 91a7b986 00842063 35b81bf1     D.e.....c .....5
   15700:	25982578 1db825b8 25b825b8 25b825b8     x%.%.%...%.%.%.%
   15710:	25b825b8 25b825b8 25b825b8 25b825b8     .%.%.%.%.%.%.%.%
   15720:	25b825b8 25b825b8 25b825b8 25b825b8     .%.%.%.%.%.%.%.%
   15730:	25b825b8 25b825b8 25b825b8 25b825b8     .%.%.%.%.%.%.%.%
   15740:	25b825b8 25b825b8 25b825b8 25b825b8     .%.%.%.%.%.%.%.%
   15750:	25b825b8 25b825b8 25b825b8 25b825b8     .%.%.%.%.%.%.%.%
   15760:	25b825b8 25b825b8 25b825b8 25b825b8     .%.%.%.%.%.%.%.%
   15770:	25b825b8 25b825b8 25b825b8 25b825b8     .%.%.%.%.%.%.%.%
   15780:	25b825b8 25b825b8 25b825b8 25b825b8     .%.%.%.%.%.%.%.%
   15790:	25b825b8 25b825b8 25b825b8 25b825b8     .%.%.%.%.%.%.%.%
   157a0:	25b825b8 25b825b8 25b825b8 25b825b8     .%.%.%.%.%.%.%.%
   157b0:	25b825b8 25b825b8 25b825b8 25b825b8     .%.%.%.%.%.%.%.%
   157c0:	25b825b8 25b825b8 25b825b8 25b825b8     .%.%.%.%.%.%.%.%
   157d0:	25b825b8 25b825b8 25b825b8 25b825b8     .%.%.%.%.%.%.%.%
   157e0:	25982598 25b825b8 25b825b8 25b825b8     .%.%.%.%.%.%.%.%
   157f0:	1db81db8 25b825b8 25b825b8 25982598     .....%.%.%.%.%.%
   15800:	25b825b8 25b825b8 25b825b8 25b825b8     .%.%.%.%.%.%.%.%
   15810:	25b825b8 25b825b8 1d981db8 155725b8     .%.%.%.%.....%W.
   15820:	25b825b8 25b825b8 25b825b8 25b825b8     .%.%.%.%.%.%.%.%
   15830:	25b825b8 25b825b8 25b825b8 25b825b8     .%.%.%.%.%.%.%.%
   15840:	25b825b8 25b825b8 25b825b8 25b825b8     .%.%.%.%.%.%.%.%
   15850:	25b825b8 25b825b8 25b825b8 25b825b8     .%.%.%.%.%.%.%.%
   15860:	25b825b8 25b825b8 25b825b8 25b825b8     .%.%.%.%.%.%.%.%
   15870:	25b825b8 25b825b8 25b825b8 25b825b8     .%.%.%.%.%.%.%.%
   15880:	25982598 25b825b8 25b825b8 25b825b8     .%.%.%.%.%.%.%.%
   15890:	25b825b8 25b825b8 25b825b8 25b825b8     .%.%.%.%.%.%.%.%
   158a0:	25b825b8 25b825b8 25b825b8 25b825b8     .%.%.%.%.%.%.%.%
   158b0:	25b825b8 25b825b8 25b825b8 25b825b8     .%.%.%.%.%.%.%.%
   158c0:	25b825b8 25b825b8 25b825b8 25b825b8     .%.%.%.%.%.%.%.%
   158d0:	25b825b8 25b825b8 25b825b8 25b825b8     .%.%.%.%.%.%.%.%
   158e0:	25b825b8 25b825b8 25b825b8 25b825b8     .%.%.%.%.%.%.%.%
   158f0:	25b825b8 25b825b8 25b825b8 25b825b8     .%.%.%.%.%.%.%.%
   15900:	25b825b8 25b825b8 25b825b8 25b825b8     .%.%.%.%.%.%.%.%
   15910:	25b825b8 25b825b8 25b825b8 25b825b8     .%.%.%.%.%.%.%.%
   15920:	1db825b8 1db81db8 25982598 2d772597     .%.......%.%.%w-
   15930:	45343576 8db46d74 c658ae37 ce19c639     v54Etm..7.X.9...
   15940:	d617ce18 bd11d616 7a64c510 92a350c0     ..........dz.P..
   15950:	e464ece7 c3c7cc05 68407900 a0e390a2     ..d......y@h....
   15960:	a8c2a8c2 b0c2b0c2 a8c2a8c2 a8c3a8c2     ................
   15970:	a0e3a8c2 794698e4 09e93987 35982c52     ......Fy.9..R,.5
   15980:	25982578 1db825b8 25b825b8 25b825b8     x%.%.%...%.%.%.%
   15990:	25b825b8 25b825b8 25b825b8 25b825b8     .%.%.%.%.%.%.%.%
   159a0:	25b825b8 25b825b8 25b825b8 25b825b8     .%.%.%.%.%.%.%.%
   159b0:	25b825b8 25b825b8 25b825b8 25b825b8     .%.%.%.%.%.%.%.%
   159c0:	25b825b8 25b825b8 25b825b8 25b825b8     .%.%.%.%.%.%.%.%
   159d0:	25b825b8 25b825b8 25b825b8 25b825b8     .%.%.%.%.%.%.%.%
   159e0:	25b825b8 25b825b8 25b825b8 25b825b8     .%.%.%.%.%.%.%.%
   159f0:	25b825b8 25b825b8 25b825b8 25b825b8     .%.%.%.%.%.%.%.%
   15a00:	25b825b8 25b825b8 25b825b8 25b825b8     .%.%.%.%.%.%.%.%
   15a10:	25b825b8 25b825b8 25b825b8 25b825b8     .%.%.%.%.%.%.%.%
   15a20:	25b825b8 25b825b8 25b825b8 25b825b8     .%.%.%.%.%.%.%.%
   15a30:	25b825b8 25b825b8 25b825b8 25b825b8     .%.%.%.%.%.%.%.%
   15a40:	25b825b8 25b825b8 25b825b8 25b825b8     .%.%.%.%.%.%.%.%
   15a50:	25b825b8 25b825b8 25b825b8 25b825b8     .%.%.%.%.%.%.%.%
   15a60:	25982598 25b825b8 25b825b8 25b825b8     .%.%.%.%.%.%.%.%
   15a70:	1db81db8 25b825b8 25b825b8 25982598     .....%.%.%.%.%.%
   15a80:	25b825b8 25b825b8 25b825b8 25b825b8     .%.%.%.%.%.%.%.%
   15a90:	25b825b8 25b825b8 1d981db8 155725b8     .%.%.%.%.....%W.
   15aa0:	25b825b8 25b825b8 25b825b8 25b825b8     .%.%.%.%.%.%.%.%
   15ab0:	25b825b8 25b825b8 25b825b8 25b825b8     .%.%.%.%.%.%.%.%
   15ac0:	25b825b8 25b825b8 25b825b8 25b825b8     .%.%.%.%.%.%.%.%
   15ad0:	25b825b8 25b825b8 25b825b8 25b825b8     .%.%.%.%.%.%.%.%
   15ae0:	25b825b8 25b825b8 25b825b8 25b825b8     .%.%.%.%.%.%.%.%
   15af0:	25b825b8 25b825b8 25b825b8 25b825b8     .%.%.%.%.%.%.%.%
   15b00:	25b825b8 25b825b8 25b825b8 25b825b8     .%.%.%.%.%.%.%.%
   15b10:	25b825b8 25b825b8 25b825b8 25b825b8     .%.%.%.%.%.%.%.%
   15b20:	25b825b8 25b825b8 25b825b8 25b825b8     .%.%.%.%.%.%.%.%
   15b30:	25b825b8 25b825b8 25b825b8 25b825b8     .%.%.%.%.%.%.%.%
   15b40:	25b825b8 25b825b8 25b825b8 25b825b8     .%.%.%.%.%.%.%.%
   15b50:	25b825b8 25b825b8 25b825b8 25b825b8     .%.%.%.%.%.%.%.%
   15b60:	25b825b8 25b825b8 25b825b8 25b825b8     .%.%.%.%.%.%.%.%
   15b70:	25b825b8 25b825b8 25b825b8 25b825b8     .%.%.%.%.%.%.%.%
   15b80:	25b825b8 25b825b8 25b825b8 25b825b8     .%.%.%.%.%.%.%.%
   15b90:	25b825b8 25b825b8 25b825b8 25b825b8     .%.%.%.%.%.%.%.%
   15ba0:	1db81db8 1db81db8 25982598 259725b7     .........%.%.%.%
   15bb0:	2d762597 3c513d34 00c30a07 186210a3     .%v-4=Q<......b.
   15bc0:	28412062 28402861 8a643840 c343c386     b A(a(@(@8d...C.
   15bd0:	aaa1cb63 60405000 a9859943 58007861     c....P@`C...ax.X
   15be0:	60005800 58005800 58005800 58005800     .X.`.X.X.X.X.X.X
   15bf0:	50005800 28a44001 4d565c53 25973577     .X.P.@.(S\VMw5.%
   15c00:	1d982598 25b825b8 25b825b8 25b825b8     .%...%.%.%.%.%.%
   15c10:	25b825b8 25b825b8 25b825b8 25b825b8     .%.%.%.%.%.%.%.%
   15c20:	25b825b8 25b825b8 25b825b8 25b825b8     .%.%.%.%.%.%.%.%
   15c30:	25b825b8 25b825b8 25b825b8 25b825b8     .%.%.%.%.%.%.%.%
   15c40:	25b825b8 25b825b8 25b825b8 25b825b8     .%.%.%.%.%.%.%.%
   15c50:	25b825b8 25b825b8 25b825b8 25b825b8     .%.%.%.%.%.%.%.%
   15c60:	25b825b8 25b825b8 25b825b8 25b825b8     .%.%.%.%.%.%.%.%
   15c70:	25b825b8 25b825b8 25b825b8 25b825b8     .%.%.%.%.%.%.%.%
   15c80:	25b825b8 25b825b8 25b825b8 25b825b8     .%.%.%.%.%.%.%.%
   15c90:	25b825b8 25b825b8 25b825b8 25b825b8     .%.%.%.%.%.%.%.%
   15ca0:	25b825b8 25b825b8 25b825b8 25b825b8     .%.%.%.%.%.%.%.%
   15cb0:	25b825b8 25b825b8 25b825b8 25b825b8     .%.%.%.%.%.%.%.%
   15cc0:	25b825b8 25b825b8 25b825b8 25b825b8     .%.%.%.%.%.%.%.%
   15cd0:	25b825b8 25b825b8 25b825b8 25b825b8     .%.%.%.%.%.%.%.%
   15ce0:	25b825b8 25b825b8 25b825b8 25b825b8     .%.%.%.%.%.%.%.%
   15cf0:	25982598 25b825b8 25b825b8 1db81db8     .%.%.%.%.%.%....
   15d00:	25b825b8 25b825b8 25b825b8 25b825b8     .%.%.%.%.%.%.%.%
   15d10:	25b825b8 25b825b8 1d981db8 155725b8     .%.%.%.%.....%W.
   15d20:	25b825b8 25b825b8 25b825b8 25b825b8     .%.%.%.%.%.%.%.%
   15d30:	25b825b8 25b825b8 25b825b8 25b825b8     .%.%.%.%.%.%.%.%
   15d40:	25b825b8 25b825b8 25b825b8 25b825b8     .%.%.%.%.%.%.%.%
   15d50:	25b825b8 25b825b8 25b825b8 25b825b8     .%.%.%.%.%.%.%.%
   15d60:	25b825b8 25b825b8 25b825b8 25b825b8     .%.%.%.%.%.%.%.%
   15d70:	25b825b8 25b825b8 25b825b8 25b825b8     .%.%.%.%.%.%.%.%
   15d80:	25b825b8 25b825b8 25b825b8 25b825b8     .%.%.%.%.%.%.%.%
   15d90:	25b825b8 25b825b8 25b825b8 25b825b8     .%.%.%.%.%.%.%.%
   15da0:	25b825b8 25b825b8 25b825b8 25b825b8     .%.%.%.%.%.%.%.%
   15db0:	25b825b8 25b825b8 25b825b8 25b825b8     .%.%.%.%.%.%.%.%
   15dc0:	25b825b8 25b825b8 25b825b8 25b825b8     .%.%.%.%.%.%.%.%
   15dd0:	25b825b8 25b825b8 25b825b8 25b825b8     .%.%.%.%.%.%.%.%
   15de0:	25b825b8 25b825b8 25b825b8 25b825b8     .%.%.%.%.%.%.%.%
   15df0:	25b825b8 25b825b8 25b825b8 25b825b8     .%.%.%.%.%.%.%.%
   15e00:	25b825b8 25b825b8 25b825b8 25b825b8     .%.%.%.%.%.%.%.%
   15e10:	25b825b8 25b825b8 25b825b8 25b825b8     .%.%.%.%.%.%.%.%
   15e20:	1db81db8 1db81db8 259825b8 1d971d97     .........%.%....
   15e30:	259725b7 3d762d76 12083cb2 208108a3     .%.%v-v=.<..... 
   15e40:	38403060 40403860 9a634840 cb22cb64     `0@8`8@@@Hc.d.".
   15e50:	b282d363 60205820 a9659923 60008081     c... X `#.e....`
   15e60:	60006000 60006000 58005800 58006000     .`.`.`.`.X.X.`.X
   15e70:	48215800 08e52842 3d774493 25b82db7     .X!HB(...Dw=.-.%
   15e80:	259825b8 25b825b8 25b825b8 25b825b8     .%.%.%.%.%.%.%.%
   15e90:	25b825b8 25b825b8 25b825b8 25b825b8     .%.%.%.%.%.%.%.%
   15ea0:	25b825b8 25b825b8 25b825b8 25b825b8     .%.%.%.%.%.%.%.%
   15eb0:	25b825b8 25b825b8 25b825b8 25b825b8     .%.%.%.%.%.%.%.%
   15ec0:	25b825b8 25b825b8 25b825b8 25b825b8     .%.%.%.%.%.%.%.%
   15ed0:	25b825b8 25b825b8 25b825b8 25b825b8     .%.%.%.%.%.%.%.%
   15ee0:	25b825b8 25b825b8 25b825b8 25b825b8     .%.%.%.%.%.%.%.%
   15ef0:	25b825b8 25b825b8 25b825b8 25b825b8     .%.%.%.%.%.%.%.%
   15f00:	25b825b8 25b825b8 25b825b8 25b825b8     .%.%.%.%.%.%.%.%
   15f10:	25b825b8 25b825b8 25b825b8 25b825b8     .%.%.%.%.%.%.%.%
   15f20:	25b825b8 25b825b8 25b825b8 25b825b8     .%.%.%.%.%.%.%.%
   15f30:	25b825b8 25b825b8 25b825b8 25b825b8     .%.%.%.%.%.%.%.%
   15f40:	25b825b8 25b825b8 25b825b8 25b825b8     .%.%.%.%.%.%.%.%
   15f50:	25b825b8 25b825b8 25b825b8 25b825b8     .%.%.%.%.%.%.%.%
   15f60:	25b825b8 25b825b8 25b825b8 25b825b8     .%.%.%.%.%.%.%.%
   15f70:	25982598 25b825b8 25b825b8 1db81db8     .%.%.%.%.%.%....
   15f80:	25b825b8 25b825b8 25b825b8 25b825b8     .%.%.%.%.%.%.%.%
   15f90:	25b825b8 25b825b8 1d981db8 155725b8     .%.%.%.%.....%W.
   15fa0:	25b825b8 25b825b8 25b825b8 25b825b8     .%.%.%.%.%.%.%.%
   15fb0:	25b825b8 25b825b8 25b825b8 25b825b8     .%.%.%.%.%.%.%.%
   15fc0:	25b825b8 25b825b8 25b825b8 25b825b8     .%.%.%.%.%.%.%.%
   15fd0:	25b825b8 25b825b8 25b825b8 25b825b8     .%.%.%.%.%.%.%.%
   15fe0:	25b825b8 25b825b8 25b825b8 25b825b8     .%.%.%.%.%.%.%.%
   15ff0:	25b825b8 25b825b8 25b825b8 25b825b8     .%.%.%.%.%.%.%.%
   16000:	25b825b8 25b825b8 25b825b8 25982598     .%.%.%.%.%.%.%.%
   16010:	25b825b8 25b825b8 25982598 25b825b8     .%.%.%.%.%.%.%.%
   16020:	25b825b8 25b825b8 25b825b8 25b825b8     .%.%.%.%.%.%.%.%
   16030:	25b825b8 25b825b8 25b825b8 25b825b8     .%.%.%.%.%.%.%.%
   16040:	25b825b8 25b825b8 25b825b8 25b825b8     .%.%.%.%.%.%.%.%
   16050:	25b825b8 25b825b8 25b825b8 25b825b8     .%.%.%.%.%.%.%.%
   16060:	25b825b8 25b825b8 25b825b8 25b825b8     .%.%.%.%.%.%.%.%
   16070:	25b825b8 25b825b8 25b825b8 25b825b8     .%.%.%.%.%.%.%.%
   16080:	25b825b8 25b825b8 25b825b8 25b825b8     .%.%.%.%.%.%.%.%
   16090:	25b825b8 25b825b8 25b825b8 25b825b8     .%.%.%.%.%.%.%.%
   160a0:	25b825b8 25982598 25b725b8 1db81db8     .%.%.%.%.%.%....
   160b0:	25b81d97 2d772597 3c513d77 836a4b0a     ...%.%w-w=Q<.Kj.
   160c0:	aae59b07 b2c4aae5 cb24b2c3 d321cb22     ..........$.".!.
   160d0:	cb22d342 aaa5bac4 680070a0 a90390a1     B."......p.h....
   160e0:	b0e3a8e3 b0e2b103 b0e2b0e2 a8e3b0c2     ................
   160f0:	78e4a145 08e53042 35973c94 1db72597     E..xB0...<.5.%..
   16100:	25981db8 25982598 25b825b8 25b825b8     ...%.%.%.%.%.%.%
   16110:	25b825b8 25b825b8 25b825b8 25b825b8     .%.%.%.%.%.%.%.%
   16120:	25b825b8 25b825b8 25b825b8 25b825b8     .%.%.%.%.%.%.%.%
   16130:	25b825b8 25b825b8 25b825b8 25b825b8     .%.%.%.%.%.%.%.%
   16140:	25b825b8 25b825b8 25b825b8 25b825b8     .%.%.%.%.%.%.%.%
   16150:	25b825b8 25b825b8 25b825b8 25b825b8     .%.%.%.%.%.%.%.%
   16160:	25b825b8 25b825b8 25b825b8 25b825b8     .%.%.%.%.%.%.%.%
   16170:	25b825b8 25b825b8 25b825b8 25b825b8     .%.%.%.%.%.%.%.%
   16180:	25b825b8 25b825b8 25b825b8 25b825b8     .%.%.%.%.%.%.%.%
   16190:	25b825b8 25b825b8 25b825b8 25b825b8     .%.%.%.%.%.%.%.%
   161a0:	25b825b8 25b825b8 25b825b8 25b825b8     .%.%.%.%.%.%.%.%
   161b0:	25b825b8 25b825b8 25b825b8 25b825b8     .%.%.%.%.%.%.%.%
   161c0:	25b825b8 25b825b8 25b825b8 25b825b8     .%.%.%.%.%.%.%.%
   161d0:	25b825b8 25b825b8 25b825b8 25b825b8     .%.%.%.%.%.%.%.%
   161e0:	25b825b8 25982598 25b825b8 1db81db8     .%.%.%.%.%.%....
   161f0:	25b825b8 25b825b8 25b825b8 25b825b8     .%.%.%.%.%.%.%.%
   16200:	25b825b8 25b825b8 25b825b8 25b825b8     .%.%.%.%.%.%.%.%
   16210:	25b825b8 25b825b8 1d981db8 155725b8     .%.%.%.%.....%W.
   16220:	25b825b8 25b825b8 25b825b8 25b825b8     .%.%.%.%.%.%.%.%
   16230:	25b825b8 25b825b8 25b825b8 25b825b8     .%.%.%.%.%.%.%.%
   16240:	25b825b8 25b825b8 25b825b8 25b825b8     .%.%.%.%.%.%.%.%
   16250:	25b825b8 25b825b8 25b825b8 25b825b8     .%.%.%.%.%.%.%.%
   16260:	25b825b8 25b825b8 25b825b8 25b825b8     .%.%.%.%.%.%.%.%
   16270:	25b825b8 25b825b8 25b825b8 25b825b8     .%.%.%.%.%.%.%.%
   16280:	25b825b8 25b825b8 25b825b8 25982598     .%.%.%.%.%.%.%.%
   16290:	25b825b8 25b825b8 25b825b8 25b825b8     .%.%.%.%.%.%.%.%
   162a0:	25b825b8 25b825b8 25b825b8 25b825b8     .%.%.%.%.%.%.%.%
   162b0:	25b825b8 25b825b8 25b825b8 25b825b8     .%.%.%.%.%.%.%.%
   162c0:	25b825b8 25b825b8 25b825b8 25b825b8     .%.%.%.%.%.%.%.%
   162d0:	25b825b8 25b825b8 25b825b8 25b825b8     .%.%.%.%.%.%.%.%
   162e0:	25b825b8 25b825b8 25b825b8 25b825b8     .%.%.%.%.%.%.%.%
   162f0:	25b825b8 25b825b8 25b825b8 25b825b8     .%.%.%.%.%.%.%.%
   16300:	25b825b8 25b825b8 25b825b8 25b825b8     .%.%.%.%.%.%.%.%
   16310:	25b825b8 25b825b8 25b825b8 25b825b8     .%.%.%.%.%.%.%.%
   16320:	259825b8 25982598 1db825b8 25b825b8     .%.%.%.%.%...%.%
   16330:	25b825b8 25971d97 3d352d97 842d64b0     .%.%...%.-5=.d-.
   16340:	bba7abea d365cb86 d342d364 d321d322     ......e.d.B.".!.
   16350:	d342d341 c325d364 50006080 b9a590e1     A.B.d.%..`.P....
   16360:	b945b144 b944b944 b944b944 b965b944     D.E.D.D.D.D.D.e.
   16370:	7966a9a6 01261042 2d973494 1db71d97     ..fyB.&..4.-....
   16380:	25981db8 25982598 25b825b8 25b825b8     ...%.%.%.%.%.%.%
   16390:	25b825b8 25b825b8 25b825b8 25b825b8     .%.%.%.%.%.%.%.%
   163a0:	25b825b8 25b825b8 25b825b8 25b825b8     .%.%.%.%.%.%.%.%
   163b0:	25b825b8 25b825b8 25b825b8 25b825b8     .%.%.%.%.%.%.%.%
   163c0:	25b825b8 25b825b8 25b825b8 25b825b8     .%.%.%.%.%.%.%.%
   163d0:	25b825b8 25b825b8 25b825b8 25b825b8     .%.%.%.%.%.%.%.%
   163e0:	25b825b8 25b825b8 25b825b8 25b825b8     .%.%.%.%.%.%.%.%
   163f0:	25b825b8 25b825b8 25b825b8 25b825b8     .%.%.%.%.%.%.%.%
   16400:	25b825b8 25b825b8 25b825b8 25b825b8     .%.%.%.%.%.%.%.%
   16410:	25b825b8 25b825b8 25b825b8 25b825b8     .%.%.%.%.%.%.%.%
   16420:	25b825b8 25b825b8 25b825b8 25b825b8     .%.%.%.%.%.%.%.%
   16430:	25b825b8 25b825b8 25b825b8 25b825b8     .%.%.%.%.%.%.%.%
   16440:	25b825b8 25b825b8 25b825b8 25b825b8     .%.%.%.%.%.%.%.%
   16450:	25b825b8 25b825b8 25b825b8 25b825b8     .%.%.%.%.%.%.%.%
   16460:	25b825b8 25b82598 25b825b8 25b825b8     .%.%.%.%.%.%.%.%
   16470:	25b825b8 25b825b8 25b825b8 25b825b8     .%.%.%.%.%.%.%.%
   16480:	25b825b8 25b825b8 25b825b8 25b825b8     .%.%.%.%.%.%.%.%
   16490:	25b825b8 25b825b8 1d981db8 155725b8     .%.%.%.%.....%W.
   164a0:	25b825b8 25b825b8 25b825b8 25b825b8     .%.%.%.%.%.%.%.%
   164b0:	25b825b8 25b825b8 25b825b8 25b825b8     .%.%.%.%.%.%.%.%
   164c0:	25b825b8 25b825b8 25b825b8 25b825b8     .%.%.%.%.%.%.%.%
   164d0:	25b825b8 25b825b8 25b825b8 25b825b8     .%.%.%.%.%.%.%.%
   164e0:	25b825b8 25b825b8 25b825b8 25b825b8     .%.%.%.%.%.%.%.%
   164f0:	25b825b8 25b825b8 25b825b8 25b825b8     .%.%.%.%.%.%.%.%
   16500:	25b825b8 1db81db8 25b825b8 25b825b8     .%.%.....%.%.%.%
   16510:	25b825b8 25b825b8 25b825b8 25b825b8     .%.%.%.%.%.%.%.%
   16520:	25b825b8 25b825b8 25b825b8 25b825b8     .%.%.%.%.%.%.%.%
   16530:	25b825b8 25b825b8 25b825b8 25b825b8     .%.%.%.%.%.%.%.%
   16540:	25b825b8 25b825b8 25b825b8 25b825b8     .%.%.%.%.%.%.%.%
   16550:	25b825b8 25b825b8 25b825b8 25b825b8     .%.%.%.%.%.%.%.%
   16560:	25b825b8 25b825b8 25b825b8 25b825b8     .%.%.%.%.%.%.%.%
   16570:	25b825b8 25b825b8 25b825b8 25b825b8     .%.%.%.%.%.%.%.%
   16580:	25b825b8 25b825b8 25b825b8 25b825b8     .%.%.%.%.%.%.%.%
   16590:	25b825b8 25b825b8 25b825b8 25b825b8     .%.%.%.%.%.%.%.%
   165a0:	25b825b8 25b82598 25b825b8 25982598     .%.%.%.%.%.%.%.%
   165b0:	25b825b8 259725b8 35562597 4bad4d13     .%.%.%.%.%V5.M.K
   165c0:	598241e5 bb0579a1 d322cb23 d301d321     .A.Y.y..#.".!...
   165d0:	d302d301 c303d322 9a03a242 70a18122     ...."...B..."..p
   165e0:	70a370a2 70837083 70a27082 68a370a3     .p.p.p.p.p.p.p.h
   165f0:	51a758c4 23d0434e 2d983536 1db825b7     .X.QNC.#65.-.%..
   16600:	1db81db8 25b825b8 25b825b8 25b825b8     .....%.%.%.%.%.%
   16610:	25b825b8 25b825b8 25b825b8 25b825b8     .%.%.%.%.%.%.%.%
   16620:	25b825b8 25b825b8 25b825b8 25b825b8     .%.%.%.%.%.%.%.%
   16630:	25b825b8 25b825b8 25b825b8 25b825b8     .%.%.%.%.%.%.%.%
   16640:	25b825b8 25b825b8 25b825b8 25b825b8     .%.%.%.%.%.%.%.%
   16650:	25b825b8 25b825b8 25b825b8 25b825b8     .%.%.%.%.%.%.%.%
   16660:	25b825b8 25b825b8 25b825b8 25b825b8     .%.%.%.%.%.%.%.%
   16670:	25b825b8 25b825b8 25b825b8 25b825b8     .%.%.%.%.%.%.%.%
   16680:	25b825b8 25b825b8 25b825b8 25b825b8     .%.%.%.%.%.%.%.%
   16690:	25b825b8 25b825b8 25b825b8 25b825b8     .%.%.%.%.%.%.%.%
   166a0:	25b825b8 25b825b8 25b825b8 25b825b8     .%.%.%.%.%.%.%.%
   166b0:	25b825b8 25b825b8 25b825b8 25b825b8     .%.%.%.%.%.%.%.%
   166c0:	25b825b8 25b825b8 25b825b8 25b825b8     .%.%.%.%.%.%.%.%
   166d0:	25b825b8 25b825b8 25b825b8 25b825b8     .%.%.%.%.%.%.%.%
   166e0:	25b825b8 25b825b8 25982598 25982598     .%.%.%.%.%.%.%.%
   166f0:	25b825b8 25b825b8 25b825b8 25b825b8     .%.%.%.%.%.%.%.%
   16700:	25b825b8 25b825b8 25b825b8 25b825b8     .%.%.%.%.%.%.%.%
   16710:	25b825b8 25b825b8 1d981db8 155725b8     .%.%.%.%.....%W.
   16720:	25b825b8 25b825b8 25b825b8 25b825b8     .%.%.%.%.%.%.%.%
   16730:	25b825b8 25b825b8 25b825b8 25b825b8     .%.%.%.%.%.%.%.%
   16740:	25b825b8 25b825b8 25b825b8 25b825b8     .%.%.%.%.%.%.%.%
   16750:	25b825b8 25b825b8 25b825b8 25b825b8     .%.%.%.%.%.%.%.%
   16760:	25b825b8 25b825b8 25b825b8 25b825b8     .%.%.%.%.%.%.%.%
   16770:	25b825b8 25b825b8 25b825b8 25b825b8     .%.%.%.%.%.%.%.%
   16780:	25b825b8 1db81db8 25b825b8 25b825b8     .%.%.....%.%.%.%
   16790:	25b825b8 25b825b8 1db81db8 25b825b8     .%.%.%.%.....%.%
   167a0:	25b825b8 25b825b8 25b825b8 25b825b8     .%.%.%.%.%.%.%.%
   167b0:	25b825b8 25b825b8 25b825b8 25b825b8     .%.%.%.%.%.%.%.%
   167c0:	25b825b8 25b825b8 25b825b8 25b825b8     .%.%.%.%.%.%.%.%
   167d0:	25b825b8 25b825b8 25b825b8 25b825b8     .%.%.%.%.%.%.%.%
   167e0:	25b825b8 25b825b8 25b825b8 25b825b8     .%.%.%.%.%.%.%.%
   167f0:	25b825b8 25b825b8 25b825b8 25b825b8     .%.%.%.%.%.%.%.%
   16800:	25b825b8 25b825b8 25b825b8 25b825b8     .%.%.%.%.%.%.%.%
   16810:	25b825b8 25b825b8 25b825b8 25b825b8     .%.%.%.%.%.%.%.%
   16820:	25b825b8 25b825b8 25982598 25982598     .%.%.%.%.%.%.%.%
   16830:	25b725b8 259725b8 2d9725b7 44b23d75     .%.%.%.%.%.-u=.D
   16840:	002011c6 ab683080 cb65c386 d365cb64     .. ..0h...e.d.e.
   16850:	d365d365 cb66cb45 c3ebc3a8 20006184     e.e.E.f......a. 
   16860:	20012821 20012001 20012001 18222001     !(. . . . . . ".
   16870:	19c80822 3d775d56 25982d77 25b82598     "...V]w=w-.%.%.%
   16880:	1db825b8 25b825b8 25b825b8 25b825b8     .%...%.%.%.%.%.%
   16890:	25b825b8 25b825b8 25b825b8 25b825b8     .%.%.%.%.%.%.%.%
   168a0:	25b825b8 25b825b8 25b825b8 25b825b8     .%.%.%.%.%.%.%.%
   168b0:	25b825b8 25b825b8 25b825b8 25b825b8     .%.%.%.%.%.%.%.%
   168c0:	25b825b8 25b825b8 25b825b8 25b825b8     .%.%.%.%.%.%.%.%
   168d0:	25b825b8 25b825b8 25b825b8 25b825b8     .%.%.%.%.%.%.%.%
   168e0:	25b825b8 25b825b8 25b825b8 25b825b8     .%.%.%.%.%.%.%.%
   168f0:	25b825b8 25b825b8 25b825b8 25b825b8     .%.%.%.%.%.%.%.%
   16900:	25b825b8 25b825b8 25b825b8 25b825b8     .%.%.%.%.%.%.%.%
   16910:	25b825b8 25b825b8 25b825b8 25b825b8     .%.%.%.%.%.%.%.%
   16920:	25b825b8 25b825b8 25b825b8 25b825b8     .%.%.%.%.%.%.%.%
   16930:	25b825b8 25b825b8 25b825b8 25b825b8     .%.%.%.%.%.%.%.%
   16940:	25b825b8 25b825b8 25b825b8 25b825b8     .%.%.%.%.%.%.%.%
   16950:	25b825b8 25b825b8 25b825b8 25b825b8     .%.%.%.%.%.%.%.%
   16960:	25b825b8 259825b8 25972597 25972597     .%.%.%.%.%.%.%.%
   16970:	25b82598 25b825b8 25b825b8 25b825b8     .%.%.%.%.%.%.%.%
   16980:	25b825b8 25b825b8 25b825b8 25b825b8     .%.%.%.%.%.%.%.%
   16990:	25b825b8 25b825b8 1d981db8 155725b8     .%.%.%.%.....%W.
   169a0:	25b825b8 25b825b8 25b825b8 25b825b8     .%.%.%.%.%.%.%.%
   169b0:	25b825b8 25b825b8 25b825b8 25b825b8     .%.%.%.%.%.%.%.%
   169c0:	25b825b8 25b825b8 25b825b8 25b825b8     .%.%.%.%.%.%.%.%
   169d0:	25b825b8 25b825b8 25b825b8 25b825b8     .%.%.%.%.%.%.%.%
   169e0:	25b825b8 25b825b8 25b825b8 25b825b8     .%.%.%.%.%.%.%.%
   169f0:	25b825b8 25b825b8 25b825b8 25b825b8     .%.%.%.%.%.%.%.%
   16a00:	25b81d98 1d971db7 25982597 1db825b8     ...%.....%.%.%..
   16a10:	25b825b8 25b825b8 25b825b8 25b825b8     .%.%.%.%.%.%.%.%
   16a20:	25b825b8 25b825b8 25b825b8 25b825b8     .%.%.%.%.%.%.%.%
   16a30:	25b825b8 25b825b8 25b825b8 25b825b8     .%.%.%.%.%.%.%.%
   16a40:	25b825b8 25b825b8 25b825b8 25b825b8     .%.%.%.%.%.%.%.%
   16a50:	25b825b8 25b825b8 25b825b8 25b825b8     .%.%.%.%.%.%.%.%
   16a60:	25b825b8 25b825b8 25b825b8 25b825b8     .%.%.%.%.%.%.%.%
   16a70:	25b825b8 25b825b8 25b825b8 25b825b8     .%.%.%.%.%.%.%.%
   16a80:	25b825b8 25b825b8 25b825b8 25b825b8     .%.%.%.%.%.%.%.%
   16a90:	25b825b8 25b825b8 25b825b8 25b825b8     .%.%.%.%.%.%.%.%
   16aa0:	25982598 25b825b8 25b825b8 25b825b8     .%.%.%.%.%.%.%.%
   16ab0:	25b825b8 25b825b8 25972598 3d762d76     .%.%.%.%.%.%v-v=
   16ac0:	1aaa3451 6a884268 8a448266 8a448a44     Q4..hB.jf.D.D.D.
   16ad0:	8a249244 8a458a45 72888245 2a294a68     D.$.E.E.E..rhJ)*
   16ae0:	226b2a6b 226b226b 226b226b 226b226b     k*k"k"k"k"k"k"k"
   16af0:	1b6f126c 2d773d57 25982597 25b82598     l.o.W=w-.%.%.%.%
   16b00:	25b825b8 25b825b8 25b825b8 25b825b8     .%.%.%.%.%.%.%.%
   16b10:	25b825b8 25b825b8 1db81db8 25b825b8     .%.%.%.%.....%.%
   16b20:	25b825b8 25b825b8 25b825b8 25b825b8     .%.%.%.%.%.%.%.%
   16b30:	25b825b8 25b825b8 25b825b8 25b825b8     .%.%.%.%.%.%.%.%
   16b40:	25b825b8 25b825b8 25b825b8 25b825b8     .%.%.%.%.%.%.%.%
   16b50:	25b825b8 25b825b8 25b825b8 25b825b8     .%.%.%.%.%.%.%.%
   16b60:	25b825b8 25b825b8 25b825b8 25b825b8     .%.%.%.%.%.%.%.%
   16b70:	25b825b8 25b825b8 25b825b8 25b825b8     .%.%.%.%.%.%.%.%
   16b80:	25b825b8 25b825b8 25b825b8 25b825b8     .%.%.%.%.%.%.%.%
   16b90:	25b825b8 25b825b8 25b825b8 25b825b8     .%.%.%.%.%.%.%.%
   16ba0:	25b825b8 25b825b8 25b825b8 25b825b8     .%.%.%.%.%.%.%.%
   16bb0:	25b825b8 25b825b8 25b825b8 25b825b8     .%.%.%.%.%.%.%.%
   16bc0:	25b825b8 25b825b8 25b825b8 25b825b8     .%.%.%.%.%.%.%.%
   16bd0:	25b825b8 25b825b8 25b825b8 25b825b8     .%.%.%.%.%.%.%.%
   16be0:	25b825b8 259825b8 675e2dd8 257756fc     .%.%.%.%.-^g.Vw%
   16bf0:	25982597 25b825b8 1db81db8 25b825b8     .%.%.%.%.....%.%
   16c00:	25b825b8 25b825b8 25b825b8 25b825b8     .%.%.%.%.%.%.%.%
   16c10:	25b825b8 25b825b8 1d981db8 155725b8     .%.%.%.%.....%W.
   16c20:	25b825b8 25b825b8 25b825b8 25b825b8     .%.%.%.%.%.%.%.%
   16c30:	25b825b8 25b825b8 25b825b8 25b825b8     .%.%.%.%.%.%.%.%
   16c40:	25b825b8 25b825b8 25b825b8 25b825b8     .%.%.%.%.%.%.%.%
   16c50:	25b825b8 25b825b8 25b825b8 25b825b8     .%.%.%.%.%.%.%.%
   16c60:	25b825b8 25b825b8 25b825b8 25b825b8     .%.%.%.%.%.%.%.%
   16c70:	25b825b8 25b825b8 25b825b8 25b825b8     .%.%.%.%.%.%.%.%
   16c80:	25b825b8 259725b7 25b72597 1db825b8     .%.%.%.%.%.%.%..
   16c90:	25b825b8 25b825b8 25b825b8 25b825b8     .%.%.%.%.%.%.%.%
   16ca0:	25b825b8 25b825b8 25b825b8 25b825b8     .%.%.%.%.%.%.%.%
   16cb0:	25b825b8 25b825b8 25b825b8 25b825b8     .%.%.%.%.%.%.%.%
   16cc0:	25b825b8 25b825b8 25b825b8 25b825b8     .%.%.%.%.%.%.%.%
   16cd0:	25b825b8 25b825b8 25b825b8 25b825b8     .%.%.%.%.%.%.%.%
   16ce0:	25b825b8 25b825b8 25b825b8 25b825b8     .%.%.%.%.%.%.%.%
   16cf0:	25b825b8 25b825b8 25b825b8 25b825b8     .%.%.%.%.%.%.%.%
   16d00:	25b825b8 25b825b8 25b825b8 25b825b8     .%.%.%.%.%.%.%.%
   16d10:	25b825b8 25b825b8 25b825b8 25b825b8     .%.%.%.%.%.%.%.%
   16d20:	25982598 25b825b8 25b825b8 1db81db8     .%.%.%.%.%.%....
   16d30:	25b825b8 25b81db8 25982598 257725b8     .%.%...%.%.%.%w%
   16d40:	4d963577 08e35c72 20601040 20402040     w5.Mr\..@.` @ @ 
   16d50:	20402040 18402040 00401840 65963b4d     @ @ @ @.@.@.M;.e
   16d60:	45574d36 45574d57 45574557 45574d57     6MWEWMWEWEWEWMWE
   16d70:	35774578 25982d97 25b825b8 25982598     xEw5.-.%.%.%.%.%
   16d80:	25b825b8 25b825b8 25b825b8 25b825b8     .%.%.%.%.%.%.%.%
   16d90:	25b825b8 25b825b8 1db81db8 25b825b8     .%.%.%.%.....%.%
   16da0:	25b825b8 25b825b8 25b825b8 25b825b8     .%.%.%.%.%.%.%.%
   16db0:	25b825b8 25b825b8 25b825b8 25b825b8     .%.%.%.%.%.%.%.%
   16dc0:	25b825b8 25b825b8 25b825b8 25b825b8     .%.%.%.%.%.%.%.%
   16dd0:	25b825b8 25b825b8 25b825b8 25b825b8     .%.%.%.%.%.%.%.%
   16de0:	25b825b8 25b825b8 25b825b8 25b825b8     .%.%.%.%.%.%.%.%
   16df0:	25b825b8 25b825b8 25b825b8 25b825b8     .%.%.%.%.%.%.%.%
   16e00:	25b825b8 25b825b8 25b825b8 25b825b8     .%.%.%.%.%.%.%.%
   16e10:	25b825b8 25b825b8 25b825b8 25b825b8     .%.%.%.%.%.%.%.%
   16e20:	25b825b8 25b825b8 25b825b8 25b825b8     .%.%.%.%.%.%.%.%
   16e30:	25b825b8 25b825b8 25b825b8 25b825b8     .%.%.%.%.%.%.%.%
   16e40:	25b825b8 25b825b8 25b825b8 25b825b8     .%.%.%.%.%.%.%.%
   16e50:	25b825b8 25b825b8 25b825b8 25b825b8     .%.%.%.%.%.%.%.%
   16e60:	25b825b8 259725b8 675e2db8 25b756fc     .%.%.%.%.-^g.V.%
   16e70:	25b82597 25b825b8 1db81db8 25b825b8     .%.%.%.%.....%.%
   16e80:	25b825b8 25b825b8 25b825b8 25b825b8     .%.%.%.%.%.%.%.%
   16e90:	25b825b8 25b825b8 1d981db8 155725b8     .%.%.%.%.....%W.
   16ea0:	25b825b8 25b825b8 25b825b8 25b825b8     .%.%.%.%.%.%.%.%
   16eb0:	25b825b8 25b825b8 25b825b8 25b825b8     .%.%.%.%.%.%.%.%
   16ec0:	25b825b8 25b825b8 25b825b8 25b825b8     .%.%.%.%.%.%.%.%
   16ed0:	25b825b8 25b825b8 25b825b8 25b825b8     .%.%.%.%.%.%.%.%
   16ee0:	25b825b8 25b825b8 25b825b8 25b825b8     .%.%.%.%.%.%.%.%
   16ef0:	25b825b8 25b825b8 25b825b8 25b825b8     .%.%.%.%.%.%.%.%
   16f00:	259825b8 2d972d97 25b725b7 1db81db8     .%.%.-.-.%.%....
   16f10:	25b825b8 25b825b8 25b825b8 1db81db8     .%.%.%.%.%.%....
   16f20:	25b825b8 25b825b8 25b825b8 25b825b8     .%.%.%.%.%.%.%.%
   16f30:	25b825b8 25b825b8 25b825b8 25b825b8     .%.%.%.%.%.%.%.%
   16f40:	25b825b8 25b825b8 25b825b8 25b825b8     .%.%.%.%.%.%.%.%
   16f50:	25b825b8 25b825b8 25b825b8 25b825b8     .%.%.%.%.%.%.%.%
   16f60:	25b825b8 25b825b8 25b825b8 25b825b8     .%.%.%.%.%.%.%.%
   16f70:	25b825b8 25b825b8 25b825b8 25b825b8     .%.%.%.%.%.%.%.%
   16f80:	25b825b8 25b825b8 25b825b8 25b825b8     .%.%.%.%.%.%.%.%
   16f90:	25b825b8 25b825b8 25b825b8 25b825b8     .%.%.%.%.%.%.%.%
   16fa0:	25b825b8 25b825b8 25b825b8 25b825b8     .%.%.%.%.%.%.%.%
   16fb0:	25b825b8 25b81db8 25982598 25972598     .%.%...%.%.%.%.%
   16fc0:	35772597 02093cb4 098701a7 09870987     .%w5.<..........
   16fd0:	09870987 09a70987 01a709c7 3d971bf0     ...............=
   16fe0:	2d772d56 2d772d77 2d772d77 2d772d77     V-w-w-w-w-w-w-w-
   16ff0:	2d772d77 25b82597 1db81d98 25b825b8     w-w-.%.%.....%.%
   17000:	25b825b8 25b825b8 25b825b8 25b825b8     .%.%.%.%.%.%.%.%
   17010:	25b825b8 25b825b8 25b825b8 25b825b8     .%.%.%.%.%.%.%.%
   17020:	25b825b8 25b825b8 25b825b8 25b825b8     .%.%.%.%.%.%.%.%
   17030:	25b825b8 25b825b8 25b825b8 25b825b8     .%.%.%.%.%.%.%.%
   17040:	25b825b8 25b825b8 25b825b8 25b825b8     .%.%.%.%.%.%.%.%
   17050:	25b825b8 25b825b8 25b825b8 25b825b8     .%.%.%.%.%.%.%.%
   17060:	25b825b8 25b825b8 25b825b8 25b825b8     .%.%.%.%.%.%.%.%
   17070:	25b825b8 25b825b8 25b825b8 25b825b8     .%.%.%.%.%.%.%.%
   17080:	25b825b8 25b825b8 25b825b8 25b825b8     .%.%.%.%.%.%.%.%
   17090:	25b825b8 25b825b8 25b825b8 25b825b8     .%.%.%.%.%.%.%.%
   170a0:	25b825b8 25b825b8 25b825b8 25b825b8     .%.%.%.%.%.%.%.%
   170b0:	25b825b8 25b825b8 25b825b8 25b825b8     .%.%.%.%.%.%.%.%
   170c0:	25b825b8 25b825b8 25b825b8 25b825b8     .%.%.%.%.%.%.%.%
   170d0:	25b825b8 25b825b8 25b825b8 25b825b8     .%.%.%.%.%.%.%.%
   170e0:	25b825b8 259825b8 259725b7 25972db7     .%.%.%.%.%.%.-.%
   170f0:	1db825b8 1db81db8 25b825b8 259825b8     .%.......%.%.%.%
   17100:	25b825b8 25b825b8 25b825b8 25b825b8     .%.%.%.%.%.%.%.%
   17110:	25b825b8 25b825b8 1d981db8 155725b8     .%.%.%.%.....%W.
   17120:	25b825b8 25b825b8 25b825b8 25b825b8     .%.%.%.%.%.%.%.%
   17130:	25b825b8 25b825b8 25b825b8 25b825b8     .%.%.%.%.%.%.%.%
   17140:	25b825b8 25b825b8 25b825b8 25b825b8     .%.%.%.%.%.%.%.%
   17150:	25b825b8 25b825b8 25b825b8 25b825b8     .%.%.%.%.%.%.%.%
   17160:	25b825b8 25b825b8 25b825b8 25b825b8     .%.%.%.%.%.%.%.%
   17170:	25b825b8 25b825b8 25b825b8 25b825b8     .%.%.%.%.%.%.%.%
   17180:	259725b8 675e5f1d 1d972db8 1db81db8     .%.%._^g.-......
   17190:	25b825b8 25b825b8 25b825b8 1db81db8     .%.%.%.%.%.%....
   171a0:	25b825b8 25b825b8 25b825b8 25b825b8     .%.%.%.%.%.%.%.%
   171b0:	25b825b8 25b825b8 25b825b8 25b825b8     .%.%.%.%.%.%.%.%
   171c0:	25b825b8 25b825b8 25b825b8 25b825b8     .%.%.%.%.%.%.%.%
   171d0:	25b825b8 25b825b8 25b825b8 25b825b8     .%.%.%.%.%.%.%.%
   171e0:	25b825b8 25b825b8 25b825b8 25b825b8     .%.%.%.%.%.%.%.%
   171f0:	25b825b8 25b825b8 25b825b8 25b825b8     .%.%.%.%.%.%.%.%
   17200:	25b825b8 25b825b8 25b825b8 25b825b8     .%.%.%.%.%.%.%.%
   17210:	25b825b8 25b825b8 25b825b8 25b825b8     .%.%.%.%.%.%.%.%
   17220:	25b825b8 25b825b8 25b825b8 25b825b8     .%.%.%.%.%.%.%.%
   17230:	25b825b8 25b825b8 25982598 1d982598     .%.%.%.%.%.%.%..
   17240:	259725b8 3d363577 44f544f5 4cf544f5     .%.%w56=.D.D.D.L
   17250:	44f54cf5 44f544f5 3d1544f5 25982d77     .L.D.D.D.D.=w-.%
   17260:	25b82597 1d972597 1d971d97 25982597     .%.%.%.......%.%
   17270:	25972597 25b82598 1d981db8 25b825b8     .%.%.%.%.....%.%
   17280:	25b825b8 25b825b8 25b825b8 25b825b8     .%.%.%.%.%.%.%.%
   17290:	25b825b8 25b825b8 25b825b8 25b825b8     .%.%.%.%.%.%.%.%
   172a0:	25b825b8 25b825b8 25b825b8 25b825b8     .%.%.%.%.%.%.%.%
   172b0:	25b825b8 25b825b8 25b825b8 25b825b8     .%.%.%.%.%.%.%.%
   172c0:	25b825b8 25b825b8 25b825b8 25b825b8     .%.%.%.%.%.%.%.%
   172d0:	25b825b8 25b825b8 25b825b8 25b825b8     .%.%.%.%.%.%.%.%
   172e0:	25b825b8 25b825b8 25b825b8 25b825b8     .%.%.%.%.%.%.%.%
   172f0:	25b825b8 25b825b8 25b825b8 25b825b8     .%.%.%.%.%.%.%.%
   17300:	25b825b8 25b825b8 25b825b8 25b825b8     .%.%.%.%.%.%.%.%
   17310:	25b825b8 25b825b8 25b825b8 25b825b8     .%.%.%.%.%.%.%.%
   17320:	25b825b8 25b825b8 25b825b8 25b825b8     .%.%.%.%.%.%.%.%
   17330:	25b825b8 25b825b8 25b825b8 25b825b8     .%.%.%.%.%.%.%.%
   17340:	25b825b8 25b825b8 25b825b8 25b825b8     .%.%.%.%.%.%.%.%
   17350:	25b825b8 25b825b8 25b825b8 25b825b8     .%.%.%.%.%.%.%.%
   17360:	25b825b8 25b825b8 25972597 1d982598     .%.%.%.%.%.%.%..
   17370:	1db825b8 1db81db8 25b825b8 259825b8     .%.......%.%.%.%
   17380:	25b825b8 25b825b8 25b825b8 25b825b8     .%.%.%.%.%.%.%.%
   17390:	25b825b8 25b825b8 1d981db8 155725b8     .%.%.%.%.....%W.
   173a0:	25b825b8 25b825b8 25b825b8 25b825b8     .%.%.%.%.%.%.%.%
   173b0:	25b825b8 25b825b8 25b825b8 25b825b8     .%.%.%.%.%.%.%.%
   173c0:	25b825b8 25b825b8 25b825b8 25b825b8     .%.%.%.%.%.%.%.%
   173d0:	25b825b8 25b825b8 25b825b8 25b825b8     .%.%.%.%.%.%.%.%
   173e0:	25b825b8 25b825b8 25b825b8 25b825b8     .%.%.%.%.%.%.%.%
   173f0:	25b825b8 25b825b8 25b825b8 25b825b8     .%.%.%.%.%.%.%.%
   17400:	259725b8 467a465a 1d972db8 1db81db8     .%.%ZFzF.-......
   17410:	25b825b8 25b825b8 25b825b8 25b825b8     .%.%.%.%.%.%.%.%
   17420:	25b825b8 25b825b8 25b825b8 25b825b8     .%.%.%.%.%.%.%.%
   17430:	25b825b8 25b825b8 25b825b8 25b825b8     .%.%.%.%.%.%.%.%
   17440:	25b825b8 25b825b8 25b825b8 25b825b8     .%.%.%.%.%.%.%.%
   17450:	25b825b8 25b825b8 25b825b8 25b825b8     .%.%.%.%.%.%.%.%
   17460:	25b825b8 25b825b8 25b825b8 25b825b8     .%.%.%.%.%.%.%.%
   17470:	25b825b8 25b825b8 25b825b8 25b825b8     .%.%.%.%.%.%.%.%
   17480:	25b825b8 25b825b8 25b825b8 25b825b8     .%.%.%.%.%.%.%.%
   17490:	25b825b8 25b825b8 25b825b8 25b825b8     .%.%.%.%.%.%.%.%
   174a0:	25b825b8 1db81db8 25b825b8 25b825b8     .%.%.....%.%.%.%
   174b0:	25b825b8 259825b8 25b82598 1db81db8     .%.%.%.%.%.%....
   174c0:	25981db8 2d982598 35772d77 35773577     ...%.%.-w-w5w5w5
   174d0:	35773577 2d772d77 2d972d77 25982597     w5w5w-w-w-.-.%.%
   174e0:	25982598 25982598 25b82598 25b825b8     .%.%.%.%.%.%.%.%
   174f0:	25b825b8 25b825b8 25b825b8 25b825b8     .%.%.%.%.%.%.%.%
   17500:	25b825b8 25982598 25b825b8 25b825b8     .%.%.%.%.%.%.%.%
   17510:	25b825b8 25b825b8 25b825b8 25b825b8     .%.%.%.%.%.%.%.%
   17520:	25b825b8 25b825b8 25b825b8 25b825b8     .%.%.%.%.%.%.%.%
   17530:	25b825b8 25b825b8 25b825b8 25b825b8     .%.%.%.%.%.%.%.%
   17540:	25b825b8 25b825b8 25b825b8 25b825b8     .%.%.%.%.%.%.%.%
   17550:	25b825b8 25b825b8 25b825b8 25b825b8     .%.%.%.%.%.%.%.%
   17560:	25b825b8 25b825b8 25b825b8 25b825b8     .%.%.%.%.%.%.%.%
   17570:	25b825b8 25b825b8 25b825b8 25b825b8     .%.%.%.%.%.%.%.%
   17580:	25b825b8 25b825b8 25b825b8 25b825b8     .%.%.%.%.%.%.%.%
   17590:	25b825b8 25b825b8 25b825b8 25b825b8     .%.%.%.%.%.%.%.%
   175a0:	25b825b8 25b825b8 25b825b8 25b825b8     .%.%.%.%.%.%.%.%
   175b0:	25b825b8 25b825b8 25b825b8 25b825b8     .%.%.%.%.%.%.%.%
   175c0:	25b825b8 25b825b8 25b825b8 25b825b8     .%.%.%.%.%.%.%.%
   175d0:	25b825b8 25b825b8 25b825b8 25b825b8     .%.%.%.%.%.%.%.%
   175e0:	25b825b8 25b825b8 25b825b8 25b825b8     .%.%.%.%.%.%.%.%
   175f0:	1db81db8 25b825b8 25b825b8 25b825b8     .....%.%.%.%.%.%
   17600:	25b825b8 25b825b8 25b825b8 25b825b8     .%.%.%.%.%.%.%.%
   17610:	25b825b8 25b825b8 1d981db8 155725b8     .%.%.%.%.....%W.
   17620:	25b825b8 25b825b8 25b825b8 25b825b8     .%.%.%.%.%.%.%.%
   17630:	25b825b8 25b825b8 25b825b8 25b825b8     .%.%.%.%.%.%.%.%
   17640:	25b825b8 25b825b8 25b825b8 25b825b8     .%.%.%.%.%.%.%.%
   17650:	25b825b8 25b825b8 25b825b8 25b825b8     .%.%.%.%.%.%.%.%
   17660:	25b825b8 25b825b8 25b825b8 25b825b8     .%.%.%.%.%.%.%.%
   17670:	25b825b8 25b825b8 25b825b8 25b825b8     .%.%.%.%.%.%.%.%
   17680:	259725b8 25772577 25b725b7 1db825b8     .%.%w%w%.%.%.%..
   17690:	25b825b8 25b825b8 25b825b8 25b825b8     .%.%.%.%.%.%.%.%
   176a0:	25b825b8 25b825b8 25b825b8 25b825b8     .%.%.%.%.%.%.%.%
   176b0:	25b825b8 25b825b8 25b825b8 25b825b8     .%.%.%.%.%.%.%.%
   176c0:	25b825b8 25b825b8 25b825b8 25b825b8     .%.%.%.%.%.%.%.%
   176d0:	25b825b8 25b825b8 25b825b8 25b825b8     .%.%.%.%.%.%.%.%
   176e0:	25b825b8 25b825b8 25b825b8 25b825b8     .%.%.%.%.%.%.%.%
   176f0:	25b825b8 25b825b8 25b825b8 25b825b8     .%.%.%.%.%.%.%.%
   17700:	25b825b8 25b825b8 25b825b8 25b825b8     .%.%.%.%.%.%.%.%
   17710:	25b825b8 25b825b8 25b825b8 25b825b8     .%.%.%.%.%.%.%.%
   17720:	25b825b8 1db825b8 25b825b8 25b825b8     .%.%.%...%.%.%.%
   17730:	25b825b8 25b825b8 1db825b8 1db81db8     .%.%.%.%.%......
   17740:	25b81db8 1d981db8 25982598 25982598     ...%.....%.%.%.%
   17750:	25982598 25982598 25982598 25b825b8     .%.%.%.%.%.%.%.%
   17760:	25982598 25982598 25b82598 1db81d98     .%.%.%.%.%.%....
   17770:	1db81d98 25b825b8 25b825b8 25b825b8     .....%.%.%.%.%.%
   17780:	25b825b8 25982598 25b825b8 25b825b8     .%.%.%.%.%.%.%.%
   17790:	25b825b8 25b825b8 25b825b8 25b825b8     .%.%.%.%.%.%.%.%
   177a0:	25b825b8 25b825b8 25b825b8 25b825b8     .%.%.%.%.%.%.%.%
   177b0:	25b825b8 25b825b8 25b825b8 25b825b8     .%.%.%.%.%.%.%.%
   177c0:	25b825b8 25b825b8 25b825b8 25b825b8     .%.%.%.%.%.%.%.%
   177d0:	25b825b8 25b825b8 25b825b8 25b825b8     .%.%.%.%.%.%.%.%
   177e0:	25b825b8 25b825b8 25b825b8 25b825b8     .%.%.%.%.%.%.%.%
   177f0:	25b825b8 25b825b8 25b825b8 25b825b8     .%.%.%.%.%.%.%.%
   17800:	25b825b8 25b825b8 25b825b8 25b825b8     .%.%.%.%.%.%.%.%
   17810:	25b825b8 25b825b8 25b825b8 25b825b8     .%.%.%.%.%.%.%.%
   17820:	25b825b8 25b825b8 25b825b8 25b825b8     .%.%.%.%.%.%.%.%
   17830:	25b825b8 25b825b8 25b825b8 25b825b8     .%.%.%.%.%.%.%.%
   17840:	25b825b8 25b825b8 25b825b8 25b825b8     .%.%.%.%.%.%.%.%
   17850:	25b825b8 25b825b8 25b825b8 25b825b8     .%.%.%.%.%.%.%.%
   17860:	25b825b8 1d9825b8 1db81db8 1db81db8     .%.%.%..........
   17870:	1db81db8 25b825b8 25b825b8 25b825b8     .....%.%.%.%.%.%
   17880:	25b825b8 25b825b8 25b825b8 25b825b8     .%.%.%.%.%.%.%.%
   17890:	25b825b8 25b825b8 1d981db8 155725b8     .%.%.%.%.....%W.
   178a0:	25b825b8 25b825b8 25b825b8 25b825b8     .%.%.%.%.%.%.%.%
   178b0:	25b825b8 25b825b8 25b825b8 25b825b8     .%.%.%.%.%.%.%.%
   178c0:	25b825b8 25b825b8 25b825b8 25b825b8     .%.%.%.%.%.%.%.%
   178d0:	25b825b8 25b825b8 25b825b8 25b825b8     .%.%.%.%.%.%.%.%
   178e0:	25b825b8 25b825b8 25b825b8 25b825b8     .%.%.%.%.%.%.%.%
   178f0:	25b825b8 25b825b8 25b825b8 25b825b8     .%.%.%.%.%.%.%.%
   17900:	25b825b8 25972598 25982597 259825b8     .%.%.%.%.%.%.%.%
   17910:	25b82598 1db825b8 25b825b8 1db81db8     .%.%.%...%.%....
   17920:	25b825b8 25b825b8 25b825b8 25b825b8     .%.%.%.%.%.%.%.%
   17930:	25b825b8 25b825b8 25b825b8 25b825b8     .%.%.%.%.%.%.%.%
   17940:	25b825b8 25b825b8 25b825b8 25b825b8     .%.%.%.%.%.%.%.%
   17950:	25b825b8 25b825b8 25b825b8 25b825b8     .%.%.%.%.%.%.%.%
   17960:	25b825b8 25b825b8 25b825b8 25b825b8     .%.%.%.%.%.%.%.%
   17970:	25b825b8 25b825b8 25b825b8 25b825b8     .%.%.%.%.%.%.%.%
   17980:	25b825b8 25b825b8 25b825b8 25b825b8     .%.%.%.%.%.%.%.%
   17990:	25b825b8 25b825b8 25b825b8 25b825b8     .%.%.%.%.%.%.%.%
   179a0:	25b82598 25b825b8 25b825b8 25b825b8     .%.%.%.%.%.%.%.%
   179b0:	25b825b8 1db825b8 25b81db8 25b825b8     .%.%.%.....%.%.%
   179c0:	1db825b8 25b825b8 25b825b8 25b81db8     .%...%.%.%.%...%
   179d0:	25982598 25982598 25b82598 25b725b7     .%.%.%.%.%.%.%.%
   179e0:	25b825b8 25b825b8 259825b8 25982598     .%.%.%.%.%.%.%.%
   179f0:	25b82598 25b825b8 25b825b8 25b825b8     .%.%.%.%.%.%.%.%
   17a00:	25982598 25b825b8 25b825b8 25b825b8     .%.%.%.%.%.%.%.%
   17a10:	25b825b8 25b825b8 25982598 25b825b8     .%.%.%.%.%.%.%.%
   17a20:	25b825b8 25b825b8 25b825b8 25b825b8     .%.%.%.%.%.%.%.%
   17a30:	25b825b8 25b825b8 25b825b8 25b825b8     .%.%.%.%.%.%.%.%
   17a40:	25b825b8 25b825b8 25b825b8 25b825b8     .%.%.%.%.%.%.%.%
   17a50:	25b825b8 25b825b8 25b825b8 25b825b8     .%.%.%.%.%.%.%.%
   17a60:	25b825b8 25b825b8 25b825b8 25b825b8     .%.%.%.%.%.%.%.%
   17a70:	25b825b8 25b825b8 25b825b8 25b825b8     .%.%.%.%.%.%.%.%
   17a80:	25b825b8 25b825b8 25b825b8 25b825b8     .%.%.%.%.%.%.%.%
   17a90:	25b825b8 25b825b8 25b825b8 25b825b8     .%.%.%.%.%.%.%.%
   17aa0:	25b825b8 25b825b8 25b825b8 25b825b8     .%.%.%.%.%.%.%.%
   17ab0:	25b825b8 25b825b8 25b825b8 25b825b8     .%.%.%.%.%.%.%.%
   17ac0:	25b825b8 25b825b8 25b825b8 25b825b8     .%.%.%.%.%.%.%.%
   17ad0:	25b825b8 25b825b8 25b825b8 25b825b8     .%.%.%.%.%.%.%.%
   17ae0:	25b825b8 25b825b8 1db81db8 1db81db8     .%.%.%.%........
   17af0:	25b825b8 25b825b8 25b825b8 25982598     .%.%.%.%.%.%.%.%
   17b00:	25b825b8 25b825b8 25b825b8 25b825b8     .%.%.%.%.%.%.%.%
   17b10:	25b825b8 25b825b8 1d981db8 155725b8     .%.%.%.%.....%W.
   17b20:	25b825b8 25b825b8 25b825b8 25b825b8     .%.%.%.%.%.%.%.%
   17b30:	25b825b8 25b825b8 25b825b8 25b825b8     .%.%.%.%.%.%.%.%
   17b40:	25b825b8 25b825b8 25b825b8 25b825b8     .%.%.%.%.%.%.%.%
   17b50:	25b825b8 25b825b8 25b825b8 25b825b8     .%.%.%.%.%.%.%.%
   17b60:	25b825b8 25b825b8 25b825b8 25b825b8     .%.%.%.%.%.%.%.%
   17b70:	25b825b8 25b825b8 25b825b8 25b825b8     .%.%.%.%.%.%.%.%
   17b80:	1db82598 25b81db8 259825b8 25982598     .%.....%.%.%.%.%
   17b90:	25b82598 1db825b8 25b825b8 1db81db8     .%.%.%...%.%....
   17ba0:	25b825b8 1db81db8 25b825b8 25b825b8     .%.%.....%.%.%.%
   17bb0:	25b825b8 25b825b8 25b825b8 25b825b8     .%.%.%.%.%.%.%.%
   17bc0:	25b825b8 25b825b8 25b825b8 25b825b8     .%.%.%.%.%.%.%.%
   17bd0:	25b825b8 25b825b8 25b825b8 25b825b8     .%.%.%.%.%.%.%.%
   17be0:	25b825b8 25b825b8 25b825b8 25b825b8     .%.%.%.%.%.%.%.%
   17bf0:	25b825b8 25b825b8 25b825b8 25b825b8     .%.%.%.%.%.%.%.%
   17c00:	25b825b8 25b825b8 25b825b8 25b825b8     .%.%.%.%.%.%.%.%
   17c10:	25b825b8 25b825b8 25b825b8 25b825b8     .%.%.%.%.%.%.%.%
   17c20:	25982598 25b825b8 25b825b8 25b825b8     .%.%.%.%.%.%.%.%
   17c30:	25b825b8 1db81db8 25b81db8 25982598     .%.%.......%.%.%
   17c40:	1db825b8 25b825b8 1db81db7 1db71db8     .%...%.%........
   17c50:	259825b8 25982598 25982598 25b725b8     .%.%.%.%.%.%.%.%
   17c60:	1db81db8 1db81db7 259825b8 25982598     .........%.%.%.%
   17c70:	25982598 25b825b8 25b825b8 25b825b8     .%.%.%.%.%.%.%.%
   17c80:	25982598 25b825b8 25b825b8 25b825b8     .%.%.%.%.%.%.%.%
   17c90:	25b825b8 25b825b8 25982598 25b825b8     .%.%.%.%.%.%.%.%
   17ca0:	25b825b8 25b825b8 25b825b8 25b825b8     .%.%.%.%.%.%.%.%
   17cb0:	25b825b8 25b825b8 25b825b8 25b825b8     .%.%.%.%.%.%.%.%
   17cc0:	25982598 25b825b8 25b825b8 25b825b8     .%.%.%.%.%.%.%.%
   17cd0:	25b825b8 25b825b8 25b825b8 25b825b8     .%.%.%.%.%.%.%.%
   17ce0:	25b825b8 25b825b8 25b825b8 25b825b8     .%.%.%.%.%.%.%.%
   17cf0:	25b825b8 25b825b8 25b825b8 25b825b8     .%.%.%.%.%.%.%.%
   17d00:	25b825b8 25b825b8 25b825b8 25b825b8     .%.%.%.%.%.%.%.%
   17d10:	25b825b8 25b825b8 25b825b8 25b825b8     .%.%.%.%.%.%.%.%
   17d20:	25b825b8 25b825b8 25b825b8 25b825b8     .%.%.%.%.%.%.%.%
   17d30:	25b825b8 25b825b8 25b825b8 25b825b8     .%.%.%.%.%.%.%.%
   17d40:	25b825b8 25b825b8 25b825b8 25b825b8     .%.%.%.%.%.%.%.%
   17d50:	25b825b8 25b825b8 25b825b8 25b825b8     .%.%.%.%.%.%.%.%
   17d60:	25b825b8 25b825b8 1d981db8 1db81db8     .%.%.%.%........
   17d70:	25b825b8 25b825b8 25b825b8 25982598     .%.%.%.%.%.%.%.%
   17d80:	25b825b8 25b825b8 25b825b8 25b825b8     .%.%.%.%.%.%.%.%
   17d90:	25b825b8 25b825b8 1d981db8 155725b8     .%.%.%.%.....%W.
   17da0:	25b825b8 25b825b8 25b825b8 25b825b8     .%.%.%.%.%.%.%.%
   17db0:	25b825b8 25b825b8 25b825b8 25b825b8     .%.%.%.%.%.%.%.%
   17dc0:	25b825b8 25b825b8 25b825b8 25b825b8     .%.%.%.%.%.%.%.%
   17dd0:	25b825b8 25b825b8 25b825b8 25b825b8     .%.%.%.%.%.%.%.%
   17de0:	25b825b8 25b825b8 1db81db8 25b825b8     .%.%.%.%.....%.%
   17df0:	25982598 25982598 25b825b8 25b825b8     .%.%.%.%.%.%.%.%
   17e00:	1db81db8 1db81db8 25b81db8 1db81db8     ...........%....
   17e10:	25b825b8 25982598 25b825b8 25982598     .%.%.%.%.%.%.%.%
   17e20:	1db81d98 1db81db8 259825b8 25982598     .........%.%.%.%
   17e30:	1db81db8 25b825b8 25b825b8 25b825b8     .....%.%.%.%.%.%
   17e40:	25b825b8 25b825b8 25b825b8 25b825b8     .%.%.%.%.%.%.%.%
   17e50:	25b825b8 25b825b8 25b825b8 25b825b8     .%.%.%.%.%.%.%.%
   17e60:	25b825b8 25b825b8 25b825b8 25b825b8     .%.%.%.%.%.%.%.%
   17e70:	25b825b8 25b825b8 25b825b8 25b825b8     .%.%.%.%.%.%.%.%
   17e80:	25b825b8 25b825b8 25982598 25b825b8     .%.%.%.%.%.%.%.%
   17e90:	25b825b8 1db81db8 25b825b8 25b825b8     .%.%.....%.%.%.%
   17ea0:	25b825b8 25b825b8 25b825b8 25b825b8     .%.%.%.%.%.%.%.%
   17eb0:	25b825b8 25b825b8 25b825b8 25982598     .%.%.%.%.%.%.%.%
   17ec0:	25b825b8 1db81db8 1db81db8 1db81db8     .%.%............
   17ed0:	25b825b8 25b825b8 1db825b8 25b825b8     .%.%.%.%.%...%.%
   17ee0:	25b825b8 25b825b8 25b825b8 25b825b8     .%.%.%.%.%.%.%.%
   17ef0:	25b825b8 25b825b8 25b825b8 25b825b8     .%.%.%.%.%.%.%.%
   17f00:	25b825b8 25b825b8 25b825b8 25b825b8     .%.%.%.%.%.%.%.%
   17f10:	25b825b8 25b825b8 25982598 25b82598     .%.%.%.%.%.%.%.%
   17f20:	25982598 25b825b8 1db81db8 25b825b8     .%.%.%.%.....%.%
   17f30:	25b81db8 25982598 25b825b8 25b81db8     ...%.%.%.%.%...%
   17f40:	25982598 25b82598 25b825b8 25b825b8     .%.%.%.%.%.%.%.%
   17f50:	25b825b8 25b825b8 25b81db8 259825b8     .%.%.%.%...%.%.%
   17f60:	25b82598 1db825b8 25b825b8 25b825b8     .%.%.%...%.%.%.%
   17f70:	25b825b8 25b825b8 25b825b8 25b825b8     .%.%.%.%.%.%.%.%
   17f80:	25b825b8 25b825b8 25b825b8 25b825b8     .%.%.%.%.%.%.%.%
   17f90:	25b825b8 25b825b8 25b825b8 25b825b8     .%.%.%.%.%.%.%.%
   17fa0:	25b825b8 25b825b8 25b825b8 25b825b8     .%.%.%.%.%.%.%.%
   17fb0:	25982598 25b825b8 25b825b8 25b825b8     .%.%.%.%.%.%.%.%
   17fc0:	25b825b8 25b825b8 25b825b8 25b825b8     .%.%.%.%.%.%.%.%
   17fd0:	25b825b8 25b825b8 25b825b8 25b825b8     .%.%.%.%.%.%.%.%
   17fe0:	25b825b8 25b825b8 25b825b8 25b825b8     .%.%.%.%.%.%.%.%
   17ff0:	25b825b8 25b825b8 25b825b8 25b825b8     .%.%.%.%.%.%.%.%
   18000:	25b825b8 25b825b8 25b825b8 25b825b8     .%.%.%.%.%.%.%.%
   18010:	25b825b8 25b825b8 1d981db8 155725b8     .%.%.%.%.....%W.
   18020:	25b825b8 25b825b8 25b825b8 25b825b8     .%.%.%.%.%.%.%.%
   18030:	25b825b8 25b825b8 25b825b8 25b825b8     .%.%.%.%.%.%.%.%
   18040:	25b825b8 25b825b8 25b825b8 25b825b8     .%.%.%.%.%.%.%.%
   18050:	25b825b8 25b825b8 25b825b8 25b825b8     .%.%.%.%.%.%.%.%
   18060:	25b825b8 25b825b8 1db81db8 25b825b8     .%.%.%.%.....%.%
   18070:	25b825b8 259825b8 25b825b8 25b825b8     .%.%.%.%.%.%.%.%
   18080:	1db825b8 1db81db8 1db81db8 1db81db8     .%..............
   18090:	25b825b8 25b825b8 25b825b8 25982598     .%.%.%.%.%.%.%.%
   180a0:	25b82598 1db81db8 259825b8 25982598     .%.%.....%.%.%.%
   180b0:	1db81db8 25b825b8 25b825b8 25b825b8     .....%.%.%.%.%.%
   180c0:	25b825b8 25b825b8 25b825b8 25b825b8     .%.%.%.%.%.%.%.%
   180d0:	25b825b8 25b825b8 25b825b8 25b825b8     .%.%.%.%.%.%.%.%
   180e0:	25b825b8 25b825b8 25b825b8 25b825b8     .%.%.%.%.%.%.%.%
   180f0:	25b825b8 25b825b8 25b825b8 25b825b8     .%.%.%.%.%.%.%.%
   18100:	25b825b8 25b825b8 25982598 25b825b8     .%.%.%.%.%.%.%.%
   18110:	25b825b8 1db81db8 25b825b8 25b825b8     .%.%.....%.%.%.%
   18120:	25b825b8 25b825b8 25b825b8 25b825b8     .%.%.%.%.%.%.%.%
   18130:	25b825b8 25b825b8 25b825b8 25982598     .%.%.%.%.%.%.%.%
   18140:	25b825b8 1db81db8 1db81db8 25b825b8     .%.%.........%.%
   18150:	1db81db8 25b825b8 1db81db8 25b825b8     .....%.%.....%.%
   18160:	25b825b8 25b825b8 25b825b8 25b825b8     .%.%.%.%.%.%.%.%
   18170:	25b825b8 25b825b8 25b825b8 25b825b8     .%.%.%.%.%.%.%.%
   18180:	25b825b8 25b825b8 25b825b8 25b825b8     .%.%.%.%.%.%.%.%
   18190:	1d9825b8 25b825b8 1d9825b8 1db81db8     .%...%.%.%......
   181a0:	25b82598 1d9825b8 25b81db8 25b825b8     .%.%.%.....%.%.%
   181b0:	25b825b8 25982598 25b82598 25b81db8     .%.%.%.%.%.%...%
   181c0:	25982598 25b82598 25b825b8 25b825b8     .%.%.%.%.%.%.%.%
   181d0:	25b825b8 25b825b8 25b825b8 259825b8     .%.%.%.%.%.%.%.%
   181e0:	25b82598 1db825b8 25b825b8 25b825b8     .%.%.%...%.%.%.%
   181f0:	25b825b8 25b825b8 25b825b8 25b825b8     .%.%.%.%.%.%.%.%
   18200:	25b825b8 25b825b8 25b825b8 25b825b8     .%.%.%.%.%.%.%.%
   18210:	25b825b8 25b825b8 25b825b8 25b825b8     .%.%.%.%.%.%.%.%
   18220:	25b825b8 25b825b8 25b825b8 25b825b8     .%.%.%.%.%.%.%.%
   18230:	25982598 25b825b8 25b825b8 25b825b8     .%.%.%.%.%.%.%.%
   18240:	25b825b8 25b825b8 25b825b8 25b825b8     .%.%.%.%.%.%.%.%
   18250:	25b825b8 25b825b8 25b825b8 25b825b8     .%.%.%.%.%.%.%.%
   18260:	25b825b8 25b825b8 25b825b8 25b825b8     .%.%.%.%.%.%.%.%
   18270:	25b825b8 25b825b8 25b825b8 25b825b8     .%.%.%.%.%.%.%.%
   18280:	25b825b8 25b825b8 25b825b8 25b825b8     .%.%.%.%.%.%.%.%
   18290:	25b825b8 25b825b8 1d981db8 155725b8     .%.%.%.%.....%W.
   182a0:	25b825b8 25b825b8 25b825b8 25b825b8     .%.%.%.%.%.%.%.%
   182b0:	25b825b8 25b825b8 25b825b8 25b825b8     .%.%.%.%.%.%.%.%
   182c0:	25b825b8 25b825b8 25b825b8 25b825b8     .%.%.%.%.%.%.%.%
   182d0:	25b825b8 25b825b8 25b825b8 25b825b8     .%.%.%.%.%.%.%.%
   182e0:	25982598 25b825b8 25b825b8 25b825b8     .%.%.%.%.%.%.%.%
   182f0:	1db81db8 25b825b8 1db81db8 25982598     .....%.%.....%.%
   18300:	25b82598 25b825b8 25b825b8 25b825b8     .%.%.%.%.%.%.%.%
   18310:	25b825b8 25b825b8 25982598 25982598     .%.%.%.%.%.%.%.%
   18320:	25982598 1db81db8 1db81db8 25b82598     .%.%.........%.%
   18330:	1db81db8 25b825b8 25b825b8 25b825b8     .....%.%.%.%.%.%
   18340:	25b825b8 25b825b8 25b825b8 25b825b8     .%.%.%.%.%.%.%.%
   18350:	25b825b8 25b825b8 25b825b8 25b825b8     .%.%.%.%.%.%.%.%
   18360:	25b825b8 25b825b8 25b825b8 25b825b8     .%.%.%.%.%.%.%.%
   18370:	25b825b8 25b825b8 25b825b8 25b825b8     .%.%.%.%.%.%.%.%
   18380:	25982598 25b825b8 25b825b8 25b825b8     .%.%.%.%.%.%.%.%
   18390:	25b825b8 25b825b8 25982598 25b825b8     .%.%.%.%.%.%.%.%
   183a0:	25b825b8 25b825b8 25b825b8 25b825b8     .%.%.%.%.%.%.%.%
   183b0:	25b825b8 1db81db8 25b825b8 25b825b8     .%.%.....%.%.%.%
   183c0:	25b825b8 1db81db8 25b825b8 25b825b8     .%.%.....%.%.%.%
   183d0:	25b825b8 25b825b8 25b825b8 25b825b8     .%.%.%.%.%.%.%.%
   183e0:	25b825b8 25b825b8 25b825b8 25b825b8     .%.%.%.%.%.%.%.%
   183f0:	1db81db8 25b825b8 25b825b8 25b825b8     .....%.%.%.%.%.%
   18400:	25b825b8 25b825b8 25b825b8 25b825b8     .%.%.%.%.%.%.%.%
   18410:	1d981db8 25b825b8 1db81db8 1db81d98     .....%.%........
   18420:	1db81db8 25b825b8 25b825b8 25982598     .....%.%.%.%.%.%
   18430:	25982598 25982598 25982598 1db81db8     .%.%.%.%.%.%....
   18440:	25b825b8 25982598 25b825b8 25b825b8     .%.%.%.%.%.%.%.%
   18450:	25b825b8 25b82598 25b825b8 25b825b8     .%.%.%.%.%.%.%.%
   18460:	25b825b8 25b825b8 25b825b8 25b825b8     .%.%.%.%.%.%.%.%
   18470:	25982598 25b825b8 25b825b8 25b825b8     .%.%.%.%.%.%.%.%
   18480:	25b825b8 25b825b8 25b825b8 25b825b8     .%.%.%.%.%.%.%.%
   18490:	25b825b8 25b825b8 25b825b8 25b825b8     .%.%.%.%.%.%.%.%
   184a0:	25b825b8 25982598 25b825b8 25b825b8     .%.%.%.%.%.%.%.%
   184b0:	25b825b8 25b825b8 25b825b8 25b825b8     .%.%.%.%.%.%.%.%
   184c0:	25b825b8 25b825b8 25b825b8 25b825b8     .%.%.%.%.%.%.%.%
   184d0:	25b825b8 25b825b8 25b825b8 25b825b8     .%.%.%.%.%.%.%.%
   184e0:	25982598 25b825b8 25b825b8 25b825b8     .%.%.%.%.%.%.%.%
   184f0:	25b825b8 25b825b8 25b825b8 25b825b8     .%.%.%.%.%.%.%.%
   18500:	25b825b8 25b825b8 25b825b8 25b825b8     .%.%.%.%.%.%.%.%
   18510:	25b825b8 25b825b8 1d981db8 155725b8     .%.%.%.%.....%W.
   18520:	25b825b8 25b825b8 25b825b8 25b825b8     .%.%.%.%.%.%.%.%
   18530:	25b825b8 25b825b8 25b825b8 25b825b8     .%.%.%.%.%.%.%.%
   18540:	25b825b8 25b825b8 25b825b8 25b825b8     .%.%.%.%.%.%.%.%
   18550:	25b825b8 25b825b8 25b825b8 25b825b8     .%.%.%.%.%.%.%.%
   18560:	25982598 25b825b8 25b825b8 25b825b8     .%.%.%.%.%.%.%.%
   18570:	1db81db8 25b825b8 259825b8 25982598     .....%.%.%.%.%.%
   18580:	25772598 25972577 25972597 25982597     .%w%w%.%.%.%.%.%
   18590:	25972597 25982598 25772598 25782578     .%.%.%.%.%w%x%x%
   185a0:	25982578 25782598 25972597 25982597     x%.%.%x%.%.%.%.%
   185b0:	1db825b8 25b825b8 25b825b8 25b825b8     .%...%.%.%.%.%.%
   185c0:	25b825b8 25b825b8 25b825b8 25b825b8     .%.%.%.%.%.%.%.%
   185d0:	25b825b8 25b825b8 25b825b8 25b825b8     .%.%.%.%.%.%.%.%
   185e0:	25b825b8 25b825b8 25b825b8 25b825b8     .%.%.%.%.%.%.%.%
   185f0:	25b825b8 25b825b8 25b825b8 25b825b8     .%.%.%.%.%.%.%.%
   18600:	25982598 25b825b8 25b825b8 25b825b8     .%.%.%.%.%.%.%.%
   18610:	25b825b8 25b825b8 25982598 25b825b8     .%.%.%.%.%.%.%.%
   18620:	25b825b8 25b825b8 25b825b8 25b825b8     .%.%.%.%.%.%.%.%
   18630:	25b825b8 1db81db8 25b825b8 25b825b8     .%.%.....%.%.%.%
   18640:	25b825b8 1db81db8 25b825b8 25b825b8     .%.%.....%.%.%.%
   18650:	25b825b8 25b825b8 25b825b8 25b825b8     .%.%.%.%.%.%.%.%
   18660:	25b825b8 25b825b8 25b825b8 25b825b8     .%.%.%.%.%.%.%.%
   18670:	1db81db8 25b825b8 25b825b8 25b825b8     .....%.%.%.%.%.%
   18680:	25b825b8 25b825b8 25b825b8 25b825b8     .%.%.%.%.%.%.%.%
   18690:	25b81db8 259825b8 25982598 25972597     ...%.%.%.%.%.%.%
   186a0:	25972598 25972597 25982597 25782578     .%.%.%.%.%.%x%x%
   186b0:	25782578 25982578 25982598 1db825b8     x%x%x%.%.%.%.%..
   186c0:	25b81db8 25982598 25b825b8 25b825b8     ...%.%.%.%.%.%.%
   186d0:	25b825b8 25982598 25b825b8 25b825b8     .%.%.%.%.%.%.%.%
   186e0:	25b825b8 25b825b8 25b825b8 25b825b8     .%.%.%.%.%.%.%.%
   186f0:	25b82598 25b825b8 25b825b8 25b825b8     .%.%.%.%.%.%.%.%
   18700:	25b825b8 25b825b8 25b825b8 25b825b8     .%.%.%.%.%.%.%.%
   18710:	25b825b8 25b825b8 25b825b8 25b825b8     .%.%.%.%.%.%.%.%
   18720:	25b825b8 25982598 25b825b8 25b825b8     .%.%.%.%.%.%.%.%
   18730:	25b825b8 25b825b8 25b825b8 25b825b8     .%.%.%.%.%.%.%.%
   18740:	25b825b8 25b825b8 25b825b8 25b825b8     .%.%.%.%.%.%.%.%
   18750:	25b825b8 25b825b8 25b825b8 25b825b8     .%.%.%.%.%.%.%.%
   18760:	25982598 25b825b8 25b825b8 25b825b8     .%.%.%.%.%.%.%.%
   18770:	25b825b8 25b825b8 25b825b8 25b825b8     .%.%.%.%.%.%.%.%
   18780:	25b825b8 25b825b8 25b825b8 25b825b8     .%.%.%.%.%.%.%.%
   18790:	25b825b8 25b825b8 1d981db8 155725b8     .%.%.%.%.....%W.
   187a0:	25b825b8 25b825b8 25b825b8 25b825b8     .%.%.%.%.%.%.%.%
   187b0:	25b825b8 25b825b8 25b825b8 25b825b8     .%.%.%.%.%.%.%.%
   187c0:	25b825b8 25b825b8 25b825b8 25b825b8     .%.%.%.%.%.%.%.%
   187d0:	25b825b8 25b825b8 25b825b8 25b825b8     .%.%.%.%.%.%.%.%
   187e0:	25b825b8 25b825b8 25b825b8 25b825b8     .%.%.%.%.%.%.%.%
   187f0:	25982598 259825b8 2db82597 35773598     .%.%.%.%.%.-.5w5
   18800:	35773597 35773578 35783577 35783578     .5w5x5w5w5x5x5x5
   18810:	35783578 35783578 35783578 35783578     x5x5x5x5x5x5x5x5
   18820:	35983598 35973577 35983597 25982d98     .5.5w5.5.5.5.-.%
   18830:	1db82597 25b825b8 1db81db8 25b825b8     .%...%.%.....%.%
   18840:	25b825b8 25b825b8 25b825b8 25b825b8     .%.%.%.%.%.%.%.%
   18850:	25b825b8 25b825b8 25b825b8 25b825b8     .%.%.%.%.%.%.%.%
   18860:	25b825b8 25b825b8 25b825b8 25b825b8     .%.%.%.%.%.%.%.%
   18870:	25b825b8 25b825b8 25b825b8 25b825b8     .%.%.%.%.%.%.%.%
   18880:	25982598 25b825b8 25b825b8 25b825b8     .%.%.%.%.%.%.%.%
   18890:	25b825b8 25b825b8 25b825b8 25b825b8     .%.%.%.%.%.%.%.%
   188a0:	25b825b8 25b825b8 25b825b8 25982598     .%.%.%.%.%.%.%.%
   188b0:	25b825b8 25b825b8 25b825b8 25982598     .%.%.%.%.%.%.%.%
   188c0:	25b825b8 25b825b8 25b825b8 25b825b8     .%.%.%.%.%.%.%.%
   188d0:	1db81db8 25b825b8 25b825b8 25b825b8     .....%.%.%.%.%.%
   188e0:	25b825b8 25b825b8 25b825b8 25b825b8     .%.%.%.%.%.%.%.%
   188f0:	25b825b8 1db81db8 25b825b8 25b825b8     .%.%.....%.%.%.%
   18900:	25b825b8 25b825b8 25b825b8 25982598     .%.%.%.%.%.%.%.%
   18910:	25b825b8 25981d98 35782d98 35783598     .%.%...%.-x5.5x5
   18920:	35983598 35783578 35773577 35783578     .5.5x5x5w5w5x5x5
   18930:	35983578 35983578 25772d98 25982597     x5.5x5.5.-w%.%.%
   18940:	25b82598 1db81db8 25b825b8 25b825b8     .%.%.....%.%.%.%
   18950:	25b825b8 25b825b8 25b825b8 25b825b8     .%.%.%.%.%.%.%.%
   18960:	25982598 25b825b8 25b825b8 1db81db8     .%.%.%.%.%.%....
   18970:	25b825b8 1db825b8 25b825b8 25b825b8     .%.%.%...%.%.%.%
   18980:	25b825b8 25b825b8 1db81db8 25b825b8     .%.%.%.%.....%.%
   18990:	25b825b8 25b825b8 25b825b8 25982598     .%.%.%.%.%.%.%.%
   189a0:	25b825b8 25b825b8 25b825b8 25b825b8     .%.%.%.%.%.%.%.%
   189b0:	25b825b8 25b825b8 25b825b8 25b825b8     .%.%.%.%.%.%.%.%
   189c0:	25b825b8 25b825b8 25b825b8 25b825b8     .%.%.%.%.%.%.%.%
   189d0:	25b825b8 25b825b8 25b825b8 25b825b8     .%.%.%.%.%.%.%.%
   189e0:	25b825b8 25b825b8 25b825b8 25b825b8     .%.%.%.%.%.%.%.%
   189f0:	25b825b8 25b825b8 25b825b8 25b825b8     .%.%.%.%.%.%.%.%
   18a00:	25b825b8 25b825b8 25b825b8 25b825b8     .%.%.%.%.%.%.%.%
   18a10:	25b825b8 25b825b8 1d981db8 155725b8     .%.%.%.%.....%W.
   18a20:	25b825b8 25b825b8 25b825b8 25b825b8     .%.%.%.%.%.%.%.%
   18a30:	25b825b8 25b825b8 25b825b8 25b825b8     .%.%.%.%.%.%.%.%
   18a40:	25b825b8 25b825b8 25b825b8 25b825b8     .%.%.%.%.%.%.%.%
   18a50:	25b825b8 25b825b8 25b825b8 25b825b8     .%.%.%.%.%.%.%.%
   18a60:	25b825b8 25b825b8 25b825b8 25b825b8     .%.%.%.%.%.%.%.%
   18a70:	25982598 259725b8 2cb52d57 34743474     .%.%.%.%W-.,t4t4
   18a80:	34743474 3c743474 34743c74 34543454     t4t4t4t<t<t4T4T4
   18a90:	34543454 34743454 34743474 34743454     T4T4T4t4t4t4T4t4
   18aa0:	34743474 3c743474 34943c74 2d772cd5     t4t4t4t<t<.4.,w-
   18ab0:	1db82598 25b825b8 1db81db8 25b825b8     .%...%.%.....%.%
   18ac0:	25b825b8 25b825b8 25b825b8 25b825b8     .%.%.%.%.%.%.%.%
   18ad0:	25b825b8 25b825b8 25b825b8 25b825b8     .%.%.%.%.%.%.%.%
   18ae0:	25b825b8 25b825b8 25b825b8 25b825b8     .%.%.%.%.%.%.%.%
   18af0:	25b825b8 25b825b8 25b825b8 25b825b8     .%.%.%.%.%.%.%.%
   18b00:	25982598 25b825b8 25b825b8 25b825b8     .%.%.%.%.%.%.%.%
   18b10:	25b825b8 25b825b8 25b825b8 25b825b8     .%.%.%.%.%.%.%.%
   18b20:	25b825b8 25b825b8 25b825b8 25982598     .%.%.%.%.%.%.%.%
   18b30:	25b825b8 25b825b8 25b825b8 25982598     .%.%.%.%.%.%.%.%
   18b40:	25b825b8 25b825b8 25b825b8 25b825b8     .%.%.%.%.%.%.%.%
   18b50:	1db81db8 25b825b8 25b825b8 25b825b8     .....%.%.%.%.%.%
   18b60:	25b825b8 25b825b8 25b825b8 25b825b8     .%.%.%.%.%.%.%.%
   18b70:	25b825b8 1db81db8 25b825b8 25b825b8     .%.%.....%.%.%.%
   18b80:	25b825b8 25b825b8 25b825b8 25b82598     .%.%.%.%.%.%.%.%
   18b90:	259825b8 2d572598 3c742c74 34743474     .%.%.%W-t,t<t4t4
   18ba0:	34743474 34743474 34743474 34743474     t4t4t4t4t4t4t4t4
   18bb0:	34743474 34943474 35572cd5 25982d97     t4t4t4.4.,W5.-.%
   18bc0:	25982598 1db81db8 25b81db8 25b825b8     .%.%.......%.%.%
   18bd0:	25b825b8 25b825b8 25b825b8 25b825b8     .%.%.%.%.%.%.%.%
   18be0:	25982598 25b825b8 25b825b8 1db81db8     .%.%.%.%.%.%....
   18bf0:	25b825b8 1db81db8 25b825b8 25b825b8     .%.%.....%.%.%.%
   18c00:	25b825b8 25b825b8 25b825b8 25b825b8     .%.%.%.%.%.%.%.%
   18c10:	25b825b8 25b825b8 25b825b8 25982598     .%.%.%.%.%.%.%.%
   18c20:	25b825b8 25b825b8 25b825b8 25b825b8     .%.%.%.%.%.%.%.%
   18c30:	25b825b8 25b825b8 25b825b8 25b825b8     .%.%.%.%.%.%.%.%
   18c40:	25b825b8 25b825b8 25b825b8 25b825b8     .%.%.%.%.%.%.%.%
   18c50:	25b825b8 25b825b8 25b825b8 25b825b8     .%.%.%.%.%.%.%.%
   18c60:	25b825b8 25b825b8 25b825b8 25b825b8     .%.%.%.%.%.%.%.%
   18c70:	25b825b8 25b825b8 25b825b8 25b825b8     .%.%.%.%.%.%.%.%
   18c80:	25b825b8 25b825b8 25b825b8 25b825b8     .%.%.%.%.%.%.%.%
   18c90:	25b825b8 25b825b8 1d981db8 155725b8     .%.%.%.%.....%W.
   18ca0:	25b825b8 25b825b8 25b825b8 25b825b8     .%.%.%.%.%.%.%.%
   18cb0:	25b825b8 25b825b8 25b825b8 25b825b8     .%.%.%.%.%.%.%.%
   18cc0:	25b825b8 25b825b8 25b825b8 25b825b8     .%.%.%.%.%.%.%.%
   18cd0:	25b825b8 25b825b8 25b825b8 25b825b8     .%.%.%.%.%.%.%.%
   18ce0:	25b825b8 25b825b8 1db81db8 25b825b8     .%.%.%.%.....%.%
   18cf0:	25982598 2d772597 01a944f6 00c600a6     .%.%.%w-.D......
   18d00:	00a600a6 00a600c6 00c600a6 00a600a6     ................
   18d10:	00c600c6 00a600a6 00a600a6 00a600a6     ................
   18d20:	00a600a6 00a600a6 010800e7 45780ace     ..............xE
   18d30:	25982578 25b825b8 25b825b8 25b825b8     x%.%.%.%.%.%.%.%
   18d40:	25b825b8 25b825b8 25b825b8 25b825b8     .%.%.%.%.%.%.%.%
   18d50:	25b825b8 25b825b8 25b825b8 25b825b8     .%.%.%.%.%.%.%.%
   18d60:	25b825b8 25b825b8 25b825b8 25b825b8     .%.%.%.%.%.%.%.%
   18d70:	25b825b8 25b825b8 25b825b8 25b825b8     .%.%.%.%.%.%.%.%
   18d80:	25b825b8 25b825b8 25982598 25982598     .%.%.%.%.%.%.%.%
   18d90:	25b825b8 25b82598 1db825b8 25b825b8     .%.%.%.%.%...%.%
   18da0:	25982598 25b825b8 25b825b8 25b825b8     .%.%.%.%.%.%.%.%
   18db0:	1db81db8 25b825b8 25b81db8 259825b8     .....%.%...%.%.%
   18dc0:	25b825b8 25b825b8 25b825b8 25b825b8     .%.%.%.%.%.%.%.%
   18dd0:	1db81db8 259825b8 25b82598 1db82598     .....%.%.%.%.%..
   18de0:	25b825b8 25b825b8 25b825b8 25b825b8     .%.%.%.%.%.%.%.%
   18df0:	25b825b8 25b825b8 25b825b8 25b825b8     .%.%.%.%.%.%.%.%
   18e00:	25b825b8 25b825b8 1db81db8 25b825b8     .%.%.%.%.....%.%
   18e10:	25772598 2c743597 00c700e7 00c600c6     .%w%.5t,........
   18e20:	00c600c6 00c600a6 00c600c6 00c600c6     ................
   18e30:	00a600a6 00e700a6 4537024c 25972d57     ........L.7EW-.%
   18e40:	25982598 1db825b8 1db81db8 1db81db8     .%.%.%..........
   18e50:	1db81db8 25b825b8 25b825b8 25b825b8     .....%.%.%.%.%.%
   18e60:	25b825b8 25b825b8 25b825b8 25b825b8     .%.%.%.%.%.%.%.%
   18e70:	25b825b8 25b825b8 25b825b8 25982598     .%.%.%.%.%.%.%.%
   18e80:	25b825b8 25b825b8 25b825b8 25b825b8     .%.%.%.%.%.%.%.%
   18e90:	25b825b8 25b825b8 25b825b8 25982598     .%.%.%.%.%.%.%.%
   18ea0:	25b825b8 1db81db8 25b825b8 25b825b8     .%.%.....%.%.%.%
   18eb0:	25b825b8 25b825b8 25b825b8 25b825b8     .%.%.%.%.%.%.%.%
   18ec0:	25b825b8 25b825b8 25b825b8 25b825b8     .%.%.%.%.%.%.%.%
   18ed0:	25b825b8 25b825b8 25b825b8 25b825b8     .%.%.%.%.%.%.%.%
   18ee0:	25b825b8 25b825b8 25b825b8 25b825b8     .%.%.%.%.%.%.%.%
   18ef0:	25b825b8 25b825b8 25b825b8 25b825b8     .%.%.%.%.%.%.%.%
   18f00:	25b825b8 25b825b8 25b825b8 25b825b8     .%.%.%.%.%.%.%.%
   18f10:	25b825b8 25b825b8 1d981db8 155725b8     .%.%.%.%.....%W.
   18f20:	25b825b8 25b825b8 25b825b8 25b825b8     .%.%.%.%.%.%.%.%
   18f30:	25b825b8 25b825b8 25b825b8 25b825b8     .%.%.%.%.%.%.%.%
   18f40:	25b825b8 25b825b8 25b825b8 25b825b8     .%.%.%.%.%.%.%.%
   18f50:	25b825b8 25b825b8 25b825b8 25b825b8     .%.%.%.%.%.%.%.%
   18f60:	25b825b8 25b825b8 1db81db8 259825b8     .%.%.%.%.....%.%
   18f70:	25982598 4d973597 2a4c4c94 39ca39eb     .%.%.5.M.LL*.9.9
   18f80:	39ea39ca 39ea39ea 39ea39ea 39ca39ca     .9.9.9.9.9.9.9.9
   18f90:	39ea39ea 39ca39ca 39ca39ea 39ca39ca     .9.9.9.9.9.9.9.9
   18fa0:	39ea39ea 41cb39ca 00862128 4558128e     .9.9.9.A(!....XE
   18fb0:	25982d78 25b825b8 25b825b8 25b825b8     x-.%.%.%.%.%.%.%
   18fc0:	25b825b8 25b825b8 25b825b8 25b825b8     .%.%.%.%.%.%.%.%
   18fd0:	25b825b8 25b825b8 25b825b8 25b825b8     .%.%.%.%.%.%.%.%
   18fe0:	25b825b8 25b825b8 25b825b8 25b825b8     .%.%.%.%.%.%.%.%
   18ff0:	25b825b8 25b825b8 25b825b8 25b825b8     .%.%.%.%.%.%.%.%
   19000:	25b825b8 25b825b8 25982598 25b82598     .%.%.%.%.%.%.%.%
   19010:	25b825b8 25b82598 1db81db8 25b825b8     .%.%.%.%.....%.%
   19020:	25982598 25b825b8 25b825b8 25b825b8     .%.%.%.%.%.%.%.%
   19030:	25b825b8 25b825b8 25b81db8 25982598     .%.%.%.%...%.%.%
   19040:	25982598 25b82598 25b82598 25b82598     .%.%.%.%.%.%.%.%
   19050:	25b825b8 25982598 259825b8 1db81d98     .%.%.%.%.%.%....
   19060:	25b825b8 25b825b8 25b825b8 25b825b8     .%.%.%.%.%.%.%.%
   19070:	25b825b8 25b825b8 25b825b8 25b825b8     .%.%.%.%.%.%.%.%
   19080:	25b825b8 25b825b8 1db81db8 259825b8     .%.%.%.%.....%.%
   19090:	3d972d77 4c944d77 39eb2a0b 31ea39ea     w-.=wM.L.*.9.9.1
   190a0:	39ea39ea 39ea39ea 39ea39ea 39ea39ea     .9.9.9.9.9.9.9.9
   190b0:	39ca39ea 31ea39ea 54d52a8c 35774d77     .9.9.9.1.*.TwMw5
   190c0:	25982d78 25b82598 25b825b8 1db81db8     x-.%.%.%.%.%....
   190d0:	1db81db8 25b825b8 25b825b8 25b825b8     .....%.%.%.%.%.%
   190e0:	25b825b8 25b825b8 25b825b8 25b825b8     .%.%.%.%.%.%.%.%
   190f0:	25b825b8 25b825b8 25b825b8 25982598     .%.%.%.%.%.%.%.%
   19100:	25b825b8 25b81d98 25b82597 25b825b8     .%.%...%.%.%.%.%
   19110:	25b825b8 25b825b8 25b825b8 25982598     .%.%.%.%.%.%.%.%
   19120:	25b82598 1db81db8 25b825b8 25b825b8     .%.%.....%.%.%.%
   19130:	25b825b8 25b825b8 25b825b8 25b825b8     .%.%.%.%.%.%.%.%
   19140:	25b825b8 25b825b8 25b825b8 25b825b8     .%.%.%.%.%.%.%.%
   19150:	25b825b8 25b825b8 25b825b8 25b825b8     .%.%.%.%.%.%.%.%
   19160:	25b825b8 25b825b8 25b825b8 25b825b8     .%.%.%.%.%.%.%.%
   19170:	25b825b8 25b825b8 25b825b8 25b825b8     .%.%.%.%.%.%.%.%
   19180:	25b825b8 25b825b8 25b825b8 25b825b8     .%.%.%.%.%.%.%.%
   19190:	25b825b8 25b825b8 1d981db8 155725b8     .%.%.%.%.....%W.
   191a0:	25b825b8 25b825b8 25b825b8 25b825b8     .%.%.%.%.%.%.%.%
   191b0:	25b825b8 25b825b8 25b825b8 25b825b8     .%.%.%.%.%.%.%.%
   191c0:	25b825b8 25b825b8 25b825b8 25b825b8     .%.%.%.%.%.%.%.%
   191d0:	25b825b8 25b825b8 25b825b8 25b825b8     .%.%.%.%.%.%.%.%
   191e0:	25b82598 1db825b8 1db81db8 259825b8     .%.%.%.......%.%
   191f0:	35772577 128c3474 efff8556 ffbff7bf     w%w5t4..V.......
   19200:	ffdfffdf ffdfffdf ffdfffdf ffdfffdf     ................
   19210:	ffdfffdf ffdfffdf ffdfffdf ffdfffdf     ................
   19220:	ffdfffdf ffdfffbf 00246b2f 4d581a8d     ......../k$...XM
   19230:	25b82d77 25b825b8 1db81db8 25b825b8     w-.%.%.%.....%.%
   19240:	1db81db8 25b825b8 1db81db8 25b825b8     .....%.%.....%.%
   19250:	1db81db8 25b825b8 1db81db8 25b825b8     .....%.%.....%.%
   19260:	1db81db8 25b825b8 1db81db8 25b825b8     .....%.%.....%.%
   19270:	1db81db8 25b825b8 1db81db8 25b825b8     .....%.%.....%.%
   19280:	1db81db8 25982598 1db81db8 25b825b8     .....%.%.....%.%
   19290:	1db825b8 25b825b8 1db81db8 25b825b8     .%...%.%.....%.%
   192a0:	25b825b8 25b825b8 25b825b8 25b81db8     .%.%.%.%.%.%...%
   192b0:	25b825b8 25b82598 1d971d98 25972598     .%.%.%.%.....%.%
   192c0:	25972597 1d972597 1d972597 25982597     .%.%.%...%...%.%
   192d0:	25982598 25972598 25982598 25b825b8     .%.%.%.%.%.%.%.%
   192e0:	25982598 25b825b8 25982598 25b825b8     .%.%.%.%.%.%.%.%
   192f0:	25b825b8 25982598 25b825b8 25b825b8     .%.%.%.%.%.%.%.%
   19300:	25b825b8 25b81db8 1d981d98 25771d98     .%.%...%......w%
   19310:	23b03d36 a63a1a8c ffbff7ff ffdfffdf     6=.#..:.........
   19320:	ffdfffdf ffdfffdf ffdfffdf ffdfffdf     ................
   19330:	ffdfffdf f7bfffdf 7d15efff 34531a8c     ...........}..S4
   19340:	25983557 25b82597 25982598 1db825b8     W5.%.%.%.%.%.%..
   19350:	25b825b8 1db81db8 1db81db8 25b825b8     .%.%.........%.%
   19360:	1db81db8 25b825b8 25b825b8 25982598     .....%.%.%.%.%.%
   19370:	25b825b8 25b825b8 25b81db8 259725b8     .%.%.%.%...%.%.%
   19380:	1d972597 1d971d97 25972597 25981d98     .%.......%.%...%
   19390:	25971d97 25972597 25972597 25972597     ...%.%.%.%.%.%.%
   193a0:	25982598 1db81d98 25b81d98 259825b8     .%.%.......%.%.%
   193b0:	25982598 25b825b8 1db81d98 25b825b8     .%.%.%.%.....%.%
   193c0:	1db81db8 25b825b8 25b825b8 25b825b8     .....%.%.%.%.%.%
   193d0:	1db81db8 1db81db8 25b825b8 25982598     .........%.%.%.%
   193e0:	25b825b8 25b825b8 1db81db8 1db81db8     .%.%.%.%........
   193f0:	25b825b8 25b825b8 1db81db8 25b825b8     .%.%.%.%.....%.%
   19400:	25b825b8 25b825b8 25b825b8 25b825b8     .%.%.%.%.%.%.%.%
   19410:	25b825b8 25b825b8 1d981db8 155725b8     .%.%.%.%.....%W.
   19420:	25b825b8 25b825b8 25b825b8 25b825b8     .%.%.%.%.%.%.%.%
   19430:	25b825b8 25b825b8 25b825b8 25b825b8     .%.%.%.%.%.%.%.%
   19440:	25b825b8 25b825b8 25b825b8 25b825b8     .%.%.%.%.%.%.%.%
   19450:	25b825b8 25b825b8 25b825b8 25b825b8     .%.%.%.%.%.%.%.%
   19460:	25b81d98 1db81d97 1d981d97 2d982598     ...%.........%.-
   19470:	4d773578 00422b4e ffff8cf4 ffdeffbe     x5wMN+B.........
   19480:	ffdcffbc ffdcffbc ffbcffdc ffbcffbc     ................
   19490:	ffbcffbc ffbcffbc ffbcffbc ffdcffbc     ................
   194a0:	ffddffdd ffffffde 00246b0f 4d581a8d     .........k$...XM
   194b0:	25b72d77 25b825b8 1db825b8 25b825b8     w-.%.%.%.%...%.%
   194c0:	1db825b8 25b825b8 1db825b8 25b825b8     .%...%.%.%...%.%
   194d0:	1db825b8 25b825b8 1db825b8 25b825b8     .%...%.%.%...%.%
   194e0:	1db825b8 25b825b8 1db825b8 25b825b8     .%...%.%.%...%.%
   194f0:	1db825b8 25b825b8 1db825b8 25b825b8     .%...%.%.%...%.%
   19500:	1db825b8 25982598 1db82598 25b825b8     .%...%.%.%...%.%
   19510:	1db825b8 25b825b8 25b825b8 25b825b8     .%...%.%.%.%.%.%
   19520:	25b825b8 25b825b8 25b825b8 1db81db8     .%.%.%.%.%.%....
   19530:	259825b8 259825b8 35972d98 3d773d98     .%.%.%.%.-.5.=w=
   19540:	35773577 35973577 35973597 35773597     w5w5w5.5.5.5.5w5
   19550:	35983577 2d773578 25972597 25982598     w5.5x5w-.%.%.%.%
   19560:	25982598 25b825b8 25982598 25b825b8     .%.%.%.%.%.%.%.%
   19570:	25b825b8 25982598 25b825b8 25b825b8     .%.%.%.%.%.%.%.%
   19580:	25b825b8 1db81db8 25982598 3d982597     .%.%.....%.%.%.=
   19590:	00e53c53 adb70042 ffbeffff ffbdffdd     S<..B...........
   195a0:	ffbcffbc ffbcffbc ffdcffdc ffdcffdc     ................
   195b0:	ffbdffdc ffbeffde 8493ffff 01e90042     ............B...
   195c0:	35774536 25982d97 25982598 25b825b8     6Ew5.-.%.%.%.%.%
   195d0:	25b825b8 25982598 25b825b8 25b825b8     .%.%.%.%.%.%.%.%
   195e0:	1db81db8 25b825b8 25b825b8 25982598     .....%.%.%.%.%.%
   195f0:	25b825b8 25b825b8 25b725b8 25972598     .%.%.%.%.%.%.%.%
   19600:	2d982d97 35773597 35773577 35773578     .-.-.5w5w5w5x5w5
   19610:	35773577 35773577 35773577 35773577     w5w5w5w5w5w5w5w5
   19620:	2d983577 1d982598 1db81db8 259825b8     w5.-.%.......%.%
   19630:	259825b8 25b825b8 1db81db8 25b825b8     .%.%.%.%.....%.%
   19640:	1db825b8 25b825b8 25b825b8 25b825b8     .%...%.%.%.%.%.%
   19650:	1db825b8 25b81db8 25b825b8 25b825b8     .%.....%.%.%.%.%
   19660:	25b825b8 25b825b8 1db81db8 1db81db8     .%.%.%.%........
   19670:	25b825b8 25b825b8 1db81db8 25b825b8     .%.%.%.%.....%.%
   19680:	25b825b8 25b825b8 25b825b8 25b825b8     .%.%.%.%.%.%.%.%
   19690:	25b825b8 25b825b8 1d981db8 155725b8     .%.%.%.%.....%W.
   196a0:	25b825b8 25b825b8 25b825b8 25b825b8     .%.%.%.%.%.%.%.%
   196b0:	25b825b8 25b825b8 25b825b8 25b825b8     .%.%.%.%.%.%.%.%
   196c0:	25b825b8 25b825b8 25b825b8 25b825b8     .%.%.%.%.%.%.%.%
   196d0:	25b825b8 25b825b8 25b825b8 25b825b8     .%.%.%.%.%.%.%.%
   196e0:	25982598 25b825b8 259825b8 35572598     .%.%.%.%.%.%.%W5
   196f0:	4c743495 9d7695d8 ffffd6db e655ffbd     .4tL..v.......U.
   19700:	ed90dd91 ed90ed90 ed90ed90 ed90ed90     ................
   19710:	ed90ed90 ed90ed70 ed90ed90 ed91ed70     ....p.......p...
   19720:	e614e591 ffffff9c 0024630e 4d58128e     .........c$...XM
   19730:	25b72d77 25b82598 25b825b8 25b82598     w-.%.%.%.%.%.%.%
   19740:	25b825b8 25b82598 25b825b8 25b82598     .%.%.%.%.%.%.%.%
   19750:	25b825b8 25b82598 25b825b8 25b82598     .%.%.%.%.%.%.%.%
   19760:	25b825b8 25b82598 25b825b8 25b82598     .%.%.%.%.%.%.%.%
   19770:	25b825b8 25b82598 25b825b8 1d982598     .%.%.%.%.%.%.%..
   19780:	25b825b8 25982598 25982598 25b82598     .%.%.%.%.%.%.%.%
   19790:	25b825b8 259825b8 25b825b8 25982598     .%.%.%.%.%.%.%.%
   197a0:	25b82598 1d971d97 25982598 1d981db8     .%.%.....%.%....
   197b0:	25981db8 2d772598 34542c94 3c333c33     ...%.%w-.,T43<3<
   197c0:	3c333c33 3c333c33 3c333c33 3c533c33     3<3<3<3<3<3<3<S<
   197d0:	3c543c34 3d163474 2d773577 25982d97     4<T<t4.=w5w-.-.%
   197e0:	25b82598 25b825b8 25b825b8 25b825b8     .%.%.%.%.%.%.%.%
   197f0:	25b825b8 25b825b8 25b825b8 25b825b8     .%.%.%.%.%.%.%.%
   19800:	25b825b8 25b81db8 2d982598 3c943516     .%.%...%.%.-.5.<
   19810:	95976d16 e71ca576 f6f9ffde e591ddb2     .m..v...........
   19820:	ed90ed91 ed90ed90 ed90ed90 ed90ed90     ................
   19830:	e591ed90 ff5addd3 d6dbfffe 95b89d55     ......Z.....U...
   19840:	3cb45cf5 2d982d36 25982598 25982598     .\.<6-.-.%.%.%.%
   19850:	1db81db8 25982598 259825b8 25b82598     .....%.%.%.%.%.%
   19860:	25b825b8 259825b8 25982598 25982598     .%.%.%.%.%.%.%.%
   19870:	25982598 25b825b8 25972598 2d972597     .%.%.%.%.%.%.%.-
   19880:	34b53516 3c743c95 3c543c54 3c543c54     .5.4.<t<T<T<T<T<
   19890:	44744474 44744474 3c543c54 3c743c54     tDtDtDtDT<T<T<t<
   198a0:	34f63c95 25982d77 1db81db8 25b81db8     .<.4w-.%.......%
   198b0:	25b825b8 25b825b8 25b825b8 25b82598     .%.%.%.%.%.%.%.%
   198c0:	25b825b8 25982598 25b825b8 25b82598     .%.%.%.%.%.%.%.%
   198d0:	25b825b8 25b825b8 1db825b8 1db81db8     .%.%.%.%.%......
   198e0:	1db81db8 25b825b8 25b825b8 25b825b8     .....%.%.%.%.%.%
   198f0:	25b825b8 25b825b8 25b825b8 25b825b8     .%.%.%.%.%.%.%.%
   19900:	25b825b8 25b825b8 25b825b8 25b825b8     .%.%.%.%.%.%.%.%
   19910:	25b825b8 25b825b8 1d981db8 155725b8     .%.%.%.%.....%W.
   19920:	25b825b8 25b825b8 25b825b8 25b825b8     .%.%.%.%.%.%.%.%
   19930:	25b825b8 25b825b8 25b825b8 25b825b8     .%.%.%.%.%.%.%.%
   19940:	25b825b8 25b825b8 25b825b8 25b825b8     .%.%.%.%.%.%.%.%
   19950:	25b825b8 25b825b8 25b825b8 25b825b8     .%.%.%.%.%.%.%.%
   19960:	25981db8 25982598 25782578 3d162d77     ...%.%.%x%x%w-.=
   19970:	11e901a9 ffffe7bf ffddffde d550ff9b     ..............P.
   19980:	e489d48a e469e469 ec8ae469 ec8aec8a     ....i.i.i.......
   19990:	ec8aec8a e46aec8a e469ec8a e46ae46a     ......j...i.j.j.
   199a0:	d50fd46b ffffff9b 00246b0e 4558128e     k........k$...XE
   199b0:	25982d77 25b82598 25b825b8 25b82598     w-.%.%.%.%.%.%.%
   199c0:	25b825b8 25b82598 25b825b8 25b82598     .%.%.%.%.%.%.%.%
   199d0:	25b825b8 25b82598 25b825b8 25b82598     .%.%.%.%.%.%.%.%
   199e0:	25b825b8 25b82598 25b825b8 25b82598     .%.%.%.%.%.%.%.%
   199f0:	25b825b8 25b82598 25b825b8 25b82598     .%.%.%.%.%.%.%.%
   19a00:	25b825b8 25982598 25982598 25b82598     .%.%.%.%.%.%.%.%
   19a10:	25b825b8 25b825b8 25b825b8 25982598     .%.%.%.%.%.%.%.%
   19a20:	25b82598 25b81db8 25982598 1db81db8     .%.%...%.%.%....
   19a30:	259725b8 45572d57 0107020b 01070107     .%.%W-WE........
   19a40:	01070107 01070107 01070107 01070107     ................
   19a50:	01270107 01a90148 3d772412 25972d77     ..'.H....$w=w-.%
   19a60:	1d972598 25b825b8 25b825b8 25b825b8     .%...%.%.%.%.%.%
   19a70:	25b825b8 25b825b8 25b825b8 25b825b8     .%.%.%.%.%.%.%.%
   19a80:	25b825b8 259725b8 35782578 01063453     .%.%.%.%x%x5S4..
   19a90:	f7ff8515 fffeffff f696ffdc dc8bcc6b     ............k...
   19aa0:	e48ae48a e469e469 e469e489 e489e489     ....i.i...i.....
   19ab0:	d46be48a ff18cccd fffeffdc f7ffffff     ..k.............
   19ac0:	00e553b0 35982432 25982577 25982598     .S..2$.5w%.%.%.%
   19ad0:	1db81db8 25982598 259825b8 25b82598     .....%.%.%.%.%.%
   19ae0:	25b825b8 25b825b8 25b825b8 25b825b8     .%.%.%.%.%.%.%.%
   19af0:	25b825b8 25b81d98 25972598 35772577     .%.%...%.%.%w%w5
   19b00:	01482c12 01270148 01270127 01270127     .,H.H.'.'.'.'.'.
   19b10:	01070127 01070107 01280108 01280128     '.........(.(.(.
   19b20:	12ee0128 25773d78 1db825b8 1db81d98     (...x=w%.%......
   19b30:	25b825b8 25b825b8 1d9825b8 25b82598     .%.%.%.%.%...%.%
   19b40:	25b825b8 25b82598 25b825b8 25b82598     .%.%.%.%.%.%.%.%
   19b50:	25b825b8 25b82598 1db825b8 1d981db8     .%.%.%.%.%......
   19b60:	1db81db8 25b825b8 25b825b8 25b825b8     .....%.%.%.%.%.%
   19b70:	25b825b8 25b825b8 25b825b8 25b825b8     .%.%.%.%.%.%.%.%
   19b80:	25b825b8 25b825b8 25b825b8 25b825b8     .%.%.%.%.%.%.%.%
   19b90:	25b825b8 25b825b8 1d981db8 155725b8     .%.%.%.%.....%W.
   19ba0:	25b825b8 25b825b8 25b825b8 25b825b8     .%.%.%.%.%.%.%.%
   19bb0:	25b825b8 25b825b8 25b825b8 25b825b8     .%.%.%.%.%.%.%.%
   19bc0:	25b825b8 25b825b8 25b825b8 25b825b8     .%.%.%.%.%.%.%.%
   19bd0:	25b825b8 25b825b8 25b825b8 25b825b8     .%.%.%.%.%.%.%.%
   19be0:	25981db8 25982598 2d772d98 44f53d97     ...%.%.%.-w-.=.D
   19bf0:	21870147 ffdee77e ff9affbc e54dff57     G..!~.......W.M.
   19c00:	f489eca9 f488f489 fc89f488 fc89fc89     ................
   19c10:	fc88fc89 fc89fc88 fc88fc88 f489fc68     ............h...
   19c20:	dd2ee48a ffffff7a 00446b2f 4d581a8e     ....z.../kD...XM
   19c30:	25972d57 1d982598 1db81d98 25b825b8     W-.%.%.......%.%
   19c40:	1db825b8 25b825b8 1db825b8 25b825b8     .%...%.%.%...%.%
   19c50:	1db825b8 25b825b8 1db825b8 25b825b8     .%...%.%.%...%.%
   19c60:	1db825b8 25b825b8 1db825b8 25b825b8     .%...%.%.%...%.%
   19c70:	1db825b8 25b825b8 1db825b8 25b825b8     .%...%.%.%...%.%
   19c80:	1db81d98 25b825b8 1db82598 1d9725b8     .....%.%.%...%..
   19c90:	1db81d97 1db81db8 1db81db8 1db81db8     ................
   19ca0:	1db81db8 1db81db8 1d9825b8 25981d98     .........%.....%
   19cb0:	35972597 55374d78 00c609a9 10a510e6     .%.5xM7U........
   19cc0:	10c610c6 10c610a5 10c610c6 10c610c6     ................
   19cd0:	10c610c6 00a510e6 4d3622ee 25972d56     ........."6MV-.%
   19ce0:	25b82597 1db81db8 1d9825b8 25b825b8     .%.%.....%...%.%
   19cf0:	1db81db8 25b825b8 25b825b8 25b825b8     .....%.%.%.%.%.%
   19d00:	25b825b8 25972597 45772d77 00643bf2     .%.%.%.%w-wE.;d.
   19d10:	ffff8cd4 ff9cff9d fe94ff9a ec89dc8a     ................
   19d20:	f489f489 fc88f488 fc88fc88 f488fc88     ................
   19d30:	ec8af489 fef5dcec ffbcff9a fffff79d     ................
   19d40:	0063636f 459733d1 25983577 1db825b8     occ..3.Ew5.%.%..
   19d50:	1d981db8 25982598 25b825b8 25b825b8     .....%.%.%.%.%.%
   19d60:	1db825b8 1db81db8 1db81d98 1d981db8     .%..............
   19d70:	1d981d98 1db81d98 2d972598 4d773577     .........%.-w5wM
   19d80:	00c533b0 08c608e6 10c510c5 10a610a6     .3..............
   19d90:	10c510c5 10c610c5 10c610a6 08e608c6     ................
   19da0:	09ca00a6 35774d16 25982d97 25b81d98     .....Mw5.-.%...%
   19db0:	25981db8 25982598 25b825b8 25b825b8     ...%.%.%.%.%.%.%
   19dc0:	1db825b8 25b825b8 1db825b8 25b825b8     .%...%.%.%...%.%
   19dd0:	1db825b8 25b825b8 25b825b8 25b825b8     .%...%.%.%.%.%.%
   19de0:	25b825b8 25b825b8 25b825b8 25b825b8     .%.%.%.%.%.%.%.%
   19df0:	25b825b8 25b825b8 25b825b8 25b825b8     .%.%.%.%.%.%.%.%
   19e00:	25b825b8 25b825b8 25b825b8 25b825b8     .%.%.%.%.%.%.%.%
   19e10:	25b825b8 25b825b8 1d981db8 155725b8     .%.%.%.%.....%W.
   19e20:	25b825b8 25b825b8 25b825b8 25b825b8     .%.%.%.%.%.%.%.%
   19e30:	25b825b8 25b825b8 25b825b8 25b825b8     .%.%.%.%.%.%.%.%
   19e40:	25b825b8 25b825b8 25b825b8 25b825b8     .%.%.%.%.%.%.%.%
   19e50:	25b825b8 25b825b8 25b825b8 25b825b8     .%.%.%.%.%.%.%.%
   19e60:	25981db8 2d782598 34d53558 6d563473     ...%.%x-X5.4s4Vm
   19e70:	d6bbbe9b ffddf79d cd2ee654 eccae54d     ........T...M...
   19e80:	fc67f468 fc67fc68 fc68fc67 fc67fc68     h.g.h.g.g.h.h.g.
   19e90:	fc68fc67 fc67fc67 fc67fc67 fc68fc67     g.h.g.g.g.g.g.h.
   19ea0:	e50dec69 ffffff7a 00246b2f 4d581a8e     i...z.../k$...XM
   19eb0:	25973557 25982598 25982598 25982598     W5.%.%.%.%.%.%.%
   19ec0:	25982598 25982598 25982598 25982598     .%.%.%.%.%.%.%.%
   19ed0:	25982598 25982598 25982598 25982598     .%.%.%.%.%.%.%.%
   19ee0:	25982598 25982598 25982598 25982598     .%.%.%.%.%.%.%.%
   19ef0:	25982598 25982598 25982598 25982598     .%.%.%.%.%.%.%.%
   19f00:	25982598 25982598 25982598 25972598     .%.%.%.%.%.%.%.%
   19f10:	25972597 25972597 25972597 25972597     .%.%.%.%.%.%.%.%
   19f20:	25972597 25982597 25982598 25772598     .%.%.%.%.%.%.%w%
   19f30:	24933598 4bf11b4f ce9cb65b d67bd67b     .5.$O..K[...{.{.
   19f40:	d67bd65b d65bd65b d65bd65b de7bde7b     [.{.[.[.[.[.{.{.
   19f50:	d67bde5a ce9bd67b 8e9bb6fc 2d764d97     Z.{.{........Mv-
   19f60:	25972597 1db825b8 25b825b8 25b825b8     .%.%.%...%.%.%.%
   19f70:	1db81db8 25b825b8 25b825b8 25b825b8     .....%.%.%.%.%.%
   19f80:	259825b8 2d572598 4c9434b5 be7b9e3b     .%.%.%W-.4.L;.{.
   19f90:	ffdee73d de14ffbc e50cd52f f468ec89     =......./.....h.
   19fa0:	fc68fc68 fc67fc67 fc67fc67 fc67fc67     h.h.g.g.g.g.g.g.
   19fb0:	f488fc68 e52ceca9 e655d54e ffdeffdd     h.....,.N.U.....
   19fc0:	c69bdefc 3c53963a 2d362cb4 25982d98     ....:.S<.,6-.-.%
   19fd0:	25982598 25982598 25982598 25982598     .%.%.%.%.%.%.%.%
   19fe0:	25982598 25982598 25982598 1d982598     .%.%.%.%.%.%.%..
   19ff0:	25982598 25972598 35572d98 4c9434b4     .%.%.%.%.-W5.4.L
   1a000:	c6bc9e1a d67ace9b d67bd67b d67bd67b     ......z.{.{.{.{.
   1a010:	d67bd67b d67bd67b d65bd65a d67bd67b     {.{.{.{.Z.[.{.{.
   1a020:	b67bce5b 34945cd5 2d982d36 25982598     [.{..\.46-.-.%.%
   1a030:	1d9825b8 25982598 25982598 25982598     .%...%.%.%.%.%.%
   1a040:	25982598 25982598 25982598 25982598     .%.%.%.%.%.%.%.%
   1a050:	25982598 25982598 25982598 25982598     .%.%.%.%.%.%.%.%
   1a060:	25982598 25b825b8 25b825b8 25b825b8     .%.%.%.%.%.%.%.%
   1a070:	25b825b8 25b825b8 25b825b8 25b825b8     .%.%.%.%.%.%.%.%
   1a080:	25b825b8 25b825b8 25b825b8 25b825b8     .%.%.%.%.%.%.%.%
   1a090:	25b825b8 25b825b8 1d981db8 155725b8     .%.%.%.%.....%W.
   1a0a0:	25b825b8 25b825b8 25b825b8 25b825b8     .%.%.%.%.%.%.%.%
   1a0b0:	25b825b8 25b825b8 25b825b8 25b825b8     .%.%.%.%.%.%.%.%
   1a0c0:	25b825b8 25b825b8 25b825b8 25b825b8     .%.%.%.%.%.%.%.%
   1a0d0:	25b825b8 25b825b8 25b825b8 25b825b8     .%.%.%.%.%.%.%.%
   1a0e0:	25b825b8 2d772598 01eb3cf6 849400c5     .%.%.%w-.<......
   1a0f0:	ffffffff ffdbffdd d469edd1 f488ec89     ..........i.....
   1a100:	fc67f467 fc67fc67 fc87fc67 fc67fc67     g.g.g.g.g...g.g.
   1a110:	fc67fc67 fc68fc68 fc67fc68 fc68fc68     g.g.h.h.h.g.h.h.
   1a120:	e50eec69 ffffff7a 0024730f 55381a8e     i...z....s$...8U
   1a130:	2d783d57 2d782d78 2d782d78 2d782d78     W=x-x-x-x-x-x-x-
   1a140:	2d782d78 2d782d78 2d782d78 2d782d78     x-x-x-x-x-x-x-x-
   1a150:	2d782d78 2d782d78 2d782d78 2d782d78     x-x-x-x-x-x-x-x-
   1a160:	2d782d78 2d782d78 2d782d78 2d782d78     x-x-x-x-x-x-x-x-
   1a170:	2d782d78 2d772d78 2d782d78 2d782d78     x-x-x-w-x-x-x-x-
   1a180:	2d782d78 2d782d78 2d782d78 2d972d77     x-x-x-x-x-x-w-.-
   1a190:	35772d97 2d772d77 2d772d77 2d772d77     .-w5w-w-w-w-w-w-
   1a1a0:	2d772d77 35772d77 2d772d77 35772d77     w-w-w-w5w-w-w-w5
   1a1b0:	132e4577 322a0063 ffffffff fffeffff     wE..c.*2........
   1a1c0:	fffefffe fffeffde fffefffe fffefffe     ................
   1a1d0:	fffeffde ffffffff d7bff7ff 2c93234e     ............N#.,
   1a1e0:	25972d56 25982597 25b825b8 25b825b8     V-.%.%.%.%.%.%.%
   1a1f0:	25b825b8 25b825b8 25b825b8 25b825b8     .%.%.%.%.%.%.%.%
   1a200:	259825b8 24743598 21ea0148 ffffdf7f     .%.%.5t$H..!....
   1a210:	ffdcfffe dd6fff9a ec89d469 fc67f488     ......o.i.....g.
   1a220:	fc67fc67 fc67fc67 fc67fc67 fc67fc67     g.g.g.g.g.g.g.g.
   1a230:	fc68fc67 eca9f488 edd1d48a fffdffdb     g.h.............
   1a240:	ffffffde 0126cedd 4516022b 2d783d77     ......&.+..Ew=x-
   1a250:	2d782d78 2d782d78 2d772d78 2d782d77     x-x-x-x-x-w-w-x-
   1a260:	2d782d78 2d782d78 2d782d78 2d782d78     x-x-x-x-x-x-x-x-
   1a270:	2d982d77 2d572d98 1bb13d78 092600c5     w-.-.-W-x=....&.
   1a280:	ffffd73d fffeffff fffefffe fffefffe     =...............
   1a290:	fffefffe fffefffe ffdeffde ffffffde     ................
   1a2a0:	f7ffffff 00c5430d 35983494 25982d77     .....C...4.5w-.%
   1a2b0:	25b825b8 25772598 2d782d78 2d782d78     .%.%.%w%x-x-x-x-
   1a2c0:	2d782d78 2d782d78 2d782d78 2d782d78     x-x-x-x-x-x-x-x-
   1a2d0:	2d782d78 2d782d78 2d982d78 25772d78     x-x-x-x-x-.-x-w%
   1a2e0:	25982598 25b82598 1db81db8 25b825b8     .%.%.%.%.....%.%
   1a2f0:	25b825b8 25b825b8 25b825b8 25b825b8     .%.%.%.%.%.%.%.%
   1a300:	25b825b8 25b825b8 25b825b8 25b825b8     .%.%.%.%.%.%.%.%
   1a310:	25b825b8 25b825b8 1d981db8 155725b8     .%.%.%.%.....%W.
   1a320:	25b825b8 25b825b8 25b825b8 25b825b8     .%.%.%.%.%.%.%.%
   1a330:	25b825b8 25b825b8 25b825b8 25b825b8     .%.%.%.%.%.%.%.%
   1a340:	25b825b8 25b825b8 25b825b8 25b825b8     .%.%.%.%.%.%.%.%
   1a350:	25b825b8 25b825b8 25b825b8 25b825b8     .%.%.%.%.%.%.%.%
   1a360:	25b825b8 2d7725b7 01aa4cf6 8c330044     .%.%.%w-.L..D.3.
   1a370:	f77bffdf f653ee96 ec89f56d fc67fc88     ..{...S.m.....g.
   1a380:	fc67fc87 fc67fc67 fc67fc67 fc67fc67     ..g.g.g.g.g.g.g.
   1a390:	fc67fc67 fc67fc67 fc67fc68 fc68fc68     g.g.g.g.h.g.h.h.
   1a3a0:	e50eec69 ffffff9b 0824730f 5cd6222d     i........s$.-".\
   1a3b0:	44f74cf6 44f644f6 44f744f6 44f744f7     .L.D.D.D.D.D.D.D
   1a3c0:	44f744f7 44f744f7 44f744f7 44f744f7     .D.D.D.D.D.D.D.D
   1a3d0:	44f744f7 44f744f7 451644f7 45174517     .D.D.D.D.D.E.E.E
   1a3e0:	45174517 45174517 45174517 45174517     .E.E.E.E.E.E.E.E
   1a3f0:	45174517 4d784537 45174537 451744f7     .E.E7ExM7E.E.D.E
   1a400:	45174517 45174517 45174517 44f64516     .E.E.E.E.E.E.E.D
   1a410:	44f63cd5 44f544f5 44f544f5 44f544f5     .<.D.D.D.D.D.D.D
   1a420:	44f544f5 44f644f6 3cf644f6 44d544f6     .D.D.D.D.D.<.D.D
   1a430:	545354f5 94b35b90 ffbdf7be e655eeb8     .TST.[........U.
   1a440:	ee55ee55 ee55ee55 ee54ee54 ee55ee55     U.U.U.U.T.T.U.U.
   1a450:	ee55ee54 ff5be676 e79effde 6d776451     T.U.v.[.....Qdwm
   1a460:	35575597 25982d77 25b82598 25b825b8     .UW5w-.%.%.%.%.%
   1a470:	25b825b8 25b825b8 25b825b8 25b825b8     .%.%.%.%.%.%.%.%
   1a480:	259825b8 34543598 214800a6 ffdee73e     .%.%.5T4..H!>...
   1a490:	ee75eef9 ed0cfe53 f487ec88 fc67fc87     ..u.S.........g.
   1a4a0:	fc67fc67 fc67fc88 fc67fc67 fc67fc67     g.g...g.g.g.g.g.
   1a4b0:	fc67fc67 f488fc87 f54dec89 e675fe73     g.g.......M.s.u.
   1a4c0:	fffff73a 08a5ce7b 54950989 45174cf6     :...{......T.L.E
   1a4d0:	451744f7 3d173cf6 4d784537 45174557     .D.E.<.=7ExMWE.E
   1a4e0:	45164516 44f744f7 3cf644f7 45374516     .E.E.D.D.D.<.E7E
   1a4f0:	3d174558 4d573d16 5cb45537 73b05b90     XE.=.=WM7U.\.[.s
   1a500:	ffdde73d e656f71a ee54ee55 ee55ee55     =.....V.U.T.U.U.
   1a510:	ee55ee55 ee55ee55 ee55ee55 f6f9e656     U.U.U.U.U.U.V...
   1a520:	f7dfffdd 53909514 4d575cf6 2d773537     .......S.\WM75w-
   1a530:	25972597 45783578 45173d37 45174517     .%.%x5xE7=.E.E.E
   1a540:	3cf63cf6 44f644f6 451744f7 451744f7     .<.<.D.D.D.E.D.E
   1a550:	44f644f6 44f744f6 3d174517 45784537     .D.D.D.D.E.=7ExE
   1a560:	2d783d57 25b82598 1db81db8 25b825b8     W=x-.%.%.....%.%
   1a570:	25b825b8 25b825b8 25b825b8 25b825b8     .%.%.%.%.%.%.%.%
   1a580:	25b825b8 25b825b8 25b825b8 25b825b8     .%.%.%.%.%.%.%.%
   1a590:	25b825b8 25b825b8 1d981db8 155725b8     .%.%.%.%.....%W.
   1a5a0:	25b825b8 25b825b8 25b825b8 25b825b8     .%.%.%.%.%.%.%.%
   1a5b0:	25b825b8 25b825b8 25b825b8 25982598     .%.%.%.%.%.%.%.%
   1a5c0:	25b825b8 25b825b8 25b825b8 25b825b8     .%.%.%.%.%.%.%.%
   1a5d0:	25b825b8 25b825b8 25b825b8 25b825b8     .%.%.%.%.%.%.%.%
   1a5e0:	25982598 357725b7 01a94cf6 8c330044     .%.%.%w5.L..D.3.
   1a5f0:	ff39ffff dc6accee fc88ec89 fc67fc68     ..9...j.....h.g.
   1a600:	fc87fc67 fc47fc67 fc67fc67 fc48fc68     g...g.G.g.g.h.H.
   1a610:	fc67fc68 fc68fc67 fc68fc68 fc68fc68     h.g.g.h.h.h.h.h.
   1a620:	ed0ef469 ffffff9b 1025730f 112818e8     i........s%...(.
   1a630:	09490949 01490949 01490149 09490149     I.I.I.I.I.I.I.I.
   1a640:	01490949 01490149 01490149 01490149     I.I.I.I.I.I.I.I.
   1a650:	01490949 01490949 01480149 01690169     I.I.I.I.I.H.i.i.
   1a660:	01490149 01490949 09490949 09490949     I.I.I.I.I.I.I.I.
   1a670:	01490949 32ce11ca 0149098a 01480148     I.I....2..I.H.H.
   1a680:	01480128 01480148 01280148 01280128     (.H.H.H.H.(.(.(.
   1a690:	01280128 01280128 01280128 01280128     (.(.(.(.(.(.(.(.
   1a6a0:	01280128 01280148 09490129 01280949     (.(.H.(.).I.I.(.
   1a6b0:	c6fd328c ffffffff ffdcffdd cc6bd570     .2..........p.k.
   1a6c0:	dc6adc8b dc8adc8a dc6adc6a dc8adc6a     ..j.....j.j.j...
   1a6d0:	d48bdc8a feb6c48c fffefffd e7fff7ff     ................
   1a6e0:	3c948e3b 2d983516 25b82598 1db81db8     ;..<.5.-.%.%....
   1a6f0:	25982598 25982598 25b825b8 25b825b8     .%.%.%.%.%.%.%.%
   1a700:	259825b8 34333598 294800a6 fffee73e     .%.%.534..H)>...
   1a710:	cc8bddf3 ec89e48a fc67fc88 fc67fc67     ..........g.g.g.
   1a720:	fc67fc87 fc68fc68 fc67fc88 fc68fc68     ..g.h.h...g.h.h.
   1a730:	fc67fc67 fc87fc67 ec89f488 c46be4aa     g.g.g.........k.
   1a740:	fffeee76 1085d65a 110810c6 01490928     v...Z.......(.I.
   1a750:	09490149 01690149 2ace0169 0149120c     I.I.I.i.i..*..I.
   1a760:	01490969 09490149 09490949 11eb0148     i.I.I.I.I.I.H...
   1a770:	018a32cf 2a8d0169 bedc2a8c fffff7ff     .2..i..*.*......
   1a780:	ffdcffde c46ce613 dc8adc8b dc8adc6a     ......l.....j...
   1a790:	dc8adc8a dc6adc6a dc8bdc8b e614c44b     ....j.j.....K...
   1a7a0:	ffdefffd f7ffffff 1a8dae5b 3d37130f     ........[.....7=
   1a7b0:	35782d57 230f2c54 098a09eb 098a098a     W-x5T,.#........
   1a7c0:	096a098a 096a096a 096a096a 096a096a     ..j.j.j.j.j.j.j.
   1a7d0:	096a096a 096a096a 0169098a 2b0f1a4c     j.j.j.j...i.L..+
   1a7e0:	34750a8d 1d982d78 1db81d98 25b825b8     ..u4x-.......%.%
   1a7f0:	25b825b8 25b825b8 25b825b8 25b825b8     .%.%.%.%.%.%.%.%
   1a800:	25b825b8 25b825b8 25b825b8 25b825b8     .%.%.%.%.%.%.%.%
   1a810:	25b825b8 25b825b8 1d981db8 155725b8     .%.%.%.%.....%W.
   1a820:	25b825b8 25b825b8 25b825b8 25b825b8     .%.%.%.%.%.%.%.%
   1a830:	25b825b8 25b825b8 25b825b8 25982598     .%.%.%.%.%.%.%.%
   1a840:	25b825b8 25b825b8 25b825b8 25b825b8     .%.%.%.%.%.%.%.%
   1a850:	25b825b8 25b825b8 25b825b8 25b825b8     .%.%.%.%.%.%.%.%
   1a860:	25982598 357725b7 09a94cf6 94320024     .%.%.%w5.L..$.2.
   1a870:	ff19ffff ec89dced fc67f488 fc67fc67     ..........g.g.g.
   1a880:	fc87fc67 fc47fc47 fc27fc47 fc07fc07     g...G.G.G.'.....
   1a890:	fc27fc27 fc27fc27 fc28fc28 fc48fc28     '.'.'.'.(.(.(.H.
   1a8a0:	eceef429 ffffff7a 1025730f 20c720c7     )...z....s%.. . 
   1a8b0:	18e718e7 18e718e7 18e718e7 18e718e7     ................
   1a8c0:	18e718e7 18e718c7 18e718e7 18e718e7     ................
   1a8d0:	18e718e7 18e718e7 18e718e7 18e718e6     ................
   1a8e0:	18e718e7 18e718e7 18e718e7 18e718e7     ................
   1a8f0:	18e718e7 10c618e7 18e718e7 18e618e6     ................
   1a900:	18e718e7 18e618e7 18e718e7 18e718e7     ................
   1a910:	18e718e7 18e718e6 18e718e7 18e618e7     ................
   1a920:	18e618e6 18c718e7 188710a7 08651887     ..............e.
   1a930:	e77e2148 ffbdffdf ff38ff7a e48aed4e     H!~.....z.8.N...
   1a940:	f488f489 f489fc89 fc89fc89 fc89fc89     ................
   1a950:	f4a9f489 fe94e4ab ff9bff99 ffffffbd     ................
   1a960:	00e684d5 35981370 1db82577 1db81db8     ....p..5w%......
   1a970:	25982598 25982598 25b825b8 25b825b8     .%.%.%.%.%.%.%.%
   1a980:	259725b8 34133d98 294800a6 ffddef5e     .%.%.=.4..H)^...
   1a990:	dcaaedf2 fc68f4a9 fc67fc68 fc67fc67     ......h.h.g.g.g.
   1a9a0:	fc67fc67 fc48fc68 fc47fc48 fc68fc68     g.g.h.H.H.G.h.h.
   1a9b0:	fc67fc67 fc67fc67 f488fc68 dc8af4a9     g.g.g.g.h.......
   1a9c0:	fffef675 20c5d67a 18e720e6 18e718e7     u...z.. . ......
   1a9d0:	18e718e7 10e718e7 10e71107 190710e7     ................
   1a9e0:	18e718e7 18e718e7 18e718e7 10e618e7     ................
   1a9f0:	110710c6 10e61107 be1908a4 ffbdffff     ................
   1aa00:	ffbaffdc dc8af5f1 f489f4aa fc89fc89     ................
   1aa10:	f489f489 fca9fc89 f4aaf489 fe12dc6a     ............j...
   1aa20:	ffbcffba ffffffbd 0085be19 4c950148     ............H..L
   1aa30:	4d774557 0064230f 00240085 00240024     WEwM.#d...$.$.$.
   1aa40:	00240024 00240024 00240024 00240024     $.$.$.$.$.$.$.$.
   1aa50:	00240044 00240024 00440024 00a60044     D.$.$.$.$.D.D...
   1aa60:	1b1000a7 1d773598 1db81d98 25b825b8     .....5w......%.%
   1aa70:	25b825b8 25b825b8 25b825b8 25b825b8     .%.%.%.%.%.%.%.%
   1aa80:	25b825b8 25b825b8 25b825b8 25b825b8     .%.%.%.%.%.%.%.%
   1aa90:	25b825b8 25b825b8 1d981db8 155725b8     .%.%.%.%.....%W.
   1aaa0:	25b825b8 25b825b8 25b825b8 25b825b8     .%.%.%.%.%.%.%.%
   1aab0:	25982598 25b825b8 25b825b8 25b825b8     .%.%.%.%.%.%.%.%
   1aac0:	25b825b8 25b825b8 25b825b8 25b825b8     .%.%.%.%.%.%.%.%
   1aad0:	25b825b8 25b825b8 25b825b8 25b825b8     .%.%.%.%.%.%.%.%
   1aae0:	259825b8 357725b7 09a94cf6 94320024     .%.%.%w5.L..$.2.
   1aaf0:	ff39ffff ec89e4ed fc67f488 fc67fc67     ..9.......g.g.g.
   1ab00:	fc67fc67 fc68fc67 ca61eb85 da62d262     g.g.g.h...a.b.b.
   1ab10:	d281da81 da62da61 da62da62 d283da62     ....a.b.b.b.b...
   1ab20:	c368c283 ffffff5a 10246b0f bdb920c6     ..h.Z....k$.. ..
   1ab30:	defde71e e6fddefd e6fde6fd e6fde6fd     ................
   1ab40:	e71de6fd e6fde6fd e6fde6fd e6fde6fd     ................
   1ab50:	e71de71d defde71d defddefd e71ddefd     ................
   1ab60:	e71de71d e6fde6fd e6fde6fd e6fde6fd     ................
   1ab70:	e71de6fd e71ddefd e71ddefd e71de6fd     ................
   1ab80:	e71de71d e71de71d e6fde6fd e6fde6fd     ................
   1ab90:	e71de6fd df1ddefd defde71d e71de71d     ................
   1aba0:	defddefd 9cb5e73e 28a81045 186620a7     ....>...E..(. f.
   1abb0:	ef5d3989 f6f8fffe e50dcd0f f489ecaa     .9].............
   1abc0:	fc68f488 fc88fc88 fc88fc88 fc68fc88     ..h...........h.
   1abd0:	f488fc68 eccbec89 d550dcec ffffff5a     h.........P.Z...
   1abe0:	00648c94 3d98132f 1d982577 1db81db8     ..d./..=w%......
   1abf0:	25b825b8 25b825b8 25b81db8 259825b8     .%.%.%.%...%.%.%
   1ac00:	259725b8 34333d98 292800a6 ffddef3e     .%.%.=34..()>...
   1ac10:	dc8aedf2 fc68f489 fc68fc68 fc67fc67     ......h.h.h.g.g.
   1ac20:	fc67fc67 d2c2fc28 dae3ca81 fc67fc47     g.g.(.......G.g.
   1ac30:	fc87fc67 fc67fc67 fc68fc67 dc8af488     g...g.g.g.h.....
   1ac40:	fffdf675 defcff9d e6fde6fd e71de6fd     u...............
   1ac50:	e71de71d df1de71d df1ddefd defddf1d     ................
   1ac60:	e6fddefd e6fde6fd e6fde6fd defde71d     ................
   1ac70:	defde71d e71ddefd f79ededc f73afffe     ..............:.
   1ac80:	f5f1ddd2 ec89ed0c fc88fc89 fc88fc88     ................
   1ac90:	fc88fc88 fc88fc88 fc88fc68 ed0cec89     ........h.......
   1aca0:	e5d2f5d0 fffff71a 10c6c619 435108c7     ..............QC
   1acb0:	54d55cf7 9d778536 94b4a556 9cb49cb4     .\.T6.w.V.......
   1acc0:	94b49cb4 9cb49cb4 9cb49cb4 9cb49cd4     ................
   1acd0:	9cb49cb4 94b49cb4 94b494b4 31aa94b5     ...............1
   1ace0:	22cf0086 25983d98 1db825b8 25b825b8     ...".=.%.%...%.%
   1acf0:	25b825b8 25b825b8 25b825b8 25b825b8     .%.%.%.%.%.%.%.%
   1ad00:	25b825b8 25b825b8 25b825b8 25b825b8     .%.%.%.%.%.%.%.%
   1ad10:	25b825b8 25b825b8 1d981db8 155725b8     .%.%.%.%.....%W.
   1ad20:	25b825b8 25b825b8 25b825b8 25b825b8     .%.%.%.%.%.%.%.%
   1ad30:	25982598 25b825b8 25b825b8 25b825b8     .%.%.%.%.%.%.%.%
   1ad40:	25b825b8 25b825b8 25b825b8 25b825b8     .%.%.%.%.%.%.%.%
   1ad50:	25b825b8 25b825b8 25b825b8 25b825b8     .%.%.%.%.%.%.%.%
   1ad60:	25b825b8 35772597 09a94cf6 94320024     .%.%.%w5.L..$.2.
   1ad70:	ff39ffff ec89dcec fc67fc68 fc67fc67     ..9.....h.g.g.g.
   1ad80:	fc67fc67 fc88fc47 b221d344 c202c222     g.g.G...D.!."...
   1ad90:	ba21ba21 ba02ba02 ba02ba02 ba23ba02     !.!...........#.
   1ada0:	ab08aa03 ffffff5a 080362cd de9b1864     ....Z....b..d...
   1adb0:	ffffffff fffeffff ffdeffde ffdeffde     ................
   1adc0:	ffdeffde ffdeffde fffefffe ffdeffde     ................
   1add0:	fffeffde fffffffe ffffffff fffeffff     ................
   1ade0:	fffefffe ffdeffde ffdeffde ffdeffde     ................
   1adf0:	ffdeffde ffdefffe fffefffe fffefffe     ................
   1ae00:	fffefffe ffdefffe fffefffe fffefffe     ................
   1ae10:	fffefffe fffefffe fffefffe ffdefffe     ................
   1ae20:	ffffffff b557ffff 18660803 10041846     ......W...f.F...
   1ae30:	ef3d2906 f6b7fffe e489d4ab f488f488     .)=.............
   1ae40:	fc67fc67 fc67fc68 fc67fc67 fc67fc67     g.g.h.g.g.g.g.g.
   1ae50:	fc67fc67 ec89f488 d4cce489 ffffff39     g.g.........9...
   1ae60:	00648c32 3d774494 25b82d97 1db81d98     2.d..Dw=.-.%....
   1ae70:	1db81db8 25b825b8 25b825b8 259825b8     .....%.%.%.%.%.%
   1ae80:	259725b8 34333d98 294800a6 ffddef5d     .%.%.=34..H)]...
   1ae90:	dc89edf1 fc68f489 fc68fc68 fc67fc67     ......h.h.h.g.g.
   1aea0:	fc68fc67 ba41fc28 c282b200 fc67fc47     g.h.(.A.....G.g.
   1aeb0:	fc67fc67 fc67fc67 fc67fc67 e48afc88     g.g.g.g.g.g.....
   1aec0:	ffdcf675 fffeffdd ffdefffe ffdeffde     u...............
   1aed0:	fffeffde fffefffe ffffffff ffffffff     ................
   1aee0:	ffffffff ffdefffe fffefffe ffdeffde     ................
   1aef0:	fffefffe ffffffff ffffffff eeb7ffde     ................
   1af00:	dc8ac48c f488ec89 fc67fc88 fc67fc67     ..........g.g.g.
   1af10:	fc67fc67 fc67fc67 fc87fc67 ec89f488     g.g.g.g.g.......
   1af20:	cc8bdc8a fffeee96 0864c5f8 00861086     ..........d.....
   1af30:	09880127 ffffdf7e ffffffff ffdeffdf     '...~...........
   1af40:	fffefffe ffdeffde ffdeffde ffdeffde     ................
   1af50:	fffeffde fffffffe ffffffff 422bffff     ..............+B
   1af60:	22cf0045 25984598 1db825b8 25b825b8     E..".E.%.%...%.%
   1af70:	25b825b8 25b825b8 25b825b8 25b825b8     .%.%.%.%.%.%.%.%
   1af80:	25b825b8 25b825b8 25b825b8 25b825b8     .%.%.%.%.%.%.%.%
   1af90:	25b825b8 25b825b8 1d981db8 155725b8     .%.%.%.%.....%W.
   1afa0:	25b825b8 25b825b8 25b825b8 25b825b8     .%.%.%.%.%.%.%.%
   1afb0:	25b825b8 25b825b8 25b825b8 25b825b8     .%.%.%.%.%.%.%.%
   1afc0:	25b825b8 25b825b8 25b825b8 25b825b8     .%.%.%.%.%.%.%.%
   1afd0:	25b825b8 25b825b8 25b825b8 25b825b8     .%.%.%.%.%.%.%.%
   1afe0:	25b825b8 35772597 09894cf6 94320024     .%.%.%w5.L..$.2.
   1aff0:	ff19ffff ec89dccc fc67fc68 fc67fc67     ........h.g.g.g.
   1b000:	fc67fc67 f489fc67 b326d3e7 bb48bb48     g.g.g.....&.H.H.
   1b010:	bb48bb48 bb49bb49 bb49bb49 b349bb49     H.H.I.I.I.I.I.I.
   1b020:	b40dab49 ffffff7c 31677bb0 de9a41c8     I...|....{g1.A..
   1b030:	ff7cffdf ff18ff19 fef7fef7 ff18ff18     ..|.............
   1b040:	fef7fef7 fef7fef7 fef7fef7 fef7fef7     ................
   1b050:	ff18fef7 ff3aff18 ffddffbd ff18ff9b     ......:.........
   1b060:	ff18ff18 fef7fef7 fef7fef7 fef7fef7     ................
   1b070:	fef7ff17 fef7fef7 ff18ff18 fef8fef8     ................
   1b080:	fef8fef8 ff17fef7 ff18ff18 ff18ff18     ................
   1b090:	ff17ff17 fef7ff17 fef7fef7 fef8fef8     ................
   1b0a0:	ff9cf719 bdb7ffff 41c93167 398841a9     ........g1.A.A.9
   1b0b0:	f75d524a feb7fffe ec89dcab fc68f468     JR].........h.h.
   1b0c0:	fc67fc68 fc67fc68 fc67fc67 fc67fc67     h.g.h.g.g.g.g.g.
   1b0d0:	fc67fc67 fc89fc68 dccceca9 fffeff19     g.g.h...........
   1b0e0:	19c8a514 3d5654d4 25972d77 25b82598     .....TV=w-.%.%.%
   1b0f0:	1db81db8 25b825b8 25b825b8 25b825b8     .....%.%.%.%.%.%
   1b100:	259725b8 34133d78 294800a6 ffddef5e     .%.%x=.4..H)^...
   1b110:	dc8aedf1 fc68f489 fc67fc67 fc67fc67     ......h.g.g.g.g.
   1b120:	fc88fc67 c367ec69 c387bb47 fc68f489     g...i.g.G.....h.
   1b130:	fc67fc68 fc67fc67 fc67fc67 dc6af488     h.g.g.g.g.g...j.
   1b140:	ffdcf695 ff19ff9b fef7ff18 ff17fef7     ................
   1b150:	ff17ff17 ff18ff18 ff7bff19 ffddffbc     ..........{.....
   1b160:	ff18ff5a fed7ff18 fef7fef7 fef8ff18     Z...............
   1b170:	fef8fef7 ffdeff9c ffdeffde f696ffdd     ................
   1b180:	eca9d4ab fc87f488 fc67fc67 fc67fc67     ........g.g.g.g.
   1b190:	fc67fc67 fc67fc67 fc67fc87 f488fc68     g.g.g.g...g.h...
   1b1a0:	d48aec88 fffef675 39a8ce59 39ca39a9     ....u...Y..9.9.9
   1b1b0:	3a0931a9 ffffdf1c ff3aff9c ff18fef8     .1.:......:.....
   1b1c0:	fef7ff18 fef7fed7 fef7fef7 fef7fef7     ................
   1b1d0:	fef7fef7 ff18fef8 ffbeff5b 424bffbf     ........[.....KB
   1b1e0:	22ae0044 25974578 25b82598 25b825b8     D.."xE.%.%.%.%.%
   1b1f0:	25b825b8 25b825b8 25982598 25b825b8     .%.%.%.%.%.%.%.%
   1b200:	25b825b8 25b825b8 25b825b8 25b825b8     .%.%.%.%.%.%.%.%
   1b210:	25b825b8 25b825b8 1d981db8 155725b8     .%.%.%.%.....%W.
   1b220:	25b825b8 25b825b8 25b825b8 25b825b8     .%.%.%.%.%.%.%.%
   1b230:	25b825b8 25b825b8 25b825b8 25b825b8     .%.%.%.%.%.%.%.%
   1b240:	25b825b8 25b825b8 25b825b8 25b825b8     .%.%.%.%.%.%.%.%
   1b250:	25b825b8 25b825b8 25b825b8 25b825b8     .%.%.%.%.%.%.%.%
   1b260:	25b825b8 35772597 09894cf6 94320024     .%.%.%w5.L..$.2.
   1b270:	ff19ffff ec89dccc fc67fc68 fc67fc67     ........h.g.g.g.
   1b280:	fc67fc67 ec89fc68 fef7fdd0 ff39ff18     g.g.h.........9.
   1b290:	ff5aff39 ff3aff3a ff3aff3a ff3aff3a     9.Z.:.:.:.:.:.:.
   1b2a0:	ff3bff5b ffdfffbe f79ef79f ff9df77e     [.;.........~...
   1b2b0:	ee96ffdd d4edc4ce dcccd4cc dcccdccc     ................
   1b2c0:	dcccdccc dcccdccc dcccdccc dcccdccc     ................
   1b2d0:	d4ccdccc cd50cccd fffcff9b c4cdf6d7     ......P.........
   1b2e0:	d4ccd4ed dcccdccc dcccdccc dcccdccc     ................
   1b2f0:	dcccdccc dcccdccc dcccdccc dcccdccc     ................
   1b300:	dcccdccc dcccdccc dcccdccc dcccdccc     ................
   1b310:	dcccdccc dcccdccc dcccdccc d4cdd4cc     ................
   1b320:	f6f8c50f f79effdd f77ef77e f79ef79f     ........~.~.....
   1b330:	ffbef79f feb6ffdd f489e4ab fc68fc68     ............h.h.
   1b340:	fc67fc68 fc67fc68 fc67fc67 fc67fc67     h.g.h.g.g.g.g.g.
   1b350:	fc67fc67 fc68fc68 dccbec68 ffddff38     g.g.h.h.h...8...
   1b360:	e7bff7be 5d56b77e 2d563d56 25972db8     ....~.V]V=V-.-.%
   1b370:	1db81db7 259825b8 25b825b8 25b825b8     .....%.%.%.%.%.%
   1b380:	259725b8 34133578 294800a6 ffddef5e     .%.%x5.4..H)^...
   1b390:	dc89edf1 fc67f489 fc67fc67 fc67fc67     ......g.g.g.g.g.
   1b3a0:	f468fc67 feb4eccb fe74ff37 f488ec8a     g.h.....7.t.....
   1b3b0:	fc67f488 fc67fc47 fc67fc67 e48afc68     ..g.G.g.g.g.h...
   1b3c0:	ffdcf695 c4efff18 dcecd4cd dcccdccc     ................
   1b3d0:	dcccdccc d4eddcec ee76c4ce ff9afffc     ..........v.....
   1b3e0:	cccdcd70 dcccdced dccbdccb dccddccc     p...............
   1b3f0:	c4cddccd ffdee676 ffddffde feb5ffdc     ....v...........
   1b400:	f488dc8a fc67fc68 fc67fc67 fc67fc67     ....h.g.g.g.g.g.
   1b410:	fc87fc67 fc67fc67 fc67fc67 fc87fc67     g...g.g.g.g.g...
   1b420:	e4aaf488 ffdcf675 f79effbd ff9ff77f     ....u...........
   1b430:	f79ef77f ffdeffbe c50ff719 dccdcccd     ................
   1b440:	dccddccc dccddccd dcccdccc dcccd4cc     ................
   1b450:	dcccdccd cccddced ffbdd5d3 424bffbf     ..............KB
   1b460:	22ce0065 25974577 25b82598 25b825b8     e.."wE.%.%.%.%.%
   1b470:	25b825b8 25b825b8 25982598 25b825b8     .%.%.%.%.%.%.%.%
   1b480:	25b825b8 25b825b8 25b825b8 25b825b8     .%.%.%.%.%.%.%.%
   1b490:	25b825b8 25b825b8 1d981db8 155725b8     .%.%.%.%.....%W.
   1b4a0:	25b825b8 25b825b8 25b825b8 25b825b8     .%.%.%.%.%.%.%.%
   1b4b0:	25b825b8 25b825b8 25b825b8 25b825b8     .%.%.%.%.%.%.%.%
   1b4c0:	25b825b8 25b825b8 25b825b8 25b825b8     .%.%.%.%.%.%.%.%
   1b4d0:	25b825b8 25b825b8 25b825b8 25b825b8     .%.%.%.%.%.%.%.%
   1b4e0:	25b825b8 35772597 09894cf6 94320024     .%.%.%w5.L..$.2.
   1b4f0:	ff19ffff ec89dccc fc67fc68 fc67fc67     ........h.g.g.g.
   1b500:	fc67fc87 dc69f488 ffbbf612 ffdeffdd     ..g...i.........
   1b510:	fffeffde ffdeffde ffdeffde ffdeffde     ................
   1b520:	fffeffde ffffffde ffffffff ffddfffe     ................
   1b530:	f634ffbb ecaad48b f489ec89 f489f48a     ..4.............
   1b540:	f489ec89 f489f489 f489f489 f489f469     ............i...
   1b550:	ec89f489 dd2edc8a ffdcff9a d4acfe95     ................
   1b560:	ec89e48a ec89ec69 f489ec89 f489f489     ....i...........
   1b570:	ec89f489 ec89f489 f489f489 ec89f489     ................
   1b580:	f489f489 f489f489 f489f489 f489f489     ................
   1b590:	ec89ec89 ec89ec89 ec89ec89 e48aec69     ............i...
   1b5a0:	feb6d4ac ffddffdc ffffffde ffffffff     ................
   1b5b0:	ffddffde feb5ffdb f488dc8a fc68fc68     ............h.h.
   1b5c0:	fc67fc68 fc68fc67 fc67fc67 fc67fc67     h.g.g.h.g.g.g.g.
   1b5d0:	fc67fc67 fc68fc68 e4abf468 ffdcff58     g.g.h.h.h...X...
   1b5e0:	f7ffffdd 6493e7ff 34b512ed 25983577     .......d...4w5.%
   1b5f0:	25b82598 25b825b8 25b825b8 25b825b8     .%.%.%.%.%.%.%.%
   1b600:	259725b8 34133d78 294800a6 ffddef5e     .%.%x=.4..H)^...
   1b610:	dc89edf1 fc67f489 fc67fc67 fc87fc67     ......g.g.g.g...
   1b620:	ec89fc88 ff57e4ec fed7ffdb f489e4ab     ......W.........
   1b630:	fc68f488 fc67fc47 fc67fc67 dc6afc68     ..h.G.g.g.g.h.j.
   1b640:	ffdbf674 ccadfef7 f4aae4ab ec89ec89     t...............
   1b650:	ec89ec89 e4aaec89 f654cc8c ff18ffdc     ..........T.....
   1b660:	e48ad4cd ec69ec89 ec89ec89 ec89f489     ......i.........
   1b670:	d46bec89 ffddee55 ffddffdd feb5ffdc     ..k.U...........
   1b680:	f468e48a fc67fc67 fc67fc67 fc67fc67     ..h.g.g.g.g.g.g.
   1b690:	fc67fc67 fc67fc67 fc67fc67 fc67fc67     g.g.g.g.g.g.g.g.
   1b6a0:	e48afc88 ffdbfe74 ffdeffdd ffffffdf     ....t...........
   1b6b0:	ffffffff ffdcfffe d4ccfef7 f4aae48a     ................
   1b6c0:	ec69ec89 f469ec49 ec89ec89 ec89ec69     ..i.I.i.....i...
   1b6d0:	ec8af48a dc8bec8a ffbcdd91 422bffbf     ..............+B
   1b6e0:	22ce0045 25974577 25b82598 25b825b8     E.."wE.%.%.%.%.%
   1b6f0:	25b825b8 25b825b8 25b825b8 25b825b8     .%.%.%.%.%.%.%.%
   1b700:	25b825b8 25b825b8 25b825b8 25b825b8     .%.%.%.%.%.%.%.%
   1b710:	25b825b8 25b825b8 1d981db8 155725b8     .%.%.%.%.....%W.
   1b720:	25b825b8 25b825b8 25b825b8 25b825b8     .%.%.%.%.%.%.%.%
   1b730:	25b825b8 25b825b8 25b825b8 25b825b8     .%.%.%.%.%.%.%.%
   1b740:	25b825b8 25b825b8 25b825b8 25b825b8     .%.%.%.%.%.%.%.%
   1b750:	25b825b8 25b825b8 25b825b8 25b825b8     .%.%.%.%.%.%.%.%
   1b760:	25b825b8 35772597 09894cf6 94320024     .%.%.%w5.L..$.2.
   1b770:	ff19ffff ec89dccc fc67fc68 fc67fc67     ........h.g.g.g.
   1b780:	fc67fc67 dc6afc88 ffdcee33 f7defffe     g.g...j.3.......
   1b790:	fffefffe ffffffff ffffffff ffdeffde     ................
   1b7a0:	fffefffe ffdfffde ffddf7de f6f8ffbc     ................
   1b7b0:	f590fe95 fc89e46a fc68fc68 fc88fc68     ....j...h.h.h...
   1b7c0:	fc68fc68 fc68fc68 fc68fc68 fc68fc68     h.h.h.h.h.h.h.h.
   1b7d0:	f488fc68 dd0dec89 ffdcff7a dc8bfe95     h.......z.......
   1b7e0:	fc88ec89 fc68fc68 fc68fc68 fc68fc68     ....h.h.h.h.h.h.
   1b7f0:	fc68fc68 fc67fc67 fc88fc68 fc88fc88     h.h.g.g.h.......
   1b800:	fc68fc88 fc88fc68 fc88fc68 fc68fc68     ..h.h...h...h.h.
   1b810:	fc68fc88 fc67fc88 fc67fc67 f468fc67     ..h...g.g.g.g.h.
   1b820:	fdf1e48a f719feb6 fffeffdd ffdef7de     ................
   1b830:	eed7ff9c f5f0feb5 f488e489 fc68fc68     ............h.h.
   1b840:	fc67fc67 fc87fc68 fc67fc67 fc67fc67     g.g.h...g.g.g.g.
   1b850:	fc67fc67 fc68fc68 ecaaf468 f696fe33     g.g.h.h.h...3...
   1b860:	ffbef73a 534effff 449400c5 25973578     :.....NS...Dx5.%
   1b870:	25982598 25b825b8 25b825b8 25b825b8     .%.%.%.%.%.%.%.%
   1b880:	25971d98 34133d98 31480086 ffddef5e     ...%.=.4..H1^...
   1b890:	dc89edf1 fc67f488 fc67fc67 fc87fc67     ......g.g.g.g...
   1b8a0:	ec89fc68 ff58dcec fed7ffdc f468e4ab     h.....X.......h.
   1b8b0:	fc68f488 fc67fc67 fc67fc67 dc69fc88     ..h.g.g.g.g...i.
   1b8c0:	ffdbf675 d4acfed6 fc68ec89 fc68fc68     u.........h.h.h.
   1b8d0:	fc67fc67 ec89fc88 fe54dcab fef7ffdc     g.g.......T.....
   1b8e0:	f489dcab fc67fc88 fc88fc88 fc68fc68     ......g.....h.h.
   1b8f0:	dc69f488 ffdcf675 f6f8ffbc f5d0f695     ..i.u...........
   1b900:	f468ec89 fc67fc68 fc67fc67 fc67fc67     ..h.h.g.g.g.g.g.
   1b910:	fc67fc67 fc67fc67 fc67fc67 fc67fc67     g.g.g.g.g.g.g.g.
   1b920:	ec89f467 f6b5f5d0 ffbdf719 ffffffde     g...............
   1b930:	ffbdffde fe95f6f8 e4cbfe11 fc68f489     ..............h.
   1b940:	fc67fc88 fc68fc47 fc68fc68 fc68fc68     ..g.G.h.h.h.h.h.
   1b950:	fc68fc68 e48afc89 ffbce591 4a2bffbe     h.h...........+J
   1b960:	22ae0045 25774577 25b82598 25b825b8     E.."wEw%.%.%.%.%
   1b970:	25b825b8 25b825b8 25b825b8 25b825b8     .%.%.%.%.%.%.%.%
   1b980:	25b825b8 25b825b8 25b825b8 25b825b8     .%.%.%.%.%.%.%.%
   1b990:	25b825b8 25b825b8 1d981db8 155725b8     .%.%.%.%.....%W.
   1b9a0:	25b825b8 1d981d98 1db71db8 25b81d97     .%.%...........%
   1b9b0:	25b825b8 25b825b8 25982598 25b825b8     .%.%.%.%.%.%.%.%
   1b9c0:	25b825b8 25b825b8 25b825b8 25b825b8     .%.%.%.%.%.%.%.%
   1b9d0:	25b825b8 25b825b8 25b825b8 25b825b8     .%.%.%.%.%.%.%.%
   1b9e0:	25b825b8 35772597 09894cf6 94330024     .%.%.%w5.L..$.3.
   1b9f0:	ff19ffff ec89dccc fc67fc68 fc67fc67     ........h.g.g.g.
   1ba00:	f467fc67 e48af488 ffdcee13 fffeffde     g.g.............
   1ba10:	fffefffe fffefffe fffefffe fffefffe     ................
   1ba20:	fffefffe fffeffff fffdfffe d550ff9b     ..............P.
   1ba30:	ec8ad48b fc68f469 fc67fc67 fc68fc88     ....i.h.g.g...h.
   1ba40:	fc67fc68 fc67fc67 fc67fc67 fc67fc67     h.g.g.g.g.g.g.g.
   1ba50:	f488fc67 e50dec89 fffcff7a dc8bfe95     g.......z.......
   1ba60:	fc88f489 fc67fc67 fc68fc68 fc68fc68     ....g.g.h.h.h.h.
   1ba70:	fc68fc68 fc67fc67 fc67fc67 fc67fc67     h.h.g.g.g.g.g.g.
   1ba80:	fc87fc67 fc67fc68 fc67fc68 fc68fc68     g...h.g.h.g.h.h.
   1ba90:	fc68fc68 fc67fc67 fc67fc67 fc68fc67     h.h.g.g.g.g.g.h.
   1baa0:	ecaaf489 ddb2cc8b fffeffdc fffdffde     ................
   1bab0:	cceeff59 ec89d48b fc67f488 fc67fc67     Y.........g.g.g.
   1bac0:	fc67fc67 fc67fc67 fc67fc67 fc67fc67     g.g.g.g.g.g.g.g.
   1bad0:	fc67fc67 fc87fc67 f468fc68 cc6becaa     g.g.g...h.h...k.
   1bae0:	fffde614 5b2effff 447400c5 25973577     .......[..tDw5.%
   1baf0:	25982598 25b825b8 25b825b8 25b825b8     .%.%.%.%.%.%.%.%
   1bb00:	259725b8 34333d98 294800a6 ffddef5e     .%.%.=34..H)^...
   1bb10:	dc89edf1 fc67f489 fc67fc67 fc67fc67     ......g.g.g.g.g.
   1bb20:	ec89fc68 ff58dced fed7ffdc f489dcab     h.....X.........
   1bb30:	fc67fc68 fc67fc67 fc67fc67 dc6afc88     h.g.g.g.g.g...j.
   1bb40:	ffdbf675 dcacfed6 fc67f489 fc67fc67     u.........g.g.g.
   1bb50:	fc67fc67 f489fc67 fe53dc8a fef7ffdb     g.g.g.....S.....
   1bb60:	f489dcab fc68fc68 fc87fc67 fc67fc67     ....h.h.g...g.g.
   1bb70:	dc89f468 ffdcf654 d571ffbb e489cc8b     h...T.....q.....
   1bb80:	fc67f488 fc87fc87 fc47fc68 fc67fc47     ..g.....h.G.G.g.
   1bb90:	fc67fc67 fc67fc88 fc67fc68 fc67fc67     g.g...g.h.g.g.g.
   1bba0:	f488fc88 d48becaa ffbbd571 fffefffe     ........q.......
   1bbb0:	ff9bfffe d48bd50f f489e48a fc67fc68     ............h.g.
   1bbc0:	fc87fc67 fc67fc67 fc68fc87 fc68fc68     g...g.g...h.h.h.
   1bbd0:	fc68fc68 e48afc89 ffbcdd90 4a2bffbf     h.h...........+J
   1bbe0:	22ae0044 25774578 25b82597 25b825b8     D.."xEw%.%.%.%.%
   1bbf0:	25b825b8 25b825b8 25b825b8 25b825b8     .%.%.%.%.%.%.%.%
   1bc00:	25b825b8 25b825b8 25b825b8 25b825b8     .%.%.%.%.%.%.%.%
   1bc10:	25b825b8 25b825b8 1d981db8 155725b8     .%.%.%.%.....%W.
   1bc20:	1db82598 1db81db8 1d9725b7 25971d76     .%.......%..v..%
   1bc30:	25b82597 25b825b8 25982598 25b825b8     .%.%.%.%.%.%.%.%
   1bc40:	25b825b8 25b825b8 25b825b8 25b825b8     .%.%.%.%.%.%.%.%
   1bc50:	25b825b8 25b825b8 25b825b8 25b825b8     .%.%.%.%.%.%.%.%
   1bc60:	25b825b8 35772597 09894cf6 94330024     .%.%.%w5.L..$.3.
   1bc70:	ff19ffff ec89dccc fc67fc68 fc67fc67     ........h.g.g.g.
   1bc80:	fc67fc88 e48af488 ffdcee13 ffbdffdd     ..g.............
   1bc90:	ff9bff9b ff9bff9b ff9bff9b ff9bff9b     ................
   1bca0:	ffbcff9b fffeffde ffddfffe dd4fff9a     ..............O.
   1bcb0:	fc88e48a fc67fc68 fc67fc67 fc67fc67     ....h.g.g.g.g.g.
   1bcc0:	fc67fc67 fc67fc67 fc67fc67 fc67fc67     g.g.g.g.g.g.g.g.
   1bcd0:	fc88fc67 e50dec89 ffdcff7a dc8bfeb5     g.......z.......
   1bce0:	fc87f4a9 fc67fc67 fc67fc67 fc67fc67     ....g.g.g.g.g.g.
   1bcf0:	fc67fc67 fc68fc68 fc67fc67 fc67fc67     g.g.h.h.g.g.g.g.
   1bd00:	fc87fc67 fc67fc67 fc67fc67 fc67fc67     g...g.g.g.g.g.g.
   1bd10:	fc67fc67 fc67fc67 fc67fc67 fc67fc67     g.g.g.g.g.g.g.g.
   1bd20:	f489fc67 e5b0dc8a fffdffdc fffdfffe     g...............
   1bd30:	d4edff38 f468ec8a fc67fc88 fc67fc67     8.....h...g.g.g.
   1bd40:	fc67fc67 fc67fc67 fc67fc67 fc67fc67     g.g.g.g.g.g.g.g.
   1bd50:	fc67fc67 fc67fc67 fc68fc67 dc8af488     g.g.g.g.g.h.....
   1bd60:	ffddee13 5b2effff 447400a5 25973577     .......[..tDw5.%
   1bd70:	25982598 25b825b8 25b825b8 25b825b8     .%.%.%.%.%.%.%.%
   1bd80:	259725b8 34333d98 294800a6 ffddef5e     .%.%.=34..H)^...
   1bd90:	dc89edf1 fc68fc89 fc67fc67 fc67fc67     ......h.g.g.g.g.
   1bda0:	ec89fc68 ff58dced fef7ffdc f489e4ab     h.....X.........
   1bdb0:	fc67fc68 fc67fc67 fc68fc67 dc8af489     h.g.g.g.g.h.....
   1bdc0:	ffdbf675 dcccfed6 fc67f489 fc67fc67     u.........g.g.g.
   1bdd0:	fc67fc67 f489fc67 fe53dc8a fef7ffdb     g.g.g.....S.....
   1bde0:	f489dcab fc67fc68 fc87fc67 fc67fc67     ....h.g.g...g.g.
   1bdf0:	e489f467 ffdcf654 dd70ffba f488e48a     g...T.....p.....
   1be00:	fc67fc88 fc87fc87 fc68fc68 fc47fc48     ..g.....h.h.H.G.
   1be10:	fc47fc47 fc68fc68 fc67fc68 fc67fc67     G.G.h.h.h.g.g.g.
   1be20:	fc68fc67 e48af489 ffbbdd70 fffefffd     g.h.....p.......
   1be30:	ff9bfffe e48add0e fc87f489 fc67fc87     ..............g.
   1be40:	fc67fc67 fc67fc67 fc87fc87 fc67fc67     g.g.g.g.....g.g.
   1be50:	fc68fc67 e48afc89 ffbcdd90 4a4bffdf     g.h...........KJ
   1be60:	22ce0044 25774578 25b82597 25b825b8     D.."xEw%.%.%.%.%
   1be70:	25b825b8 25b825b8 25b825b8 25b825b8     .%.%.%.%.%.%.%.%
   1be80:	25b825b8 25b825b8 25b825b8 25b825b8     .%.%.%.%.%.%.%.%
   1be90:	25b825b8 25b825b8 1d981db8 155725b8     .%.%.%.%.....%W.
   1bea0:	1db81db8 25b725b8 36192597 35d8467a     .....%.%.%.6zF.5
   1beb0:	25982597 25982598 25b825b8 25b825b8     .%.%.%.%.%.%.%.%
   1bec0:	25b825b8 25b825b8 25b825b8 25b825b8     .%.%.%.%.%.%.%.%
   1bed0:	25b825b8 25b825b8 25b825b8 25b825b8     .%.%.%.%.%.%.%.%
   1bee0:	25b825b8 35772597 09894cf6 94330024     .%.%.%w5.L..$.3.
   1bef0:	ff18ffff ec89dccc fc67fc68 fc67fc67     ........h.g.g.g.
   1bf00:	fc87fc68 e48af488 ffbbee13 de35ffbc     h.............5.
   1bf10:	e52fd530 e52ee52e e52ee52f e52fe52e     0./...../...../.
   1bf20:	ddb2dd2f ffffffbc ffddffde dd4fff9b     /.............O.
   1bf30:	fc68e48a fc67fc67 fc67fc67 fc87fc87     ..h.g.g.g.g.....
   1bf40:	fc67fc67 fc67fc67 fc67fc67 fc67fc67     g.g.g.g.g.g.g.g.
   1bf50:	fc88fc67 e50dec89 ffdcff7a dc8bfeb5     g.......z.......
   1bf60:	fc87f4a9 fc67fc67 fc67fc67 fc67fc67     ....g.g.g.g.g.g.
   1bf70:	fc67fc67 fc67fc67 fc67fc67 fc67fc67     g.g.g.g.g.g.g.g.
   1bf80:	fc67fc67 fc67fc67 fc67fc67 fc67fc67     g.g.g.g.g.g.g.g.
   1bf90:	fc67fc67 fc67fc67 fc67fc67 fc67fc67     g.g.g.g.g.g.g.g.
   1bfa0:	f489fc67 ed90e469 fffdffdb fffdfffe     g...i...........
   1bfb0:	d4edff38 fc68ec89 fc67fc67 fc67fc67     8.....h.g.g.g.g.
   1bfc0:	fc67fc67 fc67fc67 fc68fc68 fc67fc67     g.g.g.g.h.h.g.g.
   1bfd0:	fc67fc67 fc67fc67 fc88fc67 dc69fc88     g.g.g.g.g.....i.
   1bfe0:	ffddee13 5b2effff 447400a5 25973577     .......[..tDw5.%
   1bff0:	25982598 25b825b8 25982598 25b825b8     .%.%.%.%.%.%.%.%
   1c000:	259725b8 34333d98 294800a6 ffddef5d     .%.%.=34..H)]...
   1c010:	dc89edd1 fc68fc89 fc67fc67 fc67fc67     ......h.g.g.g.g.
   1c020:	ec89fc68 ff58dced fed7ffdc f489dcab     h.....X.........
   1c030:	fc67fc67 fc67fc67 fc88fc67 e4acf489     g.g.g.g.g.......
   1c040:	ffdcfef7 dcacfed6 fc67f489 fc67fc67     ..........g.g.g.
   1c050:	fc67fc67 f489fc67 fe53dc8a ff17ffdb     g.g.g.....S.....
   1c060:	f489dcab fc67fc68 fc87fc67 fc67fc67     ....h.g.g...g.g.
   1c070:	e48af467 ffdbf674 dd70ffba fc88e469     g...t.....p.i...
   1c080:	fc67fc68 fc87fc67 fc88fc87 f3e6fc68     h.g.g.......h...
   1c090:	d2a2d2a2 fc68f3c6 fc67fc67 fc67fc67     ......h.g.g.g.g.
   1c0a0:	fc88fc67 e469fc88 ffbbdd70 ffffffde     g.....i.p.......
   1c0b0:	ff9bfffe ec8ae50e fc87f488 fc67fc67     ............g.g.
   1c0c0:	fc67fc67 fc67fc67 fc67fc67 fc67fc67     g.g.g.g.g.g.g.g.
   1c0d0:	fc67fc67 e48afc88 ffbcdd90 4a4bffdf     g.g...........KJ
   1c0e0:	22ce0044 25774578 25b82597 25b825b8     D.."xEw%.%.%.%.%
   1c0f0:	25b825b8 25b825b8 25b825b8 25b825b8     .%.%.%.%.%.%.%.%
   1c100:	25b825b8 25b825b8 25b825b8 25b825b8     .%.%.%.%.%.%.%.%
   1c110:	25b825b8 25b825b8 1d981db8 155725b8     .%.%.%.%.....%W.
   1c120:	1d981db8 25b725b8 4ebb2576 3e397fff     .....%.%v%.N..9>
   1c130:	25b82577 259825b8 25b825b8 25b825b8     w%.%.%.%.%.%.%.%
   1c140:	25b825b8 25b825b8 25b825b8 25b825b8     .%.%.%.%.%.%.%.%
   1c150:	25b825b8 25b825b8 25b825b8 25b825b8     .%.%.%.%.%.%.%.%
   1c160:	25b825b8 35772597 09894cf6 94330024     .%.%.%w5.L..$.3.
   1c170:	ff18ffff ec89dccc fc67fc68 fc67fc67     ........h.g.g.g.
   1c180:	fc87fc68 dc8af488 ffbbee13 dd92ffbb     h...............
   1c190:	e48ad46b ec69e469 ec8aec69 e48aec89     k...i.i.i.......
   1c1a0:	d50edc8a fffeff9b fffdfffe dd2eff79     ............y...
   1c1b0:	fc88ec89 fc67fc67 fc87fc67 fc87fc87     ....g.g.g.......
   1c1c0:	fc67fc67 fc67fc67 fc67fc67 fc67fc67     g.g.g.g.g.g.g.g.
   1c1d0:	fc88fc67 e50dec89 ffdcff7a dc8bfeb5     g.......z.......
   1c1e0:	fc87f4a9 fc68fc67 fc67fc67 fc67fc67     ....g.h.g.g.g.g.
   1c1f0:	fc67fc67 fc67fc67 fc67fc67 fc67fc67     g.g.g.g.g.g.g.g.
   1c200:	fc67fc67 fc67fc67 fc67fc67 fc67fc67     g.g.g.g.g.g.g.g.
   1c210:	fc67fc67 fc67fc68 fc67fc67 fc67fc67     g.g.h.g.g.g.g.g.
   1c220:	fc88fc67 ed8fe469 fffdffdb ffddfffd     g...i...........
   1c230:	d4edff38 fc68ec89 fc67fc67 fc67fc67     8.....h.g.g.g.g.
   1c240:	fc67fc67 f468fc67 ec89ec89 fc67f488     g.g.g.h.......g.
   1c250:	fc67fc67 fc67fc67 fc67fc67 dc6afc88     g.g.g.g.g.g...j.
   1c260:	ffddee13 5b2effff 447400a5 25973577     .......[..tDw5.%
   1c270:	25982598 25b825b8 25982598 25b825b8     .%.%.%.%.%.%.%.%
   1c280:	259725b8 34333d98 294800a6 ffddef5d     .%.%.=34..H)]...
   1c290:	dc89edd1 fc67fc89 fc67fc67 fc67fc67     ......g.g.g.g.g.
   1c2a0:	ec89fc68 ff58dced fed7ffdc f489e4ab     h.....X.........
   1c2b0:	fc67fc67 fc67fc67 fc68fc67 e4ccec89     g.g.g.g.g.h.....
   1c2c0:	ffdcff18 dcccfef6 fc67f489 fc67fc67     ..........g.g.g.
   1c2d0:	fc67fc67 f489fc67 fe53dc8a ff17ffdb     g.g.g.....S.....
   1c2e0:	f489dcab fc67fc68 fc87fc67 fc67fc67     ....h.g.g...g.g.
   1c2f0:	e48af468 ffdbf654 dd4fffba fc88e469     h...T.....O.i...
   1c300:	fc67fc67 fc87fc87 fc88f467 eba6fc68     g.g.....g...h...
   1c310:	ba21ba21 fc88e3a6 fc67fc67 fc67fc67     !.!.....g.g.g.g.
   1c320:	fc88fc67 e489fc68 ffbbdd6f fffeffdd     g...h...o.......
   1c330:	ff59ffdd ec89e4ed fc67fc88 fc67fc67     ..Y.......g.g.g.
   1c340:	fc67fc67 fc88fc67 fc67fc87 fc67fc67     g.g.g.....g.g.g.
   1c350:	fc68fc67 e48afc88 ffbce590 4a2bffbf     g.h...........+J
   1c360:	22ce0044 25774578 25b82597 25b825b8     D.."xEw%.%.%.%.%
   1c370:	25b825b8 25b825b8 25b825b8 25b825b8     .%.%.%.%.%.%.%.%
   1c380:	25b825b8 25b825b8 25b825b8 25b825b8     .%.%.%.%.%.%.%.%
   1c390:	25b825b8 25b825b8 1d981db8 155725b8     .%.%.%.%.....%W.
   1c3a0:	25b825b8 259825b8 2dd82597 2db83e19     .%.%.%.%.%.-.>.-
   1c3b0:	25982598 25b82598 25b825b8 25b825b8     .%.%.%.%.%.%.%.%
   1c3c0:	25b825b8 25b825b8 25b825b8 25b825b8     .%.%.%.%.%.%.%.%
   1c3d0:	25b825b8 25b825b8 25b825b8 25b825b8     .%.%.%.%.%.%.%.%
   1c3e0:	25b825b8 35772597 09894cf6 94330024     .%.%.%w5.L..$.3.
   1c3f0:	ff18ffff ec89dccc fc67fc68 fc67fc67     ........h.g.g.g.
   1c400:	fc67fc68 dc8af488 ffdcee13 ddb1ffbb     h.g.............
   1c410:	f4a9dc8a f488f489 fc89f489 f489f489     ................
   1c420:	e52eecaa fffdff9b ff38ff7a ed0cfed5     ........z.8.....
   1c430:	fc67f488 fc67fc67 fc67fc67 fc67fc87     ..g.g.g.g.g...g.
   1c440:	fc67fc67 fc67fc67 fc67fc67 fc67fc67     g.g.g.g.g.g.g.g.
   1c450:	fc88fc67 e50dec89 ffdcff7a dc8bfeb5     g.......z.......
   1c460:	fc87f4a9 fc67fc67 fc68fc68 fc67fc67     ....g.g.h.h.g.g.
   1c470:	fc67fc67 fc67fc67 fc67fc67 fc67fc67     g.g.g.g.g.g.g.g.
   1c480:	fc67fc67 fc67fc67 fc67fc67 fc67fc67     g.g.g.g.g.g.g.g.
   1c490:	fc47fc67 fc67fc67 fc67fc67 fc67fc67     g.G.g.g.g.g.g.g.
   1c4a0:	fc88fc67 f54dec69 ff59ff37 ffdcff9b     g...i.M.7.Y.....
   1c4b0:	dcedff38 fc68ec89 fc67fc67 fc67fc67     8.....h.g.g.g.g.
   1c4c0:	fc88fc67 eccaf488 e4ece50c fc88ec89     g...............
   1c4d0:	fc67fc87 fc67fc87 fc88fc67 dc69fc88     ..g...g.g.....i.
   1c4e0:	ffddee13 5b2effff 447400a5 25973577     .......[..tDw5.%
   1c4f0:	25982598 25b825b8 25b825b8 25b825b8     .%.%.%.%.%.%.%.%
   1c500:	259725b8 34333d98 294800a6 ffddef5d     .%.%.=34..H)]...
   1c510:	dc89edf1 fc67fc89 fc67fc67 fc67fc67     ......g.g.g.g.g.
   1c520:	ec89fc68 ff58dced feb6ffdb f489e4ab     h.....X.........
   1c530:	fc67fc67 fc67fc67 f488fc67 e4ecec89     g.g.g.g.g.......
   1c540:	ffdcff38 dcacfed6 fc67f489 fc67fc67     8.........g.g.g.
   1c550:	fc67fc67 f489fc67 fe53dc8a fef7ffdb     g.g.g.....S.....
   1c560:	f489dcab fc67fc68 fc87fc87 fc67fc67     ....h.g.....g.g.
   1c570:	e48af488 ffdcf654 dd6fffba fc88e469     ....T.....o.i...
   1c580:	fc67fc67 fc67fc67 fc88fc47 dbe8fc69     g.g.g.g.G...i...
   1c590:	b2e5b2e6 fc88dbe8 fc67fc68 fc67fc67     ........h.g.g.g.
   1c5a0:	fc68fc67 e489fc68 ff9ae56f ff9cffdd     g.h.h...o.......
   1c5b0:	fed5ff18 f489eccb fc67fc88 fc67fc67     ..........g.g.g.
   1c5c0:	fc67fc67 fc67fc88 fc67fc67 fc67fc67     g.g...g.g.g.g.g.
   1c5d0:	fc68fc67 e46afc68 ffbcdd70 4a2bffbf     g.h.h.j.p.....+J
   1c5e0:	22ce0044 25974578 25b82598 25b825b8     D.."xE.%.%.%.%.%
   1c5f0:	25b825b8 25b81db8 259825b8 25b825b8     .%.%...%.%.%.%.%
   1c600:	25b825b8 25b825b8 25b825b8 25b825b8     .%.%.%.%.%.%.%.%
   1c610:	25b825b8 25b825b8 1d981db8 155725b8     .%.%.%.%.....%W.
   1c620:	1d9725b8 25b825b8 1d972598 25972577     .%...%.%.%..w%.%
   1c630:	25b82598 25b825b8 25b825b8 25b825b8     .%.%.%.%.%.%.%.%
   1c640:	25b825b8 25b825b8 25b825b8 25b825b8     .%.%.%.%.%.%.%.%
   1c650:	25b825b8 25b825b8 25b825b8 25b825b8     .%.%.%.%.%.%.%.%
   1c660:	25b825b8 35772597 09894cf6 94330024     .%.%.%w5.L..$.3.
   1c670:	ff18ffff ec89dccc fc67fc68 fc67fc67     ........h.g.g.g.
   1c680:	fc67fc68 e48af488 ffdcee13 e5b1ffbb     h.g.............
   1c690:	fc88e489 fc68fc88 fc68fc68 fc88fc68     ......h.h.h.h...
   1c6a0:	e52dec89 ffddff7a ccedddf3 ecaae4ec     ..-.z...........
   1c6b0:	fc67f468 fc67fc67 fc87fc67 fc67fc88     h.g.g.g.g.....g.
   1c6c0:	fc67fc47 fc67fc47 fc67fc47 fc67fc67     G.g.G.g.G.g.g.g.
   1c6d0:	fc88fc67 e50dec89 ffdcff7a dc8bfeb5     g.......z.......
   1c6e0:	fc87f4a9 fc67fc67 fc68fc68 fc67fc67     ....g.g.h.h.g.g.
   1c6f0:	fc67fc67 fc47fc67 fc67fc67 fc87fc67     g.g.g.G.g.g.g...
   1c700:	fc67fc67 fc67fc67 fc67fc67 fc67fc67     g.g.g.g.g.g.g.g.
   1c710:	fc67fc67 fc67fc47 fc67fc67 fc67fc67     g.g.G.g.g.g.g.g.
   1c720:	fc68fc67 ecaaf488 c4eedced ffdcde56     g.h.........V...
   1c730:	dcedff17 fc68ec69 fc67fc67 fc67fc67     ....i.h.g.g.g.g.
   1c740:	f488fc67 fdafe469 feb4ff16 f468ecca     g...i.........h.
   1c750:	fc67fc88 fc68fc68 fc68fc67 dc69fc88     ..g.h.h.g.h...i.
   1c760:	ffddee13 5b2effff 447400a5 25973577     .......[..tDw5.%
   1c770:	25982598 25b825b8 25b825b8 25b825b8     .%.%.%.%.%.%.%.%
   1c780:	257725b8 34333d98 294800a6 ffddef5d     .%w%.=34..H)]...
   1c790:	dc89edf1 fc68f489 fc67fc67 fc67fc67     ......h.g.g.g.g.
   1c7a0:	ec89fc68 ff38dced ee33ffdb f488dc6a     h.....8...3.j...
   1c7b0:	fc67fc67 fc67fc67 f468fc67 dcecec89     g.g.g.g.g.h.....
   1c7c0:	ffdcff39 dcabfed6 fc67f489 fc67fc67     9.........g.g.g.
   1c7d0:	fc67fc67 f489fc67 fe53dc8a fef7ffdb     g.g.g.....S.....
   1c7e0:	f489dcab fc67fc68 fc87fc87 fc67fc67     ....h.g.....g.g.
   1c7f0:	e48afc88 ffdbf655 dd6fff9a fc88e489     ....U.....o.....
   1c800:	fc67fc68 fc67fc67 fc88fc67 f50dec49     h.g.g.g.g...I...
   1c810:	feb5fed6 ec68f50d fc47fc68 fc67fc67     ......h.h.G.g.g.
   1c820:	fc67fc67 e489fc88 ff9ae56f e697fffc     g.g.....o.......
   1c830:	e50cccee f468ec89 fc67fc67 fc67fc67     ......h.g.g.g.g.
   1c840:	fc67fc67 fc47fc68 fc47fc47 fc47fc47     g.g.h.G.G.G.G.G.
   1c850:	fc48fc68 e46afc68 ff9bdd70 4a2bffbf     h.H.h.j.p.....+J
   1c860:	22ce0044 25974578 25b82598 25b825b8     D.."xE.%.%.%.%.%
   1c870:	25b825b8 25b81db8 259825b8 25b825b8     .%.%...%.%.%.%.%
   1c880:	25b825b8 25b825b8 25b825b8 25b825b8     .%.%.%.%.%.%.%.%
   1c890:	25b825b8 25b825b8 1d981db8 155725b8     .%.%.%.%.....%W.
   1c8a0:	25b825b8 1d981db8 1d981d98 25982598     .%.%.........%.%
   1c8b0:	25b825b8 25b825b8 25b825b8 25b825b8     .%.%.%.%.%.%.%.%
   1c8c0:	25b825b8 25b825b8 25b825b8 25b825b8     .%.%.%.%.%.%.%.%
   1c8d0:	25b825b8 25b825b8 25b825b8 25b825b8     .%.%.%.%.%.%.%.%
   1c8e0:	25b825b8 35772597 09894cf6 94330024     .%.%.%w5.L..$.3.
   1c8f0:	ff18ffff ec89dccc fc67fc68 fc67fc67     ........h.g.g.g.
   1c900:	fc67fc68 e48afc88 ffdcee13 e5b0ffbb     h.g.............
   1c910:	fc88e469 fc67fc68 fc68fc67 fc88fc68     i...h.g.g.h.h...
   1c920:	e50dec69 ffdcff7a d48ae5b1 f488ec89     i...z...........
   1c930:	fc67fc67 fc67fc67 fc67fc67 fc88fc67     g.g.g.g.g.g.g...
   1c940:	fc68fc68 fc67fc67 fc67fc68 fc67fc67     h.h.g.g.h.g.g.g.
   1c950:	fc88fc67 e50dec89 ffdcff7a dc8bfeb5     g.......z.......
   1c960:	fc87f489 fc67fc67 fc67fc68 fc67fc67     ....g.g.h.g.g.g.
   1c970:	fc67fc67 fc68fc47 fc67fc67 fc67fc67     g.g.G.h.g.g.g.g.
   1c980:	fc67fc67 fc67fc67 fc67fc67 fc67fc67     g.g.g.g.g.g.g.g.
   1c990:	fc68fc67 fc68fc68 fc67fc47 fc67fc67     g.h.h.h.G.g.g.g.
   1c9a0:	fc68fc67 f488f448 cc8ae489 ffbbe614     g.h.H...........
   1c9b0:	dcccff17 fc68f489 fc67fc67 fc67fc67     ......h.g.g.g.g.
   1c9c0:	f488fc67 f5f1e489 ff17ffda f488e4cb     g...............
   1c9d0:	fc68fc88 fc67fc67 fc67fc67 dc69fc88     ..h.g.g.g.g...i.
   1c9e0:	ffddee13 5b2effff 447400a5 25973577     .......[..tDw5.%
   1c9f0:	25982598 25b825b8 25b825b8 25b825b8     .%.%.%.%.%.%.%.%
   1ca00:	25772598 34333d98 294800a6 ffddef5d     .%w%.=34..H)]...
   1ca10:	dc89edf1 fc68f489 fc67fc67 fc67fc67     ......h.g.g.g.g.
   1ca20:	ec89fc68 ff38dced e5f2ffdb fc88dc8a     h.....8.........
   1ca30:	fc67fc88 fc67fc67 fc68fc67 dcecec89     ..g.g.g.g.h.....
   1ca40:	ffdcff39 dcabfed6 fc67f489 fc67fc67     9.........g.g.g.
   1ca50:	fc67fc67 f489fc68 fe53dc8a fef7ffdb     g.g.h.....S.....
   1ca60:	f489dcab fc67fc68 fc87fc87 fc67fc67     ....h.g.....g.g.
   1ca70:	e48afc88 ffdcf655 dd6fff9a fc88e489     ....U.....o.....
   1ca80:	fc67fc68 fc67fc67 fc88fc67 f54eec49     h.g.g.g.g...I.N.
   1ca90:	ff99ffba ec89ed6e fc67f488 fc67fc67     ....n.....g.g.g.
   1caa0:	fc67fc67 ec89fc68 ff99e54f ee75ffdb     g.g.h...O.....u.
   1cab0:	e489d48b fc68f488 fc67fc67 fc67fc67     ......h.g.g.g.g.
   1cac0:	fc67fc68 fc68fc68 fc88fc68 fc68fc88     h.g.h.h.h.....h.
   1cad0:	fc89fc68 ec8bfc89 ff9be591 4a2bffbf     h.............+J
   1cae0:	22ce0044 25974578 25b82598 25b825b8     D.."xE.%.%.%.%.%
   1caf0:	25b825b8 25982598 25b825b8 25b825b8     .%.%.%.%.%.%.%.%
   1cb00:	25b825b8 25b825b8 25b825b8 25b825b8     .%.%.%.%.%.%.%.%
   1cb10:	25b825b8 25b825b8 1d981db8 155725b8     .%.%.%.%.....%W.
   1cb20:	25b825b8 1db81db8 1db81db8 25b825b8     .%.%.........%.%
   1cb30:	25b81d97 25b825b8 25b825b8 25b825b8     ...%.%.%.%.%.%.%
   1cb40:	25b825b8 25b825b8 25b825b8 25b825b8     .%.%.%.%.%.%.%.%
   1cb50:	25b825b8 25b825b8 25b825b8 25b825b8     .%.%.%.%.%.%.%.%
   1cb60:	25b825b8 357725b7 09894cf6 94330024     .%.%.%w5.L..$.3.
   1cb70:	ff18ffff ec89dccc fc67fc68 fc67fc67     ........h.g.g.g.
   1cb80:	fc67fc67 e48afc88 ffdcee13 e5b0ffba     g.g.............
   1cb90:	fc88e489 fc67fc68 fc67fc67 fc88fc67     ....h.g.g.g.g...
   1cba0:	e52dec69 ffdbff9a e489ed90 fc88f489     i.-.............
   1cbb0:	fc67fc67 fc67fc67 fc88fc67 db43f427     g.g.g.g.g...'.C.
   1cbc0:	e385d323 fc67fc68 fc67fc47 fc67fc67     #...h.g.G.g.g.g.
   1cbd0:	fc88fc67 e50dec89 ffdcff7a dc8bfeb5     g.......z.......
   1cbe0:	fc87f4a9 fc67fc67 fc67fc68 fc67fc67     ....g.g.h.g.g.g.
   1cbf0:	e385fc68 db43db03 fc67f426 fc67fc67     h.....C.&.g.g.g.
   1cc00:	fc67fc67 fc67fc67 fc67fc67 fc67fc67     g.g.g.g.g.g.g.g.
   1cc10:	e364fc47 e364db24 fc47fc47 fc67fc67     G.d.$.d.G.G.g.g.
   1cc20:	fc68fc68 fc68fc68 dc89f488 ffdbee33     h.h.h.h.....3...
   1cc30:	dccdff37 fc68f469 fc67fc67 fc67fc67     7...i.h.g.g.g.g.
   1cc40:	f488fc67 f612dc6a ff18ffdb f469e4ec     g...j.........i.
   1cc50:	fc68fc88 fc67fc67 fc68fc67 dc69fc88     ..h.g.g.g.h...i.
   1cc60:	ffddee13 5b2effff 447400a5 25973577     .......[..tDw5.%
   1cc70:	25982598 25b825b8 25b825b8 25b825b8     .%.%.%.%.%.%.%.%
   1cc80:	25772598 34333d98 294800a6 ffddef5d     .%w%.=34..H)]...
   1cc90:	dc89edf1 fc67f489 fc67fc67 fc67fc67     ......g.g.g.g.g.
   1cca0:	ec89fc68 ff58dced ee13ffdb fc88e48a     h.....X.........
   1ccb0:	fc67fc68 fc67fc67 fc88fc67 e4ccec89     h.g.g.g.g.......
   1ccc0:	ffdcff39 dcabfed6 fc67f4a9 fc87fc67     9.........g.g...
   1ccd0:	fc67fc67 f489fc68 fe53dc8a fef7ffdb     g.g.h.....S.....
   1cce0:	f489dcab fc67fc68 fc87fc67 fc68fc67     ....h.g.g...g.h.
   1ccf0:	e48afc88 ffdcf655 dd6fffba fc88e469     ....U.....o.i...
   1cd00:	fc67fc68 fc67fc67 f488fc67 ed4ee469     h.g.g.g.g...i.N.
   1cd10:	ffbaffba e469e54f fc67f488 fc67fc67     ....O.i...g.g.g.
   1cd20:	fc67fc67 ec69fc68 ff99e56f f674ffdb     g.g.h.i.o.....t.
   1cd30:	f4a9dcaa fc67fc88 fc67fc67 fc68fc67     ......g.g.g.g.h.
   1cd40:	fc68fc67 db24e364 e324db24 e324e324     g.h.d.$.$.$.$.$.
   1cd50:	e324e324 c326db25 ff9cccae 4a2bffbf     $.$.%.&.......+J
   1cd60:	22ce0044 25774578 25b82597 25b825b8     D.."xEw%.%.%.%.%
   1cd70:	25b825b8 25982598 25b825b8 25b825b8     .%.%.%.%.%.%.%.%
   1cd80:	25b825b8 25b825b8 25b825b8 25b825b8     .%.%.%.%.%.%.%.%
   1cd90:	25b825b8 25b825b8 1d981db8 155725b8     .%.%.%.%.....%W.
   1cda0:	25b825b8 25b825b8 25b825b8 25b825b8     .%.%.%.%.%.%.%.%
   1cdb0:	25b825b8 25b825b8 25b825b8 25b825b8     .%.%.%.%.%.%.%.%
   1cdc0:	25b825b8 25b825b8 25b825b8 25b825b8     .%.%.%.%.%.%.%.%
   1cdd0:	25b825b8 25b825b8 25b825b8 25b825b8     .%.%.%.%.%.%.%.%
   1cde0:	25b825b8 357725b7 09894cd6 94330024     .%.%.%w5.L..$.3.
   1cdf0:	ff18ffff ec89dccc fc67fc68 fc67fc67     ........h.g.g.g.
   1ce00:	fc87fc87 e46afc88 ffdbee13 e5b0ffbb     ......j.........
   1ce10:	fc88e469 fc67fc67 fc68fc67 fc68fc68     i...g.g.g.h.h.h.
   1ce20:	e50dec89 ffdbff9a e469f5b0 fc67f488     ..........i...g.
   1ce30:	fc67fc67 fc87fc67 fc67fc87 b220ebe7     g.g.g.....g... .
   1ce40:	cae3b200 fc68fc68 fc68fc67 fc47fc67     ....h.h.g.h.g.G.
   1ce50:	fc68fc67 e50dec89 ffdcff7a dc8bfe95     g.h.....z.......
   1ce60:	fc68f489 fc67fc87 fc87fc67 fc67fc67     ..h...g.g...g.g.
   1ce70:	c2c2fc89 b241b200 fc88ec06 fc68fc88     ......A.......h.
   1ce80:	fc67fc67 fc87fc67 fc67fc67 fc68fc67     g.g.g...g.g.g.h.
   1ce90:	ba61f427 c262b201 fc67f427 fc68fc68     '.a...b.'.g.h.h.
   1cea0:	fc68fc68 fc88fc67 dc89fc88 ffdbee33     h.h.g.......3...
   1ceb0:	dccdff37 fc67ec89 fc67fc67 fc67fc67     7.....g.g.g.g.g.
   1cec0:	f488fc67 fe12dc69 ff38ffdb f489e4cc     g...i.....8.....
   1ced0:	fc67fc88 fc67fc67 fc67fc67 e469fc88     ..g.g.g.g.g...i.
   1cee0:	ffddee13 5b2effff 447400a5 25973577     .......[..tDw5.%
   1cef0:	25982598 25b825b8 25b825b8 25b825b8     .%.%.%.%.%.%.%.%
   1cf00:	257725b8 34133d78 292700a6 ffddef5d     .%w%x=.4..')]...
   1cf10:	dc89edd1 fc67f488 fc67fc67 fc87fc67     ......g.g.g.g...
   1cf20:	ec89fc68 ff38dced ee13ffdb fc88e48a     h.....8.........
   1cf30:	fc67fc68 fc67fc67 fc68fc67 e4ccec89     h.g.g.g.g.h.....
   1cf40:	fffcff39 d4cbfed6 fc67f489 fc67fc67     9.........g.g.g.
   1cf50:	fc67fc67 f489fc67 f653dc8a fef7ffdb     g.g.g.....S.....
   1cf60:	f489dcab fc67fc68 fc67fc67 fc68fc67     ....h.g.g.g.g.h.
   1cf70:	e48af468 ffdcf675 dd6fff9a fc88e469     h...u.....o.i...
   1cf80:	fc67fc68 fc67fc67 f488fc87 ed4eec69     h.g.g.g.....i.N.
   1cf90:	ff9affbb e449ed4f fc67fc88 fc67fc67     ....O.I...g.g.g.
   1cfa0:	fc68fc67 ec6afc68 ff9ae54f f674ffdb     g.h.h.j.O.....t.
   1cfb0:	f488dc8a fc67fc68 fc67fc67 fc68fc67     ....h.g.g.g.g.h.
   1cfc0:	fc47fc67 c241caa2 c221ca21 ca21ca21     g.G...A.!.!.!.!.
   1cfd0:	c201ca21 aa03c222 ff9cbbec 4a2bff9f     !...".........+J
   1cfe0:	22ce0045 25774578 25b82598 25b825b8     E.."xEw%.%.%.%.%
   1cff0:	25b825b8 25b825b8 25b825b8 25982598     .%.%.%.%.%.%.%.%
   1d000:	25b825b8 25b825b8 25b825b8 25b825b8     .%.%.%.%.%.%.%.%
   1d010:	25b825b8 25b825b8 1d981db8 155725b8     .%.%.%.%.....%W.
   1d020:	25b825b8 25b825b8 25b825b8 25b825b8     .%.%.%.%.%.%.%.%
   1d030:	25b825b8 25b825b8 25b825b8 25b825b8     .%.%.%.%.%.%.%.%
   1d040:	25b825b8 25b825b8 25b825b8 25b825b8     .%.%.%.%.%.%.%.%
   1d050:	25b825b8 25b825b8 25b825b8 25b825b8     .%.%.%.%.%.%.%.%
   1d060:	25b825b8 357725b7 09894cd6 94330024     .%.%.%w5.L..$.3.
   1d070:	ff18ffff ec89dccc fc67fc68 fc67fc67     ........h.g.g.g.
   1d080:	fc87fc87 e46afc88 ffdbee13 e590ffda     ......j.........
   1d090:	fc88e469 fc67fc67 fc68fc67 fc88fc68     i...g.g.g.h.h...
   1d0a0:	e50dec89 ffdbff9a e469f5b0 fc67fc88     ..........i...g.
   1d0b0:	fc67fc67 fc67fc67 fc88fc67 c326e428     g.g.g.g.g...(.&.
   1d0c0:	cb87bb06 f467f468 fc67fc67 fc47fc67     ....h.g.g.g.g.G.
   1d0d0:	f488fc67 e50dec69 ffdcff7a dc8bfe95     g...i...z.......
   1d0e0:	fc68f489 fc67fc67 fc87fc67 f488fc67     ..h.g.g.g...g...
   1d0f0:	cb86f469 c346bb06 f488ec48 fc88fc68     i.....F.H...h...
   1d100:	fc67fc67 fc87fc67 fc67fc67 f488fc68     g.g.g...g.g.h...
   1d110:	cb66f469 c346bb06 fc88f468 fc68fc68     i.f...F.h...h.h.
   1d120:	fc68fc68 fc68fc68 dc6afc88 ffdbee33     h.h.h.h...j.3...
   1d130:	dcedff37 fc68ec89 fc67fc67 fc67fc67     7.....h.g.g.g.g.
   1d140:	f488fc67 f56fec69 fe13fe75 f489ecab     g...i.o.u.......
   1d150:	fc67fc68 fc67fc67 fc67fc67 e469fc88     h.g.g.g.g.g...i.
   1d160:	ffddee13 5b2effff 447500a5 25983578     .......[..uDx5.%
   1d170:	25b725b7 25b825b8 25b825b8 25b825b8     .%.%.%.%.%.%.%.%
   1d180:	257725b8 34333d98 5ace0065 ffbcffdf     .%w%.=34e..Z....
   1d190:	dc89edf1 fc67f488 fc67fc67 fc87fc67     ......g.g.g.g...
   1d1a0:	ec89fc88 ff38dced ee13ffdb fc88e48a     ......8.........
   1d1b0:	fc67fc67 fc67fc67 fc68fc67 e4ecf469     g.g.g.g.g.h.i...
   1d1c0:	fffcff39 d4cbfed6 fc67f489 fc67fc67     9.........g.g.g.
   1d1d0:	fc67fc67 f489fc47 f653dc8a fef7ffdb     g.g.G.....S.....
   1d1e0:	f489dcab fc67fc68 fc67fc67 fc68fc67     ....h.g.g.g.g.h.
   1d1f0:	e48af468 ffdcf675 dd4fffba fc88e469     h...u.....O.i...
   1d200:	fc67fc67 fc67fc67 f488fc87 ed2eec69     g.g.g.g.....i...
   1d210:	ff9bffbb e469ed4f fc67fc88 fc67fc67     ....O.i...g.g.g.
   1d220:	fc68fc67 ec8afc88 ff9ae54f f674ffdb     g.h.....O.....t.
   1d230:	fc88dc6a fc67fc68 fc67fc67 fc68fc68     j...h.g.g.g.h.h.
   1d240:	f468fc67 aa22bac4 b243b243 b244b244     g.h...".C.C.D.D.
   1d250:	b224b244 9a24b244 ffbdabed 4a4bffbf     D.$.D.$.......KJ
   1d260:	22ce0045 25774578 25b82598 25b825b8     E.."xEw%.%.%.%.%
   1d270:	25b825b8 25b825b8 25b825b8 25982598     .%.%.%.%.%.%.%.%
   1d280:	25b825b8 25b825b8 25b825b8 25b825b8     .%.%.%.%.%.%.%.%
   1d290:	25b825b8 25b825b8 1d981db8 155725b8     .%.%.%.%.....%W.
   1d2a0:	25b825b8 25b825b8 25b825b8 25b825b8     .%.%.%.%.%.%.%.%
   1d2b0:	25b825b8 25b825b8 25b825b8 25b825b8     .%.%.%.%.%.%.%.%
   1d2c0:	25b825b8 25b825b8 25b825b8 25b825b8     .%.%.%.%.%.%.%.%
   1d2d0:	25b825b8 25b825b8 25b825b8 25b825b8     .%.%.%.%.%.%.%.%
   1d2e0:	25b825b8 357725b7 09894cd6 94330024     .%.%.%w5.L..$.3.
   1d2f0:	ff18ffff ec89dccc fc67fc68 fc67fc67     ........h.g.g.g.
   1d300:	fc87fc87 e48afc88 ffdbee13 e590ffba     ................
   1d310:	fc88e489 fc67fc68 fc68fc67 f488fc68     ....h.g.g.h.h...
   1d320:	e50dec89 ffdbff9a e469f5b0 fc67fc68     ..........i.h.g.
   1d330:	fc67fc67 fc67fc67 ec68fc67 fed5eced     g.g.g.g.g.h.....
   1d340:	fe52ff37 f488e489 fc67fc68 fc67fc67     7.R.....h.g.g.g.
   1d350:	f488fc67 e50dec69 ffdcff7a dc8bfe95     g...i...z.......
   1d360:	fc68f489 fc67fc87 fc67fc67 fc89fc88     ..h...g.g.g.....
   1d370:	fe32e48a ff16ff58 f469eccc fc68fc68     ..2.X.....i.h.h.
   1d380:	fc67fc67 fc68fc67 fc67fc68 f489fc68     g.g.g.h.h.g.h...
   1d390:	fe73e4cb feb5ff17 f489eccb fc47fc68     ..s.........h.G.
   1d3a0:	fc67fc47 fc68fc68 dc69fc88 ffdbee33     G.g.h.h...i.3...
   1d3b0:	dcedff37 fc68ec89 fc67fc67 fc67fc67     7.....h.g.g.g.g.
   1d3c0:	fc68fc67 d386f489 bac4aa83 fc68f469     g.h.........i.h.
   1d3d0:	fc68fc68 fc67fc67 fc67fc67 e469fc88     h.h.g.g.g.g...i.
   1d3e0:	ffddee13 5b0effdf 44750085 25973d78     .......[..uDx=.%
   1d3f0:	25b725b7 1db825b8 1db81db8 25b825b8     .%.%.%.......%.%
   1d400:	257725b8 34333d78 73700044 ffbcffff     .%w%x=34D.ps....
   1d410:	dc89edd1 fc67f488 fc67fc67 fc87fc67     ......g.g.g.g...
   1d420:	ec89fc88 ff38dced ee13ffdb fc88e48a     ......8.........
   1d430:	fc67fc67 fc67fc67 fc68fc67 e4ecec89     g.g.g.g.g.h.....
   1d440:	fffcff39 dcabfed6 fc67f489 fc67fc67     9.........g.g.g.
   1d450:	fc67fc67 f489fc67 fe53dc8a ff17ffdb     g.g.g.....S.....
   1d460:	f489dcab fc67fc68 fc67fc67 fc68fc67     ....h.g.g.g.g.h.
   1d470:	e48af468 ffdcf675 dd6fffba fc88e489     h...u.....o.....
   1d480:	fc67fc67 fc67fc67 fc88fc67 ed4eec89     g.g.g.g.g.....N.
   1d490:	ffbaffbb e469ed6f fc67f488 fc67fc67     ....o.i...g.g.g.
   1d4a0:	fc68fc67 ec8afc88 ff9ae54f f674ffdb     g.h.....O.....t.
   1d4b0:	fc88dc6a fc67fc68 fc67fc67 fc68fc68     j...h.g.g.g.h.h.
   1d4c0:	ecaaf468 edf3f590 edf4edf4 edf5edf5     h...............
   1d4d0:	edf5f5f5 e5d5edf5 ffbee678 4a2bff9f     ........x.....+J
   1d4e0:	22ce0044 25974578 25b82598 25b825b8     D.."xE.%.%.%.%.%
   1d4f0:	25b825b8 25b825b8 25b825b8 25b825b8     .%.%.%.%.%.%.%.%
   1d500:	25b825b8 25b825b8 25b825b8 25b825b8     .%.%.%.%.%.%.%.%
   1d510:	25b825b8 25b825b8 1d981db8 155725b8     .%.%.%.%.....%W.
   1d520:	25b825b8 25b825b8 25b825b8 25b825b8     .%.%.%.%.%.%.%.%
   1d530:	25b825b8 25b825b8 25b825b8 25b825b8     .%.%.%.%.%.%.%.%
   1d540:	25b825b8 25b825b8 25b825b8 25b825b8     .%.%.%.%.%.%.%.%
   1d550:	25b825b8 25b825b8 25b825b8 25b825b8     .%.%.%.%.%.%.%.%
   1d560:	25b825b8 357725b7 09894cd6 94330024     .%.%.%w5.L..$.3.
   1d570:	ff18ffff ec89dccc fc67fc68 fc67fc67     ........h.g.g.g.
   1d580:	fc87fc87 e48afc88 ffdbee13 e590ffba     ................
   1d590:	fc88e489 fc67fc67 fc68fc67 fc88fc68     ....g.g.g.h.h...
   1d5a0:	e50dec89 ffdbff9a e469f5b0 fc67fc68     ..........i.h.g.
   1d5b0:	fc67fc67 fc67fc67 ec69fc68 ff79e50e     g.g.g.g.h.i...y.
   1d5c0:	feb5ffbb f488e48a fc68fc68 fc67fc67     ........h.h.g.g.
   1d5d0:	f488fc67 e50dec69 ffdcff7a dc8bfe95     g...i...z.......
   1d5e0:	fc67f489 fc67fc87 fc67fc67 f489fc68     ..g...g.g.g.h...
   1d5f0:	fe94e4ab ff99ffdb ec69e50d fc47fc68     ..........i.h.G.
   1d600:	fc67fc67 fc68fc67 fc67fc68 ec89fc68     g.g.g.h.h.g.h...
   1d610:	ff16dccc ff38ffdb f469e4ab fc68fc68     ......8...i.h.h.
   1d620:	fc67fc67 fc68fc68 dc6afc88 ffdbee33     g.g.h.h...j.3...
   1d630:	dcedff37 fc68ec89 fc67fc67 fc67fc67     7.....h.g.g.g.g.
   1d640:	fc67fc67 db64fc88 c282b220 fc68f427     g.g...d. ...'.h.
   1d650:	fc68fc68 fc67fc67 fc67fc67 e469fc88     h.h.g.g.g.g...i.
   1d660:	ffddee13 5b2effdf 447500a5 25983578     .......[..uDx5.%
   1d670:	25b82598 1db81db8 1db81db8 25b825b8     .%.%.........%.%
   1d680:	257725b8 34333d78 6b4f0064 ffbcffff     .%w%x=34d.Ok....
   1d690:	dc89edd1 fc67f488 fc67fc67 fc87fc67     ......g.g.g.g...
   1d6a0:	ec89fc88 ff38dced ee13ffdb fc88e48a     ......8.........
   1d6b0:	fc67fc67 fc67fc67 fc68fc67 e4ecec89     g.g.g.g.g.h.....
   1d6c0:	fffcff39 dcabfed6 fc67f489 fc67fc67     9.........g.g.g.
   1d6d0:	fc67fc67 f489fc67 fe53dc8a ff17ffdb     g.g.g.....S.....
   1d6e0:	f489dcab fc67fc68 fc67fc67 fc68fc67     ....h.g.g.g.g.h.
   1d6f0:	e48af468 ffdcf675 dd6fffba fc88e489     h...u.....o.....
   1d700:	fc67fc67 fc67fc67 fc87fc66 f54eec69     g.g.g.g.f...i.N.
   1d710:	ff79ff99 ec89ed6e fc67fc88 fc67fc67     ..y.n.....g.g.g.
   1d720:	fc68fc67 ec8afc88 ff9ae54f f674ffdb     g.h.....O.....t.
   1d730:	fc88dc6a fc67fc68 fc87fc67 fc68fc68     j...h.g.g...h.h.
   1d740:	e4abf468 ffdcfef7 ffdeffde ffdfffdf     h...............
   1d750:	ffdfffdf ffdfffdf ffffffff 4a4cffdf     ..............LJ
   1d760:	22ce0045 25973d78 25b82598 1d9825b8     E.."x=.%.%.%.%..
   1d770:	25b825b8 25b825b8 25b825b8 25b825b8     .%.%.%.%.%.%.%.%
   1d780:	25b825b8 25b825b8 25b825b8 25b825b8     .%.%.%.%.%.%.%.%
   1d790:	25b825b8 25b825b8 1d981db8 155725b8     .%.%.%.%.....%W.
   1d7a0:	25b825b8 25b825b8 25b825b8 25b825b8     .%.%.%.%.%.%.%.%
   1d7b0:	25b825b8 25b825b8 25b825b8 25b825b8     .%.%.%.%.%.%.%.%
   1d7c0:	25b825b8 25b825b8 25b825b8 25b825b8     .%.%.%.%.%.%.%.%
   1d7d0:	25b825b8 25b825b8 25b825b8 25b825b8     .%.%.%.%.%.%.%.%
   1d7e0:	25b825b8 357725b7 09894cd6 94330024     .%.%.%w5.L..$.3.
   1d7f0:	ff18ffff ec89dccc fc67fc68 fc67fc67     ........h.g.g.g.
   1d800:	fc87fc87 e48afc88 ffdbee13 e590ffba     ................
   1d810:	fc88e489 fc67fc67 fc67fc67 f488fc67     ....g.g.g.g.g...
   1d820:	e52dec69 ffdbff7a e469edb0 fc67fc68     i.-.z.....i.h.g.
   1d830:	fc68fc68 fc68fc88 ec89fc67 ff59e50e     h.h...h.g.....Y.
   1d840:	feb6ffdc f489dc8b fc47fc68 fc67fc67     ........h.G.g.g.
   1d850:	f488fc67 e50dec69 ffdcff7a dc8bfe95     g...i...z.......
   1d860:	fc68f489 fc87fc87 fc68fc67 f489fc68     ..h.....g.h.h...
   1d870:	fe95dc8b ff59ffbc ec69e4ed fc68fc68     ......Y...i.h.h.
   1d880:	fc68fc67 fc68fc68 fc67fc87 ec89fc68     g.h.h.h...g.h...
   1d890:	ff17dccc ff18ffdc f469e4ac fc87fc88     ..........i.....
   1d8a0:	fc88fc88 fc67fc67 e48afc88 ffdbee33     ....g.g.....3...
   1d8b0:	dcecff37 fc68ec89 fc67fc67 fc67fc67     7.....h.g.g.g.g.
   1d8c0:	fc67fc67 eba5fc68 db23cac2 fc68fc47     g.g.h.....#.G.h.
   1d8d0:	fc67fc67 fc87fc87 fc67fc67 e469fc88     g.g.....g.g...i.
   1d8e0:	ffddee13 532effff 44d60107 25983578     .......S...Dx5.%
   1d8f0:	25b82598 259825b8 25b825b8 25b825b8     .%.%.%.%.%.%.%.%
   1d900:	257725b8 34333d98 6b4f0044 ffbcffff     .%w%.=34D.Ok....
   1d910:	e489edd1 fc67fca9 fc67fc68 fc67fc67     ......g.h.g.g.g.
   1d920:	ec89fc88 ff38dced ee13ffdb fc88e48a     ......8.........
   1d930:	fc67fc67 fc67fc67 fc68fc67 e4ecf469     g.g.g.g.g.h.i...
   1d940:	fffcff39 dcabfed6 fc67f489 fc67fc67     9.........g.g.g.
   1d950:	fc67fc67 f489fc67 fe53dc8a fef7ffdb     g.g.g.....S.....
   1d960:	f489dcab fc67fc68 fc67fc67 fc68fc67     ....h.g.g.g.g.h.
   1d970:	e48af468 ffdcf675 dd6fff9a fc88ec89     h...u.....o.....
   1d980:	fc67fc67 fc67fc67 fc67fc67 f50cf469     g.g.g.g.g.g.i...
   1d990:	fe72fe93 ec88f50b fc67fc88 fc67fc67     ..r.......g.g.g.
   1d9a0:	fc87fc67 ec8afc88 ff9ae570 f674ffdb     g.......p.....t.
   1d9b0:	fc88dc6a fc67fc68 fc87fc67 fc68fc68     j...h.g.g...h.h.
   1d9c0:	dc8bf489 ffddfef7 bd97e6db c578bd98     ..............x.
   1d9d0:	c598c598 bd98c598 bdb9bdb8 39cabd99     ...............9
   1d9e0:	22ce0066 25974578 25b825b8 25b825b8     f.."xE.%.%.%.%.%
   1d9f0:	25b825b8 25b825b8 25b825b8 25982598     .%.%.%.%.%.%.%.%
   1da00:	25b825b8 25b825b8 25b825b8 25b825b8     .%.%.%.%.%.%.%.%
   1da10:	25b825b8 25b825b8 1d981db8 155725b8     .%.%.%.%.....%W.
   1da20:	25b825b8 25b825b8 25b825b8 25b825b8     .%.%.%.%.%.%.%.%
   1da30:	25b825b8 25b825b8 25b825b8 25b825b8     .%.%.%.%.%.%.%.%
   1da40:	25b825b8 25b825b8 25b825b8 25b825b8     .%.%.%.%.%.%.%.%
   1da50:	25b825b8 25b825b8 25b825b8 25b825b8     .%.%.%.%.%.%.%.%
   1da60:	25b825b8 357725b7 09894cd6 94330024     .%.%.%w5.L..$.3.
   1da70:	ff18ffff ec89dccc fc67fc68 fc67fc67     ........h.g.g.g.
   1da80:	fc87fc87 e48afc88 ffdbee13 e590ffbb     ................
   1da90:	f488e489 fc67fc67 fc67fc67 f488fc67     ....g.g.g.g.g...
   1daa0:	e52dec69 ffdbff7a e469ed90 fc67fc68     i.-.z.....i.h.g.
   1dab0:	fc67fc68 fc67fc67 ec69fc88 ff59dd0e     h.g.g.g...i...Y.
   1dac0:	f696ffdc f468dc8b fc47fc68 fc67fc47     ......h.h.G.G.g.
   1dad0:	fc88fc67 e50eec89 ffdcff7a dc8bfeb5     g.......z.......
   1dae0:	fc67f489 fc67fc87 fc67fc67 f489fc68     ..g...g.g.g.h...
   1daf0:	fe95dc8b ff5affdc ec89e50d fc67fc88     ......Z.......g.
   1db00:	fc67fc67 fc68fc68 fc67fc87 ec69fc67     g.g.h.h...g.g.i.
   1db10:	fef7dccc ff18ffdc f489e4ac fc87fc88     ................
   1db20:	fc67fc67 fc67fc67 e48afc88 ffdbee33     g.g.g.g.....3...
   1db30:	dcecff37 fc68ec89 fc67fc67 fc67fc67     7.....h.g.g.g.g.
   1db40:	fc67fc67 fc47fc68 fc67fc47 fc67fc67     g.g.h.G.G.g.g.g.
   1db50:	fc87fc67 fc87fc87 fc67fc67 e469fc88     g.......g.g...i.
   1db60:	fffdee13 4b0dffff 4d78128c 25982d57     .......K..xMW-.%
   1db70:	25b825b8 25982598 25b825b8 25b825b8     .%.%.%.%.%.%.%.%
   1db80:	259725b8 34333d78 6b4f0044 ffdcffff     .%.%x=34D.Ok....
   1db90:	e489edd1 fc67fca9 fc67fc68 fc67fc67     ......g.h.g.g.g.
   1dba0:	ec89fc88 ff38dced ee13ffdb fc88e48a     ......8.........
   1dbb0:	fc67fc67 fc67fc67 fc68fc67 e4ccec69     g.g.g.g.g.h.i...
   1dbc0:	fffcff39 dcabfef6 fc67f489 fc67fc67     9.........g.g.g.
   1dbd0:	fc67fc67 f489fc67 fe53dc8a fef7ffdb     g.g.g.....S.....
   1dbe0:	f489dcab fc67fc68 fc67fc67 fc68fc67     ....h.g.g.g.g.h.
   1dbf0:	e48af468 ffdcf675 dd6fff9a fc68ec89     h...u.....o...h.
   1dc00:	fc67fc68 fc67fc67 fc67fc67 ec89f468     h.g.g.g.g.g.h...
   1dc10:	dc89dc8a f488ec88 fc67fc67 fc67fc67     ........g.g.g.g.
   1dc20:	fc87fc67 ec8afc88 ff9ae570 f675ffdc     g.......p.....u.
   1dc30:	fc88dc6a fc67fc68 fc67fc67 fc88fc68     j...h.g.g.g.h...
   1dc40:	dcabf489 fffefed7 0002a4d4 08441064     ............d.D.
   1dc50:	00640844 00640065 00640064 08c70065     D.d.e.d.d.d.e...
   1dc60:	12ae00a7 25983d98 25b825b8 25b825b8     .....=.%.%.%.%.%
   1dc70:	25b825b8 25b825b8 25b825b8 25982598     .%.%.%.%.%.%.%.%
   1dc80:	25b825b8 25b825b8 25b825b8 25b825b8     .%.%.%.%.%.%.%.%
   1dc90:	25b825b8 25b825b8 1d981db8 155725b8     .%.%.%.%.....%W.
   1dca0:	25b825b8 25b825b8 25b825b8 25b825b8     .%.%.%.%.%.%.%.%
   1dcb0:	25b825b8 25b825b8 25b825b8 25b825b8     .%.%.%.%.%.%.%.%
   1dcc0:	25b825b8 25b825b8 25b825b8 25b825b8     .%.%.%.%.%.%.%.%
   1dcd0:	25b825b8 25b825b8 25b825b8 25b825b8     .%.%.%.%.%.%.%.%
   1dce0:	25b825b8 357725b7 09894cd6 94330024     .%.%.%w5.L..$.3.
   1dcf0:	ff18ffff ec89dccc fc67fc68 fc67fc67     ........h.g.g.g.
   1dd00:	fc87fc87 e48afc88 ffdbee13 e590ffbb     ................
   1dd10:	fc88e489 fc67fc67 fc67fc67 f488fc67     ....g.g.g.g.g...
   1dd20:	e52dec69 ffdbff7a e469f5b0 fc67fc88     i.-.z.....i...g.
   1dd30:	fc67fc68 fc47fc47 ec89fc88 ff79dd2e     h.g.G.G.......y.
   1dd40:	f696ffdc f468dc8b fc67fc68 fc67fc67     ......h.h.g.g.g.
   1dd50:	fc88fc67 e50eec69 ffdcff7a dc8bfe95     g...i...z.......
   1dd60:	fc67f489 fc67fc87 fc67fc67 f489fc68     ..g...g.g.g.h...
   1dd70:	fe95dc8b ff7affdc ec89e52d fc67f488     ......z.-.....g.
   1dd80:	fc67fc67 fc67fc88 fc68fc67 ec89fc67     g.g...g.g.h.g...
   1dd90:	fef7dccc ff39ffdc f489e4ac fc67fc88     ......9.......g.
   1dda0:	fc67fc47 fc67fc67 e48afc88 ffdbee34     G.g.g.g.....4...
   1ddb0:	dcecff37 fc68ec89 fc67fc67 fc67fc67     7.....h.g.g.g.g.
   1ddc0:	fc67fc67 fc47fc67 fc67fc47 fc67fc67     g.g.g.G.G.g.g.g.
   1ddd0:	fc67fc67 fc67fc67 fc67fc67 e469fc88     g.g.g.g.g.g...i.
   1dde0:	fffdee13 536fffff 45783c32 25b82d77     ......oS2<xEw-.%
   1ddf0:	1db825b8 1db81db8 25b825b8 25b825b8     .%.......%.%.%.%
   1de00:	259725b8 34333d78 6b500044 ffdcffff     .%.%x=34D.Pk....
   1de10:	e489edd1 fc67fc89 fc87fc68 fc87fc67     ......g.h...g...
   1de20:	ec89fc88 ff38dced ee13ffdb fc88e48a     ......8.........
   1de30:	fc67fc67 fc67fc67 fc68fc67 e4ecf469     g.g.g.g.g.h.i...
   1de40:	fffcff39 dcabfef6 fc67f489 fc67fc67     9.........g.g.g.
   1de50:	fc67fc67 f489fc67 fe53dc8a fef7ffdb     g.g.g.....S.....
   1de60:	f489dcab fc67fc68 fc67fc67 fc68fc67     ....h.g.g.g.g.h.
   1de70:	e48afc68 ffdcf655 dd6fff9a fc68e489     h...U.....o...h.
   1de80:	fc47fc68 fc67fc67 fc67fc67 f468fc68     h.G.g.g.g.g.h.h.
   1de90:	ec88f4a8 fc88f488 fc67fc67 fc67fc67     ........g.g.g.g.
   1dea0:	fc87fc67 e48afc88 ff9ae56f f675ffdc     g.......o.....u.
   1deb0:	fc88dc6a fc67fc68 fc67fc47 fc88fc87     j...h.g.G.g.....
   1dec0:	dcabf489 fffef6d7 0843ad15 11491107     ..........C...I.
   1ded0:	09a90989 01a909aa 09aa01a9 01aa01aa     ................
   1dee0:	23f201aa 25973598 25b825b8 25b825b8     ...#.5.%.%.%.%.%
   1def0:	25b825b8 25b825b8 25982598 25b825b8     .%.%.%.%.%.%.%.%
   1df00:	25b825b8 25b825b8 25b825b8 25b825b8     .%.%.%.%.%.%.%.%
   1df10:	25b825b8 25b825b8 1d981db8 155725b8     .%.%.%.%.....%W.
   1df20:	25b825b8 25b825b8 25b825b8 25b825b8     .%.%.%.%.%.%.%.%
   1df30:	25b825b8 25b825b8 25b825b8 25b825b8     .%.%.%.%.%.%.%.%
   1df40:	25b825b8 25b825b8 25b825b8 25b825b8     .%.%.%.%.%.%.%.%
   1df50:	25b825b8 25b825b8 25b825b8 25b825b8     .%.%.%.%.%.%.%.%
   1df60:	25b825b8 357725b7 09894cd6 94330024     .%.%.%w5.L..$.3.
   1df70:	ff18ffff ec89dccc fc67fc68 fc67fc67     ........h.g.g.g.
   1df80:	fc67fc87 e48afc88 ffdbee13 e590ffbb     ..g.............
   1df90:	fc88e489 fc67fc67 fc67fc67 f488fc67     ....g.g.g.g.g...
   1dfa0:	e52dec69 ffdbff7a e489f5b0 fc67fc89     i.-.z.........g.
   1dfb0:	fc67fc68 fc67fc67 ec89fc68 ff79dd2e     h.g.g.g.h.....y.
   1dfc0:	f6b6ffdc f489dc8b fc67fc68 fc67fc67     ........h.g.g.g.
   1dfd0:	fc88fc67 e50dec69 ffdcff7a dc8bfe95     g...i...z.......
   1dfe0:	fc68f489 fc67fc67 fc67fc67 f489fc67     ..h.g.g.g.g.g...
   1dff0:	fe95dc8b ff7affdc ec89e50d fc67f488     ......z.......g.
   1e000:	fc67fc67 fc67fc68 fc68fc67 ec89fc88     g.g.h.g.g.h.....
   1e010:	fef6dcac ff39ffdc f489e4cc fc67fc68     ......9.....h.g.
   1e020:	fc68fc67 fc67fc67 e48afc88 ffdbee34     g.h.g.g.....4...
   1e030:	dcecff37 fc88ec89 fc67fc67 fc67fc67     7.......g.g.g.g.
   1e040:	fc67fc67 fc67fc67 fc67fc67 fc68fc67     g.g.g.g.g.g.g.h.
   1e050:	fc68fc68 fc67fc67 fc67fc67 e469fc88     h.h.g.g.g.g...i.
   1e060:	fffdee13 4b4effff 4598130e 25b82577     ......NK...Ew%.%
   1e070:	1db81db8 1db81db8 25b825b8 25b825b8     .........%.%.%.%
   1e080:	259725b8 34333598 6b4f0044 ffdcffff     .%.%.534D.Ok....
   1e090:	dc89edf1 fc67fca9 fc87fc67 fc87fc67     ......g.g...g...
   1e0a0:	ec89fc88 ff38dced ee13ffdb fc88e46a     ......8.....j...
   1e0b0:	fc67fc68 fc67fc67 fc68fc67 e4ecf469     h.g.g.g.g.h.i...
   1e0c0:	fffcff39 dcabfef6 fc67f489 fc67fc67     9.........g.g.g.
   1e0d0:	fc67fc67 f489fc68 fe53dc8a fef7ffdb     g.g.h.....S.....
   1e0e0:	f489dcab fc67fc68 fc67fc68 fc68fc67     ....h.g.h.g.g.h.
   1e0f0:	e46afc68 ffdcf655 dd6fff9a fc68e489     h.j.U.....o...h.
   1e100:	fc67fc68 fc67fc67 fc87fc67 fc47fc67     h.g.g.g.g...g.G.
   1e110:	fc87fc67 fc67fc67 fc67fc67 fc67fc67     g...g.g.g.g.g.g.
   1e120:	fc67fc67 ec8afc88 ff9ae570 f675ffdc     g.g.....p.....u.
   1e130:	f488dc6a fc67fc88 fc67fc67 fc88fc67     j.....g.g.g.g...
   1e140:	dcabf489 fffffef8 0844acf5 5c551169     ..........D.i.U\
   1e150:	44d654d6 44d64cf6 4cf644d6 44f64cf6     .T.D.L.D.D.L.L.D
   1e160:	3d783cf6 25982d97 25b825b8 25b825b8     .<x=.-.%.%.%.%.%
   1e170:	25b825b8 25b825b8 25982598 25b825b8     .%.%.%.%.%.%.%.%
   1e180:	25b825b8 25b825b8 25b825b8 25b825b8     .%.%.%.%.%.%.%.%
   1e190:	25b825b8 25b825b8 1d981db8 155725b8     .%.%.%.%.....%W.
   1e1a0:	25b825b8 25b825b8 25b825b8 25b825b8     .%.%.%.%.%.%.%.%
   1e1b0:	25b825b8 25b825b8 25b825b8 25b825b8     .%.%.%.%.%.%.%.%
   1e1c0:	25b825b8 25b825b8 25b825b8 25b825b8     .%.%.%.%.%.%.%.%
   1e1d0:	25b825b8 25b825b8 25b825b8 25b825b8     .%.%.%.%.%.%.%.%
   1e1e0:	25b825b8 357725b7 09894cd6 94330024     .%.%.%w5.L..$.3.
   1e1f0:	ff18ffff ec89e4cc fc67f468 fc67fc67     ........h.g.g.g.
   1e200:	fc68fc67 e46afc88 ffdbee13 e5b1ffbb     g.h...j.........
   1e210:	fc88e489 fc67fc67 fc67fc67 f488fc67     ....g.g.g.g.g...
   1e220:	e52dec89 ffdbff7a e469f5b0 fc67fc88     ..-.z.....i...g.
   1e230:	fc67fc67 fc67fc67 ec69fc67 ff78dd0e     g.g.g.g.g.i...x.
   1e240:	feb6ffdc f468dc8b fc67fc68 fc67fc67     ......h.h.g.g.g.
   1e250:	fc88fc67 e50dec89 ffdcff7a dc8bfe95     g.......z.......
   1e260:	fc68f489 fc87fc67 fc67fc67 f489fc67     ..h.g...g.g.g...
   1e270:	fe95dcab ff79ffdc ec89e50d fc67fc88     ......y.......g.
   1e280:	fc87fc67 fc67fc67 fc67fc67 ec89fc88     g...g.g.g.g.....
   1e290:	fef7dccc ff39ffdc f489e4cc fc68fc68     ......9.....h.h.
   1e2a0:	fc87fc67 fc67fc67 e48afc88 ffdbee34     g...g.g.....4...
   1e2b0:	dcedff17 fc67ec89 fc67fc67 fc68fc67     ......g.g.g.g.h.
   1e2c0:	fc67fc67 fc88fc67 fc67fc67 fc68fc68     g.g.g...g.g.h.h.
   1e2d0:	fc88fc88 fc68fc68 fc68fc68 e46afc89     ....h.h.h.h...j.
   1e2e0:	ffdcee13 4b0dffff 4598024b 25b82d78     .......KK..Ex-.%
   1e2f0:	1db81db8 25b825b8 25b825b8 25b825b8     .....%.%.%.%.%.%
   1e300:	25971d98 34333598 6b4f0044 ffdcffff     ...%.534D.Ok....
   1e310:	dc89edf1 fc67f4a9 fc67fc67 fc67fc67     ......g.g.g.g.g.
   1e320:	ec69fc88 ff37dced ee13ffdb fc68e46a     ..i...7.....j.h.
   1e330:	fc68fc68 fc67fc68 f488fc67 e4ecec89     h.h.h.g.g.......
   1e340:	fffcff39 d4cbfef6 fc67f4a9 fc67fc67     9.........g.g.g.
   1e350:	fc67fc67 f489fc68 fe53dc8a fef7ffdb     g.g.h.....S.....
   1e360:	f489dcab fc68fc68 fc67fc67 fc67fc67     ....h.h.g.g.g.g.
   1e370:	e48afc68 ffdbf655 dd4fff9a fc88e48a     h...U.....O.....
   1e380:	fc67fc68 fc67fc87 fc67fc87 fc67fc67     h.g...g...g.g.g.
   1e390:	fc67fc87 fc68fc88 fc68fc88 fc67fc68     ..g...h...h.h.g.
   1e3a0:	fc88fc88 ec8afc89 ff9ae570 f675ffdc     ........p.....u.
   1e3b0:	fc88dc6a fc47fc68 fc87fc67 fc88fc87     j...h.G.g.......
   1e3c0:	dcabf489 fffffed8 0024ad16 54b6118a     ..........$....T
   1e3d0:	35773d57 2d773577 2d772d77 2d773578     W=w5w5w-w-w-x5w-
   1e3e0:	25772d97 1d9825b8 1db825b8 25b825b8     .-w%.%...%...%.%
   1e3f0:	25b825b8 25b825b8 25b825b8 25b825b8     .%.%.%.%.%.%.%.%
   1e400:	25b825b8 25b825b8 25b825b8 25b825b8     .%.%.%.%.%.%.%.%
   1e410:	25b825b8 25b825b8 1d981db8 155725b8     .%.%.%.%.....%W.
   1e420:	25b825b8 25b825b8 25b825b8 25b825b8     .%.%.%.%.%.%.%.%
   1e430:	25b825b8 25b825b8 25b825b8 25b825b8     .%.%.%.%.%.%.%.%
   1e440:	25b825b8 25b825b8 25b825b8 25b825b8     .%.%.%.%.%.%.%.%
   1e450:	25b825b8 25b825b8 25b825b8 25b825b8     .%.%.%.%.%.%.%.%
   1e460:	25b825b8 35772597 09894cd6 94330024     .%.%.%w5.L..$.3.
   1e470:	ff18ffff ec89dccc fc67fc68 fc67fc67     ........h.g.g.g.
   1e480:	fc68fc67 e46afc88 ffdbee13 e5b1ffdb     g.h...j.........
   1e490:	fc88e489 fc67fc67 fc67fc67 fc88fc67     ....g.g.g.g.g...
   1e4a0:	e52dec89 ffdbff9a e469ed8f fc67fc88     ..-.......i...g.
   1e4b0:	fc67fc67 fc67fc67 ec69fc67 ff78e52e     g.g.g.g.g.i...x.
   1e4c0:	feb6fffc f468dc8b fc67fc68 fc67fc67     ......h.h.g.g.g.
   1e4d0:	fc88fc67 e50dec89 ffdcff7a dc8bfe95     g.......z.......
   1e4e0:	fc68f489 fc67fc68 fc87fc87 f489fc67     ..h.h.g.....g...
   1e4f0:	fe95dcab ff7affdc ec89e50d fc67fc68     ......z.....h.g.
   1e500:	fc87fc67 fc67fc87 fc67fc67 f489fc68     g.....g.g.g.h...
   1e510:	ff17dccc ff38ffdc f489e4ac fc68fc68     ......8.....h.h.
   1e520:	fc67fc67 fc67fc67 e46af488 ffdbee33     g.g.g.g...j.3...
   1e530:	dcedff37 fc67ec89 fc67fc67 fc68fc67     7.....g.g.g.g.h.
   1e540:	fc67fc67 fc88fc67 fc68fc67 fc07f407     g.g.g...g.h.....
   1e550:	fc28fc07 fc07fc07 fc08fc07 dc09fc28     ..(.........(...
   1e560:	ffddedf3 4b0dffff 45980a6b 25982d77     .......Kk..Ew-.%
   1e570:	1db825b8 25b825b8 25b825b8 25b825b8     .%...%.%.%.%.%.%
   1e580:	259725b8 34533d98 6b4f0064 ffdcffff     .%.%.=S4d.Ok....
   1e590:	dc8aedf2 fc67f4a9 fc67fc67 fc68fc67     ......g.g.g.g.h.
   1e5a0:	ec69fc88 ff37dced ee13ffdb fc88e469     ..i...7.....i...
   1e5b0:	fc68fc68 fc67fc68 f488fc67 e4ccec89     h.h.h.g.g.......
   1e5c0:	ffdcff59 d4acfef6 fc67f4a9 fc67fc67     Y.........g.g.g.
   1e5d0:	fc67fc67 f489fc68 fe53dc8a fef7ffdb     g.g.h.....S.....
   1e5e0:	f489e4ab fc67fc68 fc87fc67 fc67fc87     ....h.g.g.....g.
   1e5f0:	dc2af427 ffdcf635 dd4fff9a fc88e48a     '.*.5.....O.....
   1e600:	fc67fc68 fc67fc87 fc67fc67 fc67fc67     h.g...g.g.g.g.g.
   1e610:	fc87fc87 f407f427 fc07fc27 fc07fc07     ....'...'.......
   1e620:	fc07fc06 e429fc28 ff7ae52f f675ffdc     ....(.)./.z...u.
   1e630:	fc88e48a fc67fc68 fc67fc67 fc68fc67     ....h.g.g.g.g.h.
   1e640:	dc8bf489 fffffed8 0024acf6 4cd609aa     ..........$....L
   1e650:	25983578 25b82598 1d9825b8 25982598     x5.%.%.%.%...%.%
   1e660:	25982598 25b825b8 1db81db8 25b825b8     .%.%.%.%.....%.%
   1e670:	25b825b8 25b825b8 25b825b8 25b825b8     .%.%.%.%.%.%.%.%
   1e680:	25b825b8 25b825b8 25b825b8 25b825b8     .%.%.%.%.%.%.%.%
   1e690:	25b825b8 25b825b8 1d981db8 155725b8     .%.%.%.%.....%W.
   1e6a0:	25b825b8 25b825b8 25b825b8 25b825b8     .%.%.%.%.%.%.%.%
   1e6b0:	25b825b8 25b825b8 25b825b8 25b825b8     .%.%.%.%.%.%.%.%
   1e6c0:	25b825b8 25b825b8 25b825b8 25b825b8     .%.%.%.%.%.%.%.%
   1e6d0:	25b825b8 25b825b8 25b825b8 25b825b8     .%.%.%.%.%.%.%.%
   1e6e0:	25b825b8 35772597 09894cd6 94330024     .%.%.%w5.L..$.3.
   1e6f0:	ff18ffff ec69e4cc fc67fc68 fc67fc67     ......i.h.g.g.g.
   1e700:	fc67fc67 dc89fc88 ffdbee33 e5b1ffdb     g.g.....3.......
   1e710:	fc88e48a fc67fc67 fc67fc67 fc88fc67     ....g.g.g.g.g...
   1e720:	e52dec69 ffdbff7a e469f5b0 fc67fc88     i.-.z.....i...g.
   1e730:	fc67fc67 fc67fc67 ec69fc88 ff79dd2e     g.g.g.g...i...y.
   1e740:	feb6fffc f488dc8a fc67fc68 fc67fc67     ........h.g.g.g.
   1e750:	fc88fc67 e50dec89 ffdcff7a dc8bfe95     g.......z.......
   1e760:	fc68f489 fc87fc68 fc87fc87 f489fc67     ..h.h.......g...
   1e770:	fe95dcab ff7affdc ec89e50d fc67fc68     ......z.....h.g.
   1e780:	fc67fc67 fc67fc87 fc67fc67 ec89fc67     g.g...g.g.g.g...
   1e790:	ff17dccc ff39ffdc f489e4cb fc68fc68     ......9.....h.h.
   1e7a0:	fc67fc67 fc67fc67 e46afc68 ffdbee33     g.g.g.g.h.j.3...
   1e7b0:	dcedff37 fc68ec89 fc67fc67 fc68fc67     7.....h.g.g.g.h.
   1e7c0:	fc67fc67 fc67fc67 fc26fc67 d261d2a1     g.g.g.g.g.&...a.
   1e7d0:	da61d261 d241d241 d242d241 b243d263     a.a.A.A.A.B.c.C.
   1e7e0:	ffdddd10 4b0dffff 4598026b 25982d77     .......Kk..Ew-.%
   1e7f0:	25b825b8 25982598 25b825b8 25b825b8     .%.%.%.%.%.%.%.%
   1e800:	25971db8 34533598 6b4f0064 ffdcffff     ...%.5S4d.Ok....
   1e810:	dc8aedd1 fc67f489 fc67fc67 fc68fc67     ......g.g.g.g.h.
   1e820:	ec69fc88 ff37dced ee13ffdb fc88e46a     ..i...7.....j...
   1e830:	fc68fc88 fc67fc67 fc68fc67 e4ccec69     ..h.g.g.g.h.i...
   1e840:	fffcff39 dcacfed6 fc67f489 fc67fc67     9.........g.g.g.
   1e850:	fc67fc67 f489fc67 fe73dc8a ff18ffdb     g.g.g.....s.....
   1e860:	f489e4ac fc67fc67 fc67fc87 f427fc88     ....g.g...g...'.
   1e870:	aa63c2a2 ffdce572 dd4fff9a fc88e469     ..c.r.....O.i...
   1e880:	fc67fc68 fc67fc67 fc47fc88 fc67fc67     h.g.g.g...G.g.g.
   1e890:	fc67fc67 d241dae3 d261d261 d261d261     g.g...A.a.a.a.a.
   1e8a0:	d261d261 b263d282 ff7abbcb f654ffdc     a.a...c...z...T.
   1e8b0:	f488e48a fc67fc88 fc67fc67 fc68fc68     ......g.g.g.h.h.
   1e8c0:	dc8bf489 fffffed7 0044acf6 4cd609aa     ..........D....L
   1e8d0:	25983578 25b82598 1db81d98 25b825b8     x5.%.%.%.....%.%
   1e8e0:	25b825b8 25b825b8 25b825b8 25b825b8     .%.%.%.%.%.%.%.%
   1e8f0:	1db81db8 25b825b8 25b825b8 25b825b8     .....%.%.%.%.%.%
   1e900:	25b825b8 25b825b8 25b825b8 25b825b8     .%.%.%.%.%.%.%.%
   1e910:	25b825b8 25b825b8 1d981db8 155725b8     .%.%.%.%.....%W.
   1e920:	25b825b8 25b825b8 25b825b8 25b825b8     .%.%.%.%.%.%.%.%
   1e930:	25b825b8 25b825b8 25b825b8 25b825b8     .%.%.%.%.%.%.%.%
   1e940:	25b825b8 25b825b8 25b825b8 25b825b8     .%.%.%.%.%.%.%.%
   1e950:	25b825b8 25b825b8 25b825b8 25b825b8     .%.%.%.%.%.%.%.%
   1e960:	25b825b8 35772597 09894cd6 94330024     .%.%.%w5.L..$.3.
   1e970:	ff19ffff ec89e4cc fc67fc68 fc67fc67     ........h.g.g.g.
   1e980:	fc67fc47 e489f488 ffdaf612 e590ffba     G.g.............
   1e990:	fc88e489 fc67fc67 fc67fc67 fc88fc67     ....g.g.g.g.g...
   1e9a0:	e50dec69 ffdbff7a e469f5b0 fc67f488     i...z.....i...g.
   1e9b0:	fc67fc67 fc67fc66 ec69fc67 ff57e50d     g.g.f.g.g.i...W.
   1e9c0:	fe94ffda f488e489 fc67fc68 fc67fc67     ........h.g.g.g.
   1e9d0:	fc88fc67 e50dec89 ffdcff7a dc8bfe95     g.......z.......
   1e9e0:	fc68f489 fc87fc68 fc87fc87 f489fc67     ..h.h.......g...
   1e9f0:	fe95dcab ff7affdc ec89e50d fc67fc68     ......z.....h.g.
   1ea00:	fc67fc67 fc67fc87 fc67fc67 ec89fc68     g.g...g.g.g.h...
   1ea10:	ff17dccc ff39ffdc f489e4cb fc68fc68     ......9.....h.h.
   1ea20:	fc67fc67 fc67fc67 e46afc68 ffdbee33     g.g.g.g.h.j.3...
   1ea30:	dcedff37 fc68ec89 fc67fc67 fc68fc68     7.....h.g.g.h.h.
   1ea40:	fc67fc67 fc67fc67 ec07fc88 ba21ba41     g.g.g.g.....A.!.
   1ea50:	ba22ba02 ba02ba22 ba02ba02 9a03ba23     ..".".......#...
   1ea60:	ffddccf0 4b0dffff 4d98024b 25982d77     .......KK..Mw-.%
   1ea70:	25b825b8 25982598 25b825b8 25b825b8     .%.%.%.%.%.%.%.%
   1ea80:	25971db8 34333598 6b4f0064 ffdcffff     ...%.534d.Ok....
   1ea90:	dc8aedf1 fc67f489 fc67fc67 fc67fc67     ......g.g.g.g.g.
   1eaa0:	ec89fc88 ff16e4ec f5f2ffba fc89e489     ................
   1eab0:	fc67fc88 fc67fc67 fc68fc67 dcccec69     ..g.g.g.g.h.i...
   1eac0:	ffdcff59 dcacfed6 fc67f489 fc67fc67     Y.........g.g.g.
   1ead0:	fc67fc67 f488fc68 fe32dc89 fed7ffba     g.g.h.....2.....
   1eae0:	f488e4ab fc67fc67 fc68fc47 f448fc89     ....g.g.G.h...H.
   1eaf0:	9a23b282 ffbdd532 dd4fff9a fc88e469     ..#.2.....O.i...
   1eb00:	fc67fc67 fc67fc67 fc68fc68 fc67fc67     g.g.g.g.h.h.g.g.
   1eb10:	fc68fc87 ba22c282 ba22ba22 ba22ba22     ..h...".".".".".
   1eb20:	b222ba22 a223b222 ff7bab8b ee54ffdc     ".".".#...{...T.
   1eb30:	f488e48a fc68fc88 fc67fc67 fc68fc68     ......h.g.g.h.h.
   1eb40:	dc8bf489 fffffed7 0044acf6 44d6098a     ..........D....D
   1eb50:	25b83578 25b82598 1db825b8 25b825b8     x5.%.%.%.%...%.%
   1eb60:	25b825b8 25b825b8 25b825b8 25b825b8     .%.%.%.%.%.%.%.%
   1eb70:	1db81db8 25b825b8 25b825b8 25b825b8     .....%.%.%.%.%.%
   1eb80:	25b825b8 25b825b8 25b825b8 25b825b8     .%.%.%.%.%.%.%.%
   1eb90:	25b825b8 25b825b8 1d981db8 155725b8     .%.%.%.%.....%W.
   1eba0:	25b825b8 25b825b8 25b825b8 25b825b8     .%.%.%.%.%.%.%.%
   1ebb0:	25b825b8 25b825b8 25b825b8 25b825b8     .%.%.%.%.%.%.%.%
   1ebc0:	25b825b8 25b825b8 25b825b8 25b825b8     .%.%.%.%.%.%.%.%
   1ebd0:	25b825b8 25b825b8 25b825b8 25b825b8     .%.%.%.%.%.%.%.%
   1ebe0:	25b825b8 35772597 09894cd6 94330024     .%.%.%w5.L..$.3.
   1ebf0:	ff18ffff ec69dccc fc87f488 fc67fc67     ......i.....g.g.
   1ec00:	fc67fc67 ec69fc88 feb4f58f ed2dfeb3     g.g...i.......-.
   1ec10:	fc88ec68 fc67fc67 fc67fc87 fc68fc68     h...g.g...g.h.h.
   1ec20:	e52eec69 ffdbff7a e469f5b0 fc67fc88     i...z.....i...g.
   1ec30:	fc67fc67 fc67fc67 f468fc87 fe93ecec     g.g.g.g...h.....
   1ec40:	fdf1feb4 fc68ec89 fc68fc68 fc67fc67     ......h.h.h.g.g.
   1ec50:	fc88fc67 e50dec89 ffdcff7a dc8bfe95     g.......z.......
   1ec60:	fc68f489 fc87fc68 fc87fc87 f489fc67     ..h.h.......g...
   1ec70:	fe95dcab ff7affdc ec89e50d fc67fc68     ......z.....h.g.
   1ec80:	fc67fc67 fc67fc87 fc67fc67 ec89fc68     g.g...g.g.g.h...
   1ec90:	ff17dccc ff38ffdc f489e4cb fc68fc68     ......8.....h.h.
   1eca0:	fc67fc67 fc67fc67 e46af488 ffdbee13     g.g.g.g...j.....
   1ecb0:	dcedff37 fc67ec89 fc87fc87 fc67fc67     7.....g.....g.g.
   1ecc0:	fc67fc67 fc68fc67 e428fca9 bb89c387     g.g.g.h...(.....
   1ecd0:	bb8abb89 bb8abb8a bb6abb8a a36abbab     ..........j...j.
   1ece0:	ffdecdb4 4b0effff 4d980a4b 25982d77     .......KK..Mw-.%
   1ecf0:	25b825b8 25982598 25982598 25b825b8     .%.%.%.%.%.%.%.%
   1ed00:	259725b8 34333598 6b4f0044 ffdcffff     .%.%.534D.Ok....
   1ed10:	dc89edf1 fc67f489 fc67fc67 fc68fc67     ......g.g.g.g.h.
   1ed20:	f488fc68 fe31ecca f58ffeb4 fc88ec68     h.....1.....h...
   1ed30:	fc67fc68 fc67fc67 f488fc67 dcecec89     h.g.g.g.g.......
   1ed40:	fffcff59 d4acfed6 fc67f489 fc67fc67     Y.........g.g.g.
   1ed50:	fc67fc67 fc88fc67 fdaee469 fe12feb5     g.g.g...i.......
   1ed60:	f488ecaa fc67fc67 f3e6fc47 dbe8ebe7     ....g.g.G.......
   1ed70:	a36ac389 ffddd5f6 dd70ff9b fc68e489     ..j.......p...h.
   1ed80:	fc67fc68 fc67fc67 fc67fc67 fc88fc67     h.g.g.g.g.g.g...
   1ed90:	ec89f468 bb68cba8 bb69bb89 bb8abb6a     h.....h...i.j...
   1eda0:	b38abb8a ab6abb8a ffbcb490 f675ffdc     ......j.......u.
   1edb0:	f488dc6a fc68fc88 fc67fc67 fc68fc68     j.....h.g.g.h.h.
   1edc0:	dc8bf489 fffffed7 0024acf6 4cf709aa     ..........$....L
   1edd0:	1d983578 25b82598 1d9825b8 25b81d98     x5...%.%.%.....%
   1ede0:	25b825b8 25b825b8 25b825b8 25b825b8     .%.%.%.%.%.%.%.%
   1edf0:	25b825b8 25b825b8 25b825b8 25b825b8     .%.%.%.%.%.%.%.%
   1ee00:	25b825b8 25b825b8 25b825b8 25b825b8     .%.%.%.%.%.%.%.%
   1ee10:	25b825b8 25b825b8 1d981db8 155725b8     .%.%.%.%.....%W.
   1ee20:	25b825b8 25b825b8 25b825b8 25b825b8     .%.%.%.%.%.%.%.%
   1ee30:	25b825b8 25b825b8 25b825b8 25b825b8     .%.%.%.%.%.%.%.%
   1ee40:	25b825b8 25b825b8 25b825b8 25b825b8     .%.%.%.%.%.%.%.%
   1ee50:	25b825b8 25b825b8 25b825b8 25b825b8     .%.%.%.%.%.%.%.%
   1ee60:	25b825b8 35772597 09894cd6 94330024     .%.%.%w5.L..$.3.
   1ee70:	ff18ffff ec69e4cd fc67fc68 fc67fc67     ......i.h.g.g.g.
   1ee80:	fc67fc67 f489fc88 e48ae48a ec89e4aa     g.g.............
   1ee90:	fc68f468 fc67fc67 fc67fc67 fc88fc68     h.h.g.g.g.g.h...
   1eea0:	e50dec69 ffdbff9a e449f590 fc67fc89     i.........I...g.
   1eeb0:	fc67fc67 fc87fc67 f468fc67 e4aaec89     g.g.g...g.h.....
   1eec0:	e4aae4aa fc68f489 fc68fc67 fc67fc67     ......h.g.h.g.g.
   1eed0:	fc88fc68 e50dec89 ffdcff7a dc8bfe95     h.......z.......
   1eee0:	fc68f489 fc87fc67 fc87fc87 f489fc67     ..h.g.......g...
   1eef0:	fe95dcab ff7affdc ec89e50d fc67fc68     ......z.....h.g.
   1ef00:	fc67fc67 fc67fc87 fc67fc67 ec89fc68     g.g...g.g.g.h...
   1ef10:	ff17dccc ff18ffdc f489e4cb fc67fc68     ............h.g.
   1ef20:	fc67fc67 fc67fc67 e48af488 ffdbf675     g.g.g.g.....u...
   1ef30:	dcedff38 fc67ec69 fc87fc67 fc87fc67     8...i.g.g...g...
   1ef40:	fc67fc67 fc68fc67 ececec68 ff7afef6     g.g.g.h.h.....z.
   1ef50:	ff5bff7a ff5bff5b ff7bff5b ff5cff5b     z.[.[.[.[.{.[.\.
   1ef60:	ffbeff9d 4aedffdf 4598024b 25982d77     .......JK..Ew-.%
   1ef70:	25b825b8 259825b8 25b82598 25b825b8     .%.%.%.%.%.%.%.%
   1ef80:	259725b8 34333598 6b4f0044 ffdcffff     .%.%.534D.Ok....
   1ef90:	dc69edf1 fc68f489 fc67fc67 fc67fc67     ..i...h.g.g.g.g.
   1efa0:	fc88fc67 e489f489 e4aae48a fc67f468     g...........h.g.
   1efb0:	fc67fc67 fc67fc67 fc88fc67 e4edf489     g.g.g.g.g.......
   1efc0:	fffcff59 d4acfed6 fc67f489 fc67fc67     Y.........g.g.g.
   1efd0:	fc67fc67 fc68fc67 ec89f488 e4aae48b     g.g.g.h.........
   1efe0:	fc87f488 fc67fc67 c2c3fc48 b327b242     ....g.g.H...B.'.
   1eff0:	ff7bfeb7 ffbdffbd dd50ffbb fc68e469     ..{.......P.i.h.
   1f000:	fc67fc68 fc67fc67 fc67fc47 fc88fc67     h.g.g.g.G.g.g...
   1f010:	e48af488 ff7afe94 ff5bff5a ff3bff3b     ......z.Z.[.;.;.
   1f020:	ff5bff3b ff5cff5b ffddff9d f675ffdd     ;.[.[.\.......u.
   1f030:	f489dc6a fc67fc68 fc67fc67 fc68fc68     j...h.g.g.g.h.h.
   1f040:	dc8bf489 fffffed7 0024acf6 4cf709aa     ..........$....L
   1f050:	25b82d78 25982598 1db825b8 25b825b8     x-.%.%.%.%...%.%
   1f060:	25b825b8 25b825b8 25b825b8 25b825b8     .%.%.%.%.%.%.%.%
   1f070:	25b825b8 25b825b8 25b825b8 25b825b8     .%.%.%.%.%.%.%.%
   1f080:	25b825b8 25b825b8 25b825b8 25b825b8     .%.%.%.%.%.%.%.%
   1f090:	25b825b8 25b825b8 1d981db8 155725b8     .%.%.%.%.....%W.
   1f0a0:	25b825b8 25b825b8 25b825b8 25b825b8     .%.%.%.%.%.%.%.%
   1f0b0:	25b825b8 25b825b8 25b825b8 25b825b8     .%.%.%.%.%.%.%.%
   1f0c0:	25b825b8 25b825b8 25b825b8 25b825b8     .%.%.%.%.%.%.%.%
   1f0d0:	25b825b8 25b825b8 25b825b8 25b825b8     .%.%.%.%.%.%.%.%
   1f0e0:	25b82598 35772597 09894cd6 94330024     .%.%.%w5.L..$.3.
   1f0f0:	ff19ffff f46ae4cd fc67fc68 fc67fc67     ......j.h.g.g.g.
   1f100:	fc67fc87 fc68fc67 f488f468 fc88f488     ..g.g.h.h.......
   1f110:	fc87fc67 fc67fc67 fc87fc87 fc88fc68     g...g.g.....h...
   1f120:	e52eec89 ffbbff9a ec4af590 fc68fc89     ..........J...h.
   1f130:	fc67fc67 fc67fc67 fc47fc67 f4a9f488     g.g.g.g.g.G.....
   1f140:	f488f489 fc68fc68 fc67fc68 fc68fc67     ....h.h.h.g.g.h.
   1f150:	fc89fc68 e50eec69 fffcff7a dc8bfe95     h...i...z.......
   1f160:	fc67f489 fc87fc67 fc87fc87 f489fc67     ..g.g.......g...
   1f170:	fe95dcab ff7affdc ec89e50d fc67fc68     ......z.....h.g.
   1f180:	fc67fc67 fc67fc87 fc67fc67 ec89fc68     g.g...g.g.g.h...
   1f190:	ff17dccc ff18ffdc f489e4cc fc67fc68     ............h.g.
   1f1a0:	fc67fc67 fc68fc67 e4abf489 ffdcfef7     g.g.g.h.........
   1f1b0:	dccdff38 fc47f469 fc67fc67 fc87fc67     8...i.G.g.g.g...
   1f1c0:	fc67fc67 f467fc87 e4ecec88 ffbcff58     g.g...g.....X...
   1f1d0:	ffdfffbd ffdfffdf ffdfffff ffdfffdf     ................
   1f1e0:	ffdfffff 4b0effdf 4d98024b 25982d77     .......KK..Mw-.%
   1f1f0:	1db825b7 25b825b8 25b825b8 1db81db8     .%...%.%.%.%....
   1f200:	259725b8 34333598 6b4f0064 ffbcffff     .%.%.534d.Ok....
   1f210:	e48af5f2 fc68fc69 fc67fc68 fc67fc67     ....i.h.h.g.g.g.
   1f220:	fc68fc67 f488fc88 f488f488 fc67fc67     g.h.........g.g.
   1f230:	fc67fc67 fc87fc67 fc68fc68 eccdf469     g.g.g...h.h.i...
   1f240:	fffcff39 d4acfed6 fc67f489 fc67fc67     9.........g.g.g.
   1f250:	fc67fc67 fc68fc67 f488fc88 f488f489     g.g.g.h.........
   1f260:	fc87f467 fc68fc67 b2a4f46a 9b089a44     g...g.h.j...D...
   1f270:	ffdeff1a ffddffde dd50ff9b fc68ec8a     ..........P...h.
   1f280:	fc67fc47 fc87fc67 fc67fc67 fc68fc87     G.g.g...g.g...h.
   1f290:	dc8bf468 ffdcfeb6 ffdeffbd ffdfffdf     h...............
   1f2a0:	ffdfffdf ffdfffdf ffbeffdf f675ffdd     ..............u.
   1f2b0:	f489dc8a fc67fc68 fc67fc67 fc68fc67     ....h.g.g.g.g.h.
   1f2c0:	dc8bf489 fffffed7 0024acf6 4cf709aa     ..........$....L
   1f2d0:	25b82d78 25982598 25b825b8 25b825b8     x-.%.%.%.%.%.%.%
   1f2e0:	25b825b8 25b825b8 25b825b8 25b825b8     .%.%.%.%.%.%.%.%
   1f2f0:	25982598 25b825b8 25b825b8 25b825b8     .%.%.%.%.%.%.%.%
   1f300:	25b825b8 25b825b8 25b825b8 25b825b8     .%.%.%.%.%.%.%.%
   1f310:	25b825b8 25b825b8 1d981db8 155725b8     .%.%.%.%.....%W.
   1f320:	25b825b8 25b825b8 25b825b8 25b825b8     .%.%.%.%.%.%.%.%
   1f330:	25b825b8 25b825b8 25b825b8 25b825b8     .%.%.%.%.%.%.%.%
   1f340:	25b825b8 25b825b8 25b825b8 25b825b8     .%.%.%.%.%.%.%.%
   1f350:	25b825b8 25b825b8 25b825b8 25b825b8     .%.%.%.%.%.%.%.%
   1f360:	25b82598 35772598 01894cf6 94330024     .%.%.%w5.L..$.3.
   1f370:	fed8ffff c2e4bb68 fc68ebc6 fc67fc67     ....h.....h.g.g.
   1f380:	fc68fc67 fc88fc68 fc67fc87 fc67fc67     g.h.h.....g.g.g.
   1f390:	fc87fc67 fc67fc67 fc87fc87 fc88fc68     g...g.g.....h...
   1f3a0:	e50dec69 ff9bff7a bac4d48d f407cb04     i...z...........
   1f3b0:	fc67fc68 fc67fc67 fc67fc67 f468f467     h.g.g.g.g.g.g.h.
   1f3c0:	fc67fc87 fc68fc67 fc67fc67 fc68fc67     ..g.g.h.g.g.g.h.
   1f3d0:	fc88fc68 e50eec8a ffdcff7a dc8bfe95     h.......z.......
   1f3e0:	fc68f489 fc87fc67 fc87fc67 f489fc67     ..h.g...g...g...
   1f3f0:	fe95dcab ff7affdc ec89e50d fc67fc88     ......z.......g.
   1f400:	fc87fc67 fc67fc87 fc67fc87 ec89fc68     g.....g...g.h...
   1f410:	ff17dccc ff38ffdc f489e4ec fc67fc68     ......8.....h.g.
   1f420:	fc67fc67 fc88fc67 e4cbf489 ffdcff17     g.g.g...........
   1f430:	b388fef8 eba6bac3 fc67fc88 fc87fc67     ..........g.g...
   1f440:	fc68fc87 f488fc67 e4ecec89 fffeff59     ..h.g.......Y...
   1f450:	528bd67a 428b4aac 3aac3aac 42ac42ac     z..R.J.B.:.:.B.B
   1f460:	4aad4aad 096852ee 45780aad 25b82d77     .J.J.Rh...xEw-.%
   1f470:	1db81db8 25b825b8 25b825b8 1db81db8     .....%.%.%.%....
   1f480:	259725b8 34533598 6b4f0064 ffbcffff     .%.%.5S4d.Ok....
   1f490:	b2e4dcef fc48d344 fc67fc68 fc67fc67     ....D.H.h.g.g.g.
   1f4a0:	fc67fc67 fc88fc68 fc47fc67 fc67fc67     g.g.h...g.G.g.g.
   1f4b0:	fc67fc67 fc67fc67 eba6fc68 bb68c2c4     g.g.g.g.h.....h.
   1f4c0:	fffdfef8 d4acfed6 fc67f489 fc67fc67     ..........g.g.g.
   1f4d0:	fc67fc67 fc67fc67 fc67fc67 fc67fc67     g.g.g.g.g.g.g.g.
   1f4e0:	fc88fc47 cae3f3e6 f52fc305 ee36f5d4     G........./...6.
   1f4f0:	ffdeff9d ffbdffde bc4cff9b db65bae4     ..........L...e.
   1f500:	fc47fc48 fc67fc67 fc67fc67 fc68fc67     H.G.g.g.g.g.g.h.
   1f510:	dcabec68 fffdfeb6 6b2df79d 5acd5aac     h.........-k.Z.Z
   1f520:	5acd5aac 528b5acd ffde7bf0 f675ffdd     .Z.Z.Z.R.{....u.
   1f530:	f488dc8a fc67fc68 fc67fc67 fc88fc67     ....h.g.g.g.g...
   1f540:	dc8bf489 fffffed7 0024acf6 4cd709aa     ..........$....L
   1f550:	25b82d78 25982598 1d9825b8 25b825b8     x-.%.%.%.%...%.%
   1f560:	25b825b8 25b825b8 25b825b8 25b825b8     .%.%.%.%.%.%.%.%
   1f570:	25982598 25b825b8 25b825b8 25b825b8     .%.%.%.%.%.%.%.%
   1f580:	25b825b8 25b825b8 25b825b8 25b825b8     .%.%.%.%.%.%.%.%
   1f590:	25b825b8 25b825b8 1d981db8 155725b8     .%.%.%.%.....%W.
   1f5a0:	25b825b8 25b825b8 25b825b8 25b825b8     .%.%.%.%.%.%.%.%
   1f5b0:	25b825b8 25b825b8 25b825b8 25b825b8     .%.%.%.%.%.%.%.%
   1f5c0:	25b825b8 25b825b8 25b825b8 25b825b8     .%.%.%.%.%.%.%.%
   1f5d0:	25b825b8 25b825b8 25b825b8 25b825b8     .%.%.%.%.%.%.%.%
   1f5e0:	25b825b8 2d772598 01894cf6 8c320044     .%.%.%w-.L..D.2.
   1f5f0:	f6b8ffff aa02aaa6 fc68db85 fc68fc48     ..........h.H.h.
   1f600:	fc67fc67 fc87fc68 fc67fc67 fc68fc68     g.g.h...g.g.h.h.
   1f610:	fc87fc87 fc87fc87 fc87fc87 f488fc68     ............h...
   1f620:	e50dec89 ffbbff59 a223c40c ebe7b262     ....Y.....#.b...
   1f630:	fc68fc69 fc67fc68 fc67fc67 fc88fc88     i.h.h.g.g.g.....
   1f640:	fc87fc67 fc67fc67 fc67fc67 fc67fc67     g...g.g.g.g.g.g.
   1f650:	fc88fc67 e50eec89 fffcff7a dcabfe95     g.......z.......
   1f660:	fc68f489 fc67fc67 fc67fc67 f489fc67     ..h.g.g.g.g.g...
   1f670:	fe95dcab ff7affdc ec89dd0d fc67fc88     ......z.......g.
   1f680:	fc87fc67 fc67fc87 fc68fc68 ec89fc88     g.....g.h.h.....
   1f690:	ff17dccc fed6ffdb f489dccb fc67fc88     ..............g.
   1f6a0:	fc87fc67 fc88fc67 dccbf489 ffdcfef7     g...g...........
   1f6b0:	9ac6fed8 e365aa22 fc47fc89 fc87fc67     ....".e...G.g...
   1f6c0:	fc67fc67 f468fc68 e4edec89 ffffff59     g.g.h.h.....Y...
   1f6d0:	0023c5f8 1a8c09a8 128c128c 0127126c     ..#.........l.'.
   1f6e0:	00e600e6 014800c6 3d771bd2 1db82597     ......H...w=.%..
   1f6f0:	1db81db8 259825b8 25b825b8 25b825b8     .....%.%.%.%.%.%
   1f700:	259725b8 34333598 6b500064 ffddffff     .%.%.534d.Pk....
   1f710:	9a22cc8e fc28c2a3 fc68fc68 fc67fc67     .."...(.h.h.g.g.
   1f720:	fc88fc68 fc67fc68 fc67fc67 fc67fc67     h...h.g.g.g.g.g.
   1f730:	fc67fc67 fc88f467 db45fc69 a2c6aa02     g.g.g...i.E.....
   1f740:	ffddfed8 d4ccfef6 fc67f4a9 fc67fc67     ..........g.g.g.
   1f750:	fc87fc87 fc67fc87 fc67fc47 f467fc88     ......g.G.g...g.
   1f760:	fc68fc68 b221eb86 fe96a264 ffdeffdd     h.h...!.d.......
   1f770:	ffffffdf ffbdffdf abaaff9b cae39a02     ................
   1f780:	fc47fc68 fc67fc67 fc87fc67 f488fc68     h.G.g.g.g...h...
   1f790:	dcabf489 fffef6b6 2126f75d 00240023     ........].&!#.$.
   1f7a0:	00440024 00030844 ffdf4209 f675ffdd     $.D.D....B....u.
   1f7b0:	f488dc6a fc67fc68 fc87fc67 fc88fc87     j...h.g.g.......
   1f7c0:	dcabf489 fffffed7 0024acf6 4cd709aa     ..........$....L
   1f7d0:	25982d78 25982598 259825b8 25b825b8     x-.%.%.%.%.%.%.%
   1f7e0:	25b825b8 25b825b8 25b825b8 25b825b8     .%.%.%.%.%.%.%.%
   1f7f0:	25b825b8 25b825b8 25b825b8 25b825b8     .%.%.%.%.%.%.%.%
   1f800:	25b825b8 25b825b8 25b825b8 25b825b8     .%.%.%.%.%.%.%.%
   1f810:	25b825b8 25b825b8 1d981db8 155725b8     .%.%.%.%.....%W.
   1f820:	25b825b8 25b825b8 25b825b8 25b825b8     .%.%.%.%.%.%.%.%
   1f830:	25b825b8 25b825b8 25b825b8 25b825b8     .%.%.%.%.%.%.%.%
   1f840:	25b825b8 25b825b8 25b825b8 25b825b8     .%.%.%.%.%.%.%.%
   1f850:	25b825b8 25b825b8 25b825b8 25b825b8     .%.%.%.%.%.%.%.%
   1f860:	259825b8 35772598 09ca4cf6 8c320044     .%.%.%w5.L..D.2.
   1f870:	f6d9ffff aa85a309 fc49dba7 fc48fc28     ..........I.(.H.
   1f880:	fc67fc68 fc67fc68 fc67fc87 fc67fc67     h.g.h.g...g.g.g.
   1f890:	fc67fc67 fc87fc87 fc67fc67 f488fc67     g.g.....g.g.g...
   1f8a0:	e50dec69 ffdcff7a 9a85bc4e ec09b2a5     i...z...N.......
   1f8b0:	fc27fc48 fc67fc48 fc87fc87 fc68fc68     H.'.H.g.....h.h.
   1f8c0:	fc67fc67 fc67fc67 fc67fc68 fc68fc67     g.g.g.g.h.g.g.h.
   1f8d0:	fc89fc67 e50dec89 fffcff7a dcabfe95     g.......z.......
   1f8e0:	fc67f489 fc67fc67 fc88fc67 f489fc68     ..g.g.g.g...h...
   1f8f0:	fe95dc8b ff7affdc ec89e50d fc67f488     ......z.......g.
   1f900:	fc67fc67 fc67fc67 fc68fc67 ec89fc88     g.g.g.g.g.h.....
   1f910:	fef7dccc ee74ffdb f489d48a fc67fc68     ......t.....h.g.
   1f920:	fc67fc87 fc88fc67 dccbf489 ffdcfed7     ..g.g...........
   1f930:	9b49fef9 db87a285 fc27fc69 fc87fc68     ..I.....i.'.h...
   1f940:	fc87fc87 fc68fc68 e4edec89 ffffff5a     ....h.h.....Z...
   1f950:	0084c63a 5d993b91 4d984d78 45164d78     :....;.]xM.MxM.E
   1f960:	4cd64cd6 44f64cf6 2d773d57 1db82597     .L.L.L.DW=w-.%..
   1f970:	25b825b8 25982598 25b825b8 25b825b8     .%.%.%.%.%.%.%.%
   1f980:	259725b8 34533598 6b700065 ffdeffff     .%.%.5S4e.pk....
   1f990:	9265ccf0 f429bae5 fc27fc28 fc68fc47     ..e...).(.'.G.h.
   1f9a0:	fc67fc88 fc68fc68 fc67fc67 fc67fc67     ..g.h.h.g.g.g.g.
   1f9b0:	fc67fc67 f428fc47 db87fc49 a329aa85     g.g.G.(.I.....).
   1f9c0:	fffdff1a dcabfed6 fc67f489 fc67fc67     ..........g.g.g.
   1f9d0:	fc67fc67 fc67fc67 fc67fc68 fc68fc87     g.g.g.g.h.g...h.
   1f9e0:	fc29fc28 aa85e3a8 f6989ae8 f7beffbe     (.).............
   1f9f0:	f79ff7bf ffdeffdf b42cffbc c326a2c6     ..........,...&.
   1fa00:	fc27f428 fc47fc48 fc87fc67 fc68fc68     (.'.H.G.g...h.h.
   1fa10:	dcabf489 fffefed7 3189f75e 326d10a6     ........^..1..m2
   1fa20:	32ce2aae 004529eb ffdf526b f675ffdd     .*.2.)E.kR....u.
   1fa30:	f468dc8a fc67fc68 fc67fc67 fc68fc67     ..h.h.g.g.g.g.h.
   1fa40:	dcabf489 fffffef8 0024acf6 4cd609aa     ..........$....L
   1fa50:	25982d78 25982598 259825b8 25b825b8     x-.%.%.%.%.%.%.%
   1fa60:	25b825b8 25b825b8 25b825b8 25b825b8     .%.%.%.%.%.%.%.%
   1fa70:	25b825b8 25b825b8 25b825b8 25b825b8     .%.%.%.%.%.%.%.%
   1fa80:	25b825b8 25b825b8 25b825b8 25b825b8     .%.%.%.%.%.%.%.%
   1fa90:	25b825b8 25b825b8 1d981db8 155725b8     .%.%.%.%.....%W.
   1faa0:	25b825b8 25b825b8 25b825b8 25b825b8     .%.%.%.%.%.%.%.%
   1fab0:	25b825b8 25b825b8 25b825b8 25b825b8     .%.%.%.%.%.%.%.%
   1fac0:	25b825b8 25b825b8 25b825b8 25b825b8     .%.%.%.%.%.%.%.%
   1fad0:	25b825b8 25b825b8 25b825b8 25b825b8     .%.%.%.%.%.%.%.%
   1fae0:	259725b7 35772598 018944f6 8c320044     .%.%.%w5.D..D.2.
   1faf0:	ff5cffdf feb7f6b9 ba83dc4c f3c6caa3     ..\.....L.......
   1fb00:	fc67fc47 fc47fc67 fc67fc67 fc67fc67     G.g.g.G.g.g.g.g.
   1fb10:	fc67fc67 fc67fc67 fc67fc67 f468fc68     g.g.g.g.g.g.h.h.
   1fb20:	e50eec69 ffddff9b fe97ff1a c388fe54     i...........T...
   1fb30:	e345ba82 fc47fc27 fc67fc67 fc47fc48     ..E.'.G.g.g.H.G.
   1fb40:	fc67fc68 fc68fc68 fc47fc47 fc68fc68     h.g.h.h.G.G.h.h.
   1fb50:	f468fc47 e50dec69 ffdcff79 d4abfeb5     G.h.i...y.......
   1fb60:	fc67f469 fc67fc67 fc67fc47 f489fc68     i.g.g.g.G.g.h...
   1fb70:	fe95dc8b ff59ffdc ec69e4ed fc47f468     ......Y...i.h.G.
   1fb80:	fc67fc67 fc47fc67 fc68fc47 ec89fc67     g.g.g.G.G.h.g...
   1fb90:	fed6dcac ee54ffdb f468dc6a f447f448     ......T.j.h.H.G.
   1fba0:	fc47fc68 f467fc47 dcabec89 fffdfef8     h.G.G.g.........
   1fbb0:	f6d8ff9c d44cfe96 caa2ba83 fc67f406     ......L.......g.
   1fbc0:	fc67fc67 f468fc67 e4edec69 ffffff5a     g.g.g.h.i...Z...
   1fbd0:	0107bdf9 3d574cb5 2d772d57 2d972d77     .....LW=W-w-w-.-
   1fbe0:	2d772d77 2d972d77 25972597 25b825b8     w-w-w-.-.%.%.%.%
   1fbf0:	25982598 25982598 25b825b8 1db81db8     .%.%.%.%.%.%....
   1fc00:	259725b8 2c543598 6b700085 ffbdffff     .%.%.5T,..pk....
   1fc10:	feb7f73a bae6fdf3 db04c283 fc68fc68     :...........h.h.
   1fc20:	fc27fc47 fc68fc47 fc67fc68 fc68fc67     G.'.G.h.h.g.g.h.
   1fc30:	fc67fc67 caa3f3c6 dc2cba84 f6b8feb7     g.g.......,.....
   1fc40:	ffddffbd dcacfed6 fc47ec89 fc67fc47     ..........G.G.g.
   1fc50:	fc67fc67 fc67fc67 fc67fc67 f406fc88     g.g.g.g.g.g.....
   1fc60:	ba83cac2 feb7d40b ff7cfef9 df1cffde     ..........|.....
   1fc70:	21473a0a ffdfa536 f719ff7d ed50fef7     .:G!6...}.....P.
   1fc80:	caa2b283 fc68e365 fc68fc47 f427fc47     ....e.h.G.h.G.'.
   1fc90:	dc8af489 fffefeb6 2968f75e 5c9600e7     ........^.h)...\
   1fca0:	55774d58 00a65475 ffdf424b f675ffdd     XMwUuT..KB....u.
   1fcb0:	f488dc8a fc67fc88 fc67fc47 f447fc47     ......g.G.g.G.G.
   1fcc0:	dc8bf468 fffffed8 0024ad16 4cd609aa     h.........$....L
   1fcd0:	25982d78 25982598 25b825b8 25b825b8     x-.%.%.%.%.%.%.%
   1fce0:	25b825b8 25b825b8 25b825b8 25b825b8     .%.%.%.%.%.%.%.%
   1fcf0:	25b825b8 25b825b8 25b825b8 25b825b8     .%.%.%.%.%.%.%.%
   1fd00:	25b825b8 25b825b8 25b825b8 25b825b8     .%.%.%.%.%.%.%.%
   1fd10:	25b825b8 25b825b8 1d981db8 155725b8     .%.%.%.%.....%W.
   1fd20:	25b825b8 25b825b8 25b825b8 25b825b8     .%.%.%.%.%.%.%.%
   1fd30:	25b825b8 25b825b8 25b825b8 25b825b8     .%.%.%.%.%.%.%.%
   1fd40:	25b825b8 25b825b8 25b825b8 25b825b8     .%.%.%.%.%.%.%.%
   1fd50:	25b825b8 25b825b8 25b825b8 25b825b8     .%.%.%.%.%.%.%.%
   1fd60:	259725b7 2d772598 026c3d17 7c9400c5     .%.%.%w-.=l....|
   1fd70:	ffffffff ffbdffde 91e2cc4d ebe7aa21     ........M...!...
   1fd80:	fc68fc89 fc68fc68 fc68fc68 fc68fc68     ..h.h.h.h.h.h.h.
   1fd90:	fc68fc68 fc48fc48 fc68fc48 fc89fc68     h.h.H.H.H.h.h...
   1fda0:	ed2ef48a ffdeff9b ffddffde a328ff9a     ..............(.
   1fdb0:	d30599e1 fc68fc69 fc68fc88 fc28fc48     ....i.h...h.H.(.
   1fdc0:	fc68fc68 fc68fc68 fc68fc69 fc68fc68     h.h.h.h.i.h.h.h.
   1fdd0:	fc89fc68 ed0ef48a ffdcff5a e4acfe95     h.......Z.......
   1fde0:	fc68fc89 fc68fc88 fc48fc48 fcaafc69     ..h...h.H.H.i...
   1fdf0:	fe95e4ac ff7affdc fc8aed0d fc68fc69     ......z.....i.h.
   1fe00:	fc68fc68 fc48fc48 fc68fc68 fc8afc88     h.h.H.H.h.h.....
   1fe10:	fef7e4cd f675ffdb fc89e48b fc68fc68     ......u.....h.h.
   1fe20:	fc68fc89 fc69fc48 e4ccfcaa ffddff18     ..h.H.i.........
   1fe30:	ffddffdd bc4dffdc aa2191e2 fc68ebe7     ......M...!...h.
   1fe40:	fc88fc68 fc88fc68 ed0df489 ffffff5a     h...h.......Z...
   1fe50:	0168b5f9 357844f6 1d972577 1db725b8     ..h..Dx5w%...%..
   1fe60:	25d825b7 1db71db7 1db81db7 25b81d98     .%.%...........%
   1fe70:	25982598 25982598 25b825b8 1db81db8     .%.%.%.%.%.%....
   1fe80:	259825b8 34d52d98 5bb10128 fffff7ff     .%.%.-.4(..[....
   1fe90:	ffddffff 9266fed8 c2a499e2 fc69fc6a     ......f.....j.i.
   1fea0:	fc48fc48 fc68fc68 fc68fc48 fc48fc48     H.H.h.h.H.h.H.H.
   1feb0:	fc89fc68 b222eba6 cc4e9a03 fffeffdd     h....."...N.....
   1fec0:	ffddffde e4edfed7 fc88fcaa fc68fc68     ............h.h.
   1fed0:	fc68fc48 fc48fc68 fc68fc68 f3e7fc68     H.h.h.H.h.h.h...
   1fee0:	91e2b221 ffbdb40d ffffffde df5effff     !.............^.
   1fef0:	00440927 ffff8cf5 ffdeffff e5d4ffdd     '.D.............
   1ff00:	a2029223 fc8ad325 fc68fc69 fc68fc68     #...%...i.h.h.h.
   1ff10:	e4abfc8a fffefeb6 2989f75e 4c9500e7     ........^..)...L
   1ff20:	35773557 00e74c95 ffdf426b f655ffdd     W5w5.L..kB....U.
   1ff30:	fca9e48b fc68fc88 fc68fc68 fc69fc68     ......h.h.h.h.i.
   1ff40:	e4acfc89 fffffed8 0024ad16 4cd609aa     ..........$....L
   1ff50:	25982d78 25982598 25b825b8 25b825b8     x-.%.%.%.%.%.%.%
   1ff60:	25b825b8 25b825b8 25b825b8 25b825b8     .%.%.%.%.%.%.%.%
   1ff70:	25b825b8 25b825b8 25b825b8 25b825b8     .%.%.%.%.%.%.%.%
   1ff80:	25b825b8 25b825b8 25b825b8 25b825b8     .%.%.%.%.%.%.%.%
   1ff90:	25b825b8 25b825b8 1d981db8 155725b8     .%.%.%.%.....%W.
   1ffa0:	25b825b8 25b825b8 25b825b8 25b825b8     .%.%.%.%.%.%.%.%
   1ffb0:	25b825b8 25b825b8 25b825b8 25b825b8     .%.%.%.%.%.%.%.%
   1ffc0:	25b825b8 25b825b8 25b825b8 25b825b8     .%.%.%.%.%.%.%.%
   1ffd0:	25b825b8 25b825b8 25b825b8 25b825b8     .%.%.%.%.%.%.%.%
   1ffe0:	1d981db8 25981db8 35162d77 64f53c94     .......%w-.5.<.d
   1fff0:	9cf58cf5 ffbef77e cc8fddd5 d3c8dcad     ....~...........
   20000:	eb45e366 f345eb45 f345f345 f345f345     f.E.E.E.E.E.E.E.
   20010:	f345f345 f345f345 eb45f345 eb66eb45     E.E.E.E.E.E.E.f.
   20020:	d42bd346 ffdeff7b ffdeffde cd52ff9c     F.+.{.........R.
   20030:	d40acc8e eb46db87 eb45eb45 eb24eb25     ......F.E.E.%.$.
   20040:	eb45eb45 f345f345 f345f345 eb45f345     E.E.E.E.E.E.E.E.
   20050:	eb65eb45 d40bdb46 ffdcff3a c388fe14     E.e.F...:.......
   20060:	eb65e366 f345f345 eb45f345 e366eb45     f.e.E.E.E.E.E.f.
   20070:	fe34c388 fef8ffdc db66d3ea f345eb65     ..4.......f.e.E.
   20080:	f365f365 eb45f345 eb45eb45 e366eb45     e.e.E.E.E.E.E.f.
   20090:	fed7c3ca e5d3ffdc eb66cb67 eb65eb65     ........g.f.e.e.
   200a0:	eb45eb65 eb66eb45 cba9e367 fffdfef7     e.E.E.f.g.......
   200b0:	ffbdffdd d5f5ffbd dcadc48f e345dba8     ..............E.
   200c0:	eb45eb65 eb45f365 d40adb66 ffffff39     e.E.e.E.f...9...
   200d0:	0167b619 357844f6 1d982598 1d971d98     ..g..Dx5.%......
   200e0:	25b825b8 25b825b8 25b81d97 25b82598     .%.%.%.%...%.%.%
   200f0:	1db81db8 1db81db8 25b825b8 25b825b8     .........%.%.%.%
   20100:	259825b8 35772598 54d53494 8c938536     .%.%.%w5.4.T6...
   20110:	ffdfce7a ccf1ff1b d42bcc8e eb66db67     z.........+.g.f.
   20120:	eb45eb65 eb45eb65 eb45eb45 eb24eb25     e.E.e.E.E.E.%.$.
   20130:	db46eb45 dc8dd3a8 e616c48f ffbeffde     E.F.............
   20140:	ffdeffde c3a9fe96 eb45e366 f345eb45     ........f.E.E.E.
   20150:	f345f345 eb25f345 eb46eb45 db88e346     E.E.E.%.E.F.F...
   20160:	c4afdc8d ffbeddd5 a536ff9f 85788cd5     ..........6...x.
   20170:	44544c54 8d367516 e6db8cb4 eeb9ffde     TLTD.u6.........
   20180:	d48ec4b0 db66dbea eb65e365 eb45eb45     ......f.e.e.E.E.
   20190:	cb88e366 fffef656 2988f75e 44b50127     f...V...^..)'..D
   201a0:	35773577 010744b5 ffdf424b edf4ffdd     w5w5.D..KB......
   201b0:	eb66cb67 eb65eb65 eb44eb44 eb45eb45     g.f.e.e.D.D.E.E.
   201c0:	cba8e366 fffff697 0024acf6 4cd609aa     f.........$....L
   201d0:	25982d78 25982598 25b825b8 25b825b8     x-.%.%.%.%.%.%.%
   201e0:	25b825b8 25b825b8 25b825b8 25b825b8     .%.%.%.%.%.%.%.%
   201f0:	25b825b8 25b825b8 25b825b8 25b825b8     .%.%.%.%.%.%.%.%
   20200:	25b825b8 25b825b8 25b825b8 25b825b8     .%.%.%.%.%.%.%.%
   20210:	25b825b8 25b825b8 1d981db8 155725b8     .%.%.%.%.....%W.
   20220:	25b825b8 25b825b8 25b825b8 25b825b8     .%.%.%.%.%.%.%.%
   20230:	25b825b8 25b825b8 25b825b8 25b825b8     .%.%.%.%.%.%.%.%
   20240:	25b825b8 25b825b8 25b825b8 25b825b8     .%.%.%.%.%.%.%.%
   20250:	25b825b8 25b825b8 25b825b8 25b825b8     .%.%.%.%.%.%.%.%
   20260:	1db81db8 25981db8 2d772598 44f53d97     .......%.%w-.=.D
   20270:	08e500c5 ffdfe75e ffbcffbe c3caff9a     ....^...........
   20280:	ca42b222 ca22ca22 c222ca22 ca22ca22     ".B.".".".".".".
   20290:	ca21ca22 ca21ca22 c222ca22 c242c221     ".!.".!.".".!.B.
   202a0:	b328b223 fffeff5b f7beffde ffddffbe     #.(.[...........
   202b0:	e571ffbc c243a223 ca22c222 c242ca22     ..q.#.C.".".".B.
   202c0:	c222c242 ca21ca22 ca22c221 ca22ca22     B.".".!.!.".".".
   202d0:	c243ca22 b308b223 ffddff1a 9a44f5d4     ".C.#.........D.
   202e0:	c221ba63 ca22ca22 c222ca22 ba63c221     c.!.".".".".!.c.
   202f0:	edf39a43 e615ffdc ba439a44 ca22c222     C.......D.C.".".
   20300:	c222c222 ca22ca22 c222c222 ba43ca22     ".".".".".".".C.
   20310:	fe969aa6 d551ffdc c243a224 c221c222     ......Q.$.C.".!.
   20320:	c222c222 c222c222 a285ba43 fffdf697     ".".".".C.......
   20330:	ffdeffde ffdef7be ff7affdd b202c389     ..........z.....
   20340:	c221c242 c222ca22 aae7b223 ffffff1a     B.!.".".#.......
   20350:	0147b619 357844f6 25b82598 25982598     ..G..Dx5.%.%.%.%
   20360:	25982598 1db825b8 25b825b8 25b82598     .%.%.%...%.%.%.%
   20370:	1db825b8 1db81db8 25b825b8 25b825b8     .%.......%.%.%.%
   20380:	25b825b8 25972598 4d573577 004301ea     .%.%.%.%w5WM..C.
   20390:	ffff8493 ffdeff9e f5d3ffbc ba43aa44     ............D.C.
   203a0:	c242c242 c221c242 c222c222 c222c201     B.B.B.!."."...".
   203b0:	aa02c243 ff9ac3ca ffdeffdc f79effbe     C...............
   203c0:	ffdeffbe 9a85f656 c242b243 c221c221     ....V...C.B.!.!.
   203d0:	c222c222 c222c202 c243c222 c348b202     "."...".".C...H.
   203e0:	ffddff3a ffbfffbe 1968f7bf 3bf20064     :.........h.d..;
   203f0:	45784d58 01064cd5 be190042 ffbeffdf     XMxE.L..B.......
   20400:	ffbcffbe a223e4cf c221ba42 c222c222     ......#.B.!.".".
   20410:	a244c243 fffeee15 2988f77e 44b50127     C.D.....~..)'..D
   20420:	35773577 010644b5 ffbf426b dd72ffde     w5w5.D..kB....r.
   20430:	c243a224 c221c222 c221c221 c222c222     $.C.".!.!.!.".".
   20440:	a285ba63 ffffee56 0044acf5 4cd709aa     c...V.....D....L
   20450:	25982d78 25982598 25b825b8 25b825b8     x-.%.%.%.%.%.%.%
   20460:	25b825b8 25b825b8 25b825b8 25b825b8     .%.%.%.%.%.%.%.%
   20470:	25b825b8 25b825b8 25b825b8 25b825b8     .%.%.%.%.%.%.%.%
   20480:	25b825b8 25b825b8 25b825b8 25b825b8     .%.%.%.%.%.%.%.%
   20490:	25b825b8 25b825b8 1d981db8 155725b8     .%.%.%.%.....%W.
   204a0:	25b825b8 25b825b8 25b825b8 25b825b8     .%.%.%.%.%.%.%.%
   204b0:	25b825b8 25b825b8 25b825b8 25b825b8     .%.%.%.%.%.%.%.%
   204c0:	25b825b8 25b825b8 25b825b8 25b825b8     .%.%.%.%.%.%.%.%
   204d0:	25b825b8 25b825b8 25b825b8 25b825b8     .%.%.%.%.%.%.%.%
   204e0:	25b825b8 25982598 259725b8 2d362d98     .%.%.%.%.%.%.-6-
   204f0:	2acd0acd ffffd79f ffbdffff ab8bff7c     ...*........|...
   20500:	b2249a24 b223b224 b223b223 b223b223     $.$.$.#.#.#.#.#.
   20510:	b223b223 b223b223 aa23b223 aa44aa23     #.#.#.#.#.#.#.D.
   20520:	a32a9a04 ffdeff3b ffffffff ffbeffff     ..*.;...........
   20530:	d553ffdd aa659224 b223aa23 b223b223     ..S.$.e.#.#.#.#.
   20540:	aa43aa23 aa23aa23 b223b223 aa23b223     #.C.#.#.#.#.#.#.
   20550:	aa44aa23 a3099a25 ffddff3b 8a25edf5     #.D.%...;.....%.
   20560:	b223a245 b223b224 aa23b223 aa64aa43     E.#.$.#.#.#.C.d.
   20570:	e5d48a44 e615ffdd aa659245 b224aa24     D.......E.e.$.$.
   20580:	aa23aa23 aa24aa23 aa23aa43 aa45aa23     #.#.#.$.C.#.#.E.
   20590:	f69792a7 cd52ffdc aa459225 b223b224     ......R.%.E.$.#.
   205a0:	aa24aa24 aa44b224 9265a244 fffdf697     $.$.$.D.D.e.....
   205b0:	fffffffe ffffffff ff9cffbd 9a03b38a     ................
   205c0:	b223aa43 b244b203 a2e8a224 ffffff1a     C.#...D.$.......
   205d0:	0147be19 357844f5 25b82597 25982598     ..G..Dx5.%.%.%.%
   205e0:	25b82598 1db81db8 1db81db8 25982598     .%.%.........%.%
   205f0:	25982598 25b825b8 25b825b8 25b825b8     .%.%.%.%.%.%.%.%
   20600:	25b825b8 259725b8 35772597 0a0a1b90     .%.%.%.%.%w5....
   20610:	f7ff9598 ffbeffff ddd4ffdd aa449225     ............%.D.
   20620:	b223aa43 aa23b223 aa23aa23 b223aa23     C.#.#.#.#.#.#.#.
   20630:	9a24b244 ff9bb3cc ffdeffbd ffffffff     D.$.............
   20640:	ffdeffdf 8a86f677 aa44a265 aa23aa24     ....w...e.D.$.#.
   20650:	aa23aa23 b223aa03 aa44b224 ab499a24     #.#...#.$.D.$.I.
   20660:	ffbeff3b ffffffdf 334fe7ff 34940a6c     ;.........O3l..4
   20670:	2d773577 0b2e3516 ae9b0a6b fffff7ff     w5w-.5..k.......
   20680:	ffbdffbe 9224ccb0 b223aa44 aa24b203     ......$.D.#...$.
   20690:	8a45a244 fffee615 2988f77e 44b50107     D.E.....~..)...D
   206a0:	35773577 010744b5 ffbf426b cd73ffff     w5w5.D..kB....s.
   206b0:	aa448a04 aa23aa24 aa23aa23 aa24b224     ..D.$.#.#.#.$.$.
   206c0:	9245aa45 ffffe657 0024acf6 4cd709aa     E.E.W.....$....L
   206d0:	25982d78 25982598 25b825b8 25b825b8     x-.%.%.%.%.%.%.%
   206e0:	25b825b8 25b825b8 25b825b8 25b825b8     .%.%.%.%.%.%.%.%
   206f0:	25b825b8 25b825b8 25b825b8 25b825b8     .%.%.%.%.%.%.%.%
   20700:	25b825b8 25b825b8 25b825b8 25b825b8     .%.%.%.%.%.%.%.%
   20710:	25b825b8 25b825b8 1d981db8 155725b8     .%.%.%.%.....%W.
   20720:	25b825b8 25b825b8 25b825b8 25b825b8     .%.%.%.%.%.%.%.%
   20730:	25b825b8 25b825b8 25b825b8 25b825b8     .%.%.%.%.%.%.%.%
   20740:	25b825b8 25b825b8 25b825b8 25b825b8     .%.%.%.%.%.%.%.%
   20750:	25b825b8 25b825b8 25b825b8 25b825b8     .%.%.%.%.%.%.%.%
   20760:	25b825b8 25982598 1db81d98 255725b8     .%.%.%.%.....%W%
   20770:	55363d57 534e6493 ffffbe18 e616ff9d     W=6U.dNS........
   20780:	ed32e532 ed31ed32 ed52ed31 ed31f552     2.2.2.1.1.R.R.1.
   20790:	ed31f552 ed31ed31 ed31ed31 ed52ed32     R.1.1.1.1.1.2.R.
   207a0:	e5b5e532 ffdfff7d 6b0d9cd4 e6db734e     2...}......kNs..
   207b0:	f6b9ffde ed52dd53 f531f552 ed31ed31     ....S.R.R.1.1.1.
   207c0:	ed51ed51 ed51ed51 ed51ed51 ed51ed51     Q.Q.Q.Q.Q.Q.Q.Q.
   207d0:	ed52ed51 e5d5e532 ffbdff7c d553fefa     Q.R.2...|.....S.
   207e0:	ed52e552 ed52ed32 ed51ed52 e551ed51     R.R.2.R.R.Q.Q.Q.
   207f0:	fef9dd52 f6faffbd ed52dd32 f552f553     R.......2.R.S.R.
   20800:	ed51ed52 ed31f552 f552ed51 e552f552     R.Q.R.1.Q.R.R.R.
   20810:	ff1add93 eeb9ffbd ed52dd33 f532f552     ........3.R.R.2.
   20820:	ed52f552 ed32ed32 dd93ed52 ffdeff5b     R.R.2.2.R...[...
   20830:	738fef3c bdf8630d ff9dffdf e552e615     <..s.c........R.
   20840:	f531ed51 f552f531 ddb4e552 ffffff5c     Q.1.1.R.R...\...
   20850:	0147b619 357744f6 25b82598 25b825b8     ..G..Dw5.%.%.%.%
   20860:	25b81d97 1db81db8 1db81db8 25982598     ...%.........%.%
   20870:	25982598 25982598 25b825b8 25b825b8     .%.%.%.%.%.%.%.%
   20880:	25b825b8 1d9825b8 2d9825b8 4d373d57     .%.%.%...%.-W=7M
   20890:	4b6f64d5 f7bf7411 f71affde ed52dd73     .doK.t......s.R.
   208a0:	f531ed31 f531f531 ed51ed51 ed31f551     1.1.1.1.Q.Q.Q.1.
   208b0:	e552ed52 ff7ce616 bdb7ffde 7b8f62ed     R.R...|......b.{
   208c0:	ffdeef3d dd73ff1b ed52e552 ed31ed32     =.....s.R.R.2.1.
   208d0:	ed31ed31 ed31ed31 ed52ed31 e5d5e552     1.1.1.1.1.R.R...
   208e0:	ffdfff7d 534ec65a 5d575453 35774536     }...Z.NSSTW]6Ew5
   208f0:	25b72597 3d572d77 54934d56 94d44b4e     .%.%w-W=VM.TNK..
   20900:	ffbeffff dd53f698 ed31ed72 ed32f532     ......S.r.1.2.2.
   20910:	dd73ed52 ffbef71a 2188f75e 44b50127     R.s.....^..!'..D
   20920:	35773577 010644b5 ffbf424b eed9ffbe     w5w5.D..KB......
   20930:	ed52dd32 ed31f552 ed32ed31 f552f532     2.R.R.1.1.2.2.R.
   20940:	dd53ed32 ffdff71a 0024acf6 4cd709aa     2.S.......$....L
   20950:	25983577 25b82598 25b825b8 25b825b8     w5.%.%.%.%.%.%.%
   20960:	25b825b8 25b825b8 25b825b8 25b825b8     .%.%.%.%.%.%.%.%
   20970:	25b825b8 25b825b8 25b825b8 25b825b8     .%.%.%.%.%.%.%.%
   20980:	25b825b8 25b825b8 25b825b8 25b825b8     .%.%.%.%.%.%.%.%
   20990:	25b825b8 25b825b8 1d981db8 155725b8     .%.%.%.%.....%W.
   209a0:	25b825b8 25b825b8 25b825b8 25b825b8     .%.%.%.%.%.%.%.%
   209b0:	25b825b8 25b825b8 25b825b8 25b825b8     .%.%.%.%.%.%.%.%
   209c0:	25b825b8 25b825b8 25b825b8 25b825b8     .%.%.%.%.%.%.%.%
   209d0:	25b825b8 25b825b8 25b825b8 25b825b8     .%.%.%.%.%.%.%.%
   209e0:	25b81db8 25b825b8 1d981d98 25981d98     ...%.%.%.......%
   209f0:	45772d77 00632b90 ffff84f4 ffffffff     w-wE.+c.........
   20a00:	ffdeffde ffdeffde ffdeffde ffdeffde     ................
   20a10:	ffdeffde ffdeffde ffdeffde ffdeffde     ................
   20a20:	ffdeffde ffffffff 080262cd de9b1043     .........b..C...
   20a30:	ffffffff ffdeffdf ffdeffde ffdeffde     ................
   20a40:	ffdeffde ffdeffde ffdeffde ffdeffde     ................
   20a50:	ffdeffde ffdfffde ffffffff ffdfffdf     ................
   20a60:	ffdeffde ffdeffde ffdeffde ffdeffde     ................
   20a70:	ffffffde ffffffff ffdeffdf ffdeffde     ................
   20a80:	ffdeffde ffdeffde ffdeffde ffdeffde     ................
   20a90:	ffffffdf ffffffff ffdeffdf ffdeffde     ................
   20aa0:	ffdeffde ffdeffde ffdeffde ffffffff     ................
   20ab0:	18a4e71d 9cf40001 ffffffff ffdeffdf     ................
   20ac0:	ffdeffde ffdeffde ffdeffde ffffffff     ................
   20ad0:	0147be3a 357844f6 25b82598 1db825b8     :.G..Dx5.%.%.%..
   20ae0:	1db81db8 1db81db8 1db81db8 25b825b8     .............%.%
   20af0:	25b825b8 25b825b8 25b825b8 25b825b8     .%.%.%.%.%.%.%.%
   20b00:	25b825b8 25982598 259825b8 35772597     .%.%.%.%.%.%.%w5
   20b10:	01273c94 efff0987 ffffffff ffdeffdf     .<'.............
   20b20:	ffdeffde ffbeffbe ffdeffde ffdeffde     ................
   20b30:	ffdeffde ffffffdf 9473ffdf 20e60002     ..........s.... 
   20b40:	ffffef3e ffdfffff ffdeffde ffdeffde     >...............
   20b50:	ffdeffde ffdeffde ffdeffbe ffffffde     ................
   20b60:	ffffffff 00849d97 4578132f 2d972d57     ......../.xEW-.-
   20b70:	1d981d97 2d772598 23d14598 4b0d0063     .....%w-.E.#c..K
   20b80:	ffffffff ffdeffff ffdeffde ffdeffbe     ................
   20b90:	ffdeffde ffffffff 2988ffdf 44950107     ...........)...D
   20ba0:	35773578 010744b5 ffdf424b ffffffff     x5w5.D..KB......
   20bb0:	ffdeffde ffdeffde ffdeffde ffdeffde     ................
   20bc0:	ffdeffde ffffffff 0024ad37 4cd609aa     ........7.$....L
   20bd0:	25983577 25b82598 1db825b8 25b825b8     w5.%.%.%.%...%.%
   20be0:	25b825b8 25b825b8 25b825b8 25b825b8     .%.%.%.%.%.%.%.%
   20bf0:	25b825b8 25b825b8 25b825b8 25b825b8     .%.%.%.%.%.%.%.%
   20c00:	25b825b8 25b825b8 25b825b8 25b825b8     .%.%.%.%.%.%.%.%
   20c10:	25b825b8 25b825b8 1d981db8 155725b8     .%.%.%.%.....%W.
   20c20:	25b825b8 25b825b8 25b825b8 25b825b8     .%.%.%.%.%.%.%.%
   20c30:	25b825b8 25b825b8 25b825b8 25b825b8     .%.%.%.%.%.%.%.%
   20c40:	25b825b8 25b825b8 25b825b8 25b825b8     .%.%.%.%.%.%.%.%
   20c50:	25b825b8 25b825b8 25b825b8 25b825b8     .%.%.%.%.%.%.%.%
   20c60:	1db81db8 1d9825b8 25b825b8 259825b8     .....%...%.%.%.%
   20c70:	35972598 3c323d16 be9b7d36 ce5ac63a     .%.5.=2<6}..:.Z.
   20c80:	ce5ac63a ce5ace5a ce5ace5a ce5ace3a     :.Z.Z.Z.Z.Z.:.Z.
   20c90:	ce5ace5a ce5ace5a ce5ace5a ce5ace5a     Z.Z.Z.Z.Z.Z.Z.Z.
   20ca0:	ce5ace5a ce5bc63a 10455aad ad3720c6     Z.Z.:.[..ZE.. 7.
   20cb0:	ce3ace5b ce5ace5a ce5ace5a ce5ace5a     [.:.Z.Z.Z.Z.Z.Z.
   20cc0:	ce5ace5a ce5ace5a ce5ace5a ce5ace5a     Z.Z.Z.Z.Z.Z.Z.Z.
   20cd0:	ce5ace5a ce5ace5a ce5ace5a ce5ace5a     Z.Z.Z.Z.Z.Z.Z.Z.
   20ce0:	ce5ace5a ce5ace5a ce5ace5a ce5ace5a     Z.Z.Z.Z.Z.Z.Z.Z.
   20cf0:	ce5ace5a ce5ace5a c67ac65a c67ac67a     Z.Z.Z.Z.Z.z.z.z.
   20d00:	c67abe5a c67ac67a c65ac67b ce5bc65a     Z.z.z.z.{.Z.Z.[.
   20d10:	ce7bce7b ce5ace7b ce7ace5a c65ac65a     {.{.{.Z.Z.z.Z.Z.
   20d20:	c67ac67a c67ac67a c67ac67b c67bc67a     z.z.z.z.{.z.z.{.
   20d30:	2148ad98 7c320884 be7ac69b c67ac67a     ..H!..2|..z.z.z.
   20d40:	c67bc67a c67bc67b c69bc67a c69bc67a     z.{.{.{.z...z...
   20d50:	01888d36 2d774516 25b82598 1d981db8     6....Ew-.%.%....
   20d60:	1db81db8 1db81db8 1db81db8 25b825b8     .............%.%
   20d70:	25b825b8 25b825b8 25b825b8 25b825b8     .%.%.%.%.%.%.%.%
   20d80:	25b825b8 25982598 1db81db8 25771d97     .%.%.%.%......w%
   20d90:	44b53d57 ae9b5474 c65ac67b ce5ace5a     W=.DtT..{.Z.Z.Z.
   20da0:	ce5ace5a ce5ace3a ce5ace5a ce5ace5a     Z.Z.:.Z.Z.Z.Z.Z.
   20db0:	ce5ace5a c63ace5a 7bd1d67b 31281045     Z.Z.Z.:.{..{E.(1
   20dc0:	ce5bb598 ce5ace5a ce5ace5a ce5ace3a     ..[.Z.Z.Z.Z.:.Z.
   20dd0:	ce5ace5a ce5ace5a ce3ace3a c65ac63a     Z.Z.Z.Z.:.:.:.Z.
   20de0:	c69bc65a 3c3385b8 2d784578 25b82598     Z.....3<xEx-.%.%
   20df0:	1db81db8 25982598 35162d77 6cd53c33     .....%.%w-.53<.l
   20e00:	be5abe9b ce5ace5a ce5ace5a ce5ace5a     ..Z.Z.Z.Z.Z.Z.Z.
   20e10:	ce5ace5a ce5bce5a 2168c61a 44960128     Z.Z.Z.[...h!(..D
   20e20:	35573578 01273c95 ce5b320a ce5ace5a     x5W5.<'..2[.Z.Z.
   20e30:	ce5ace5a ce5ace5a ce5ace5a ce5ace5a     Z.Z.Z.Z.Z.Z.Z.Z.
   20e40:	ce5ace5a d67bce5a 00658c13 4cf609ca     Z.Z.Z.{...e....L
   20e50:	25983577 25982598 1db81db8 25b825b8     w5.%.%.%.....%.%
   20e60:	25b825b8 25b825b8 25b825b8 25b825b8     .%.%.%.%.%.%.%.%
   20e70:	25b825b8 25b825b8 25b825b8 25b825b8     .%.%.%.%.%.%.%.%
   20e80:	25b825b8 25b825b8 25b825b8 25b825b8     .%.%.%.%.%.%.%.%
   20e90:	25b825b8 25b825b8 1d981db8 155725b8     .%.%.%.%.....%W.
   20ea0:	25b825b8 25b825b8 25b825b8 25b825b8     .%.%.%.%.%.%.%.%
   20eb0:	25b825b8 25b825b8 25b825b8 25b825b8     .%.%.%.%.%.%.%.%
   20ec0:	25b825b8 25b825b8 25b825b8 25b825b8     .%.%.%.%.%.%.%.%
   20ed0:	25b825b8 25b825b8 25b825b8 25b825b8     .%.%.%.%.%.%.%.%
   20ee0:	25b825b8 25b82598 25b825b8 259825b8     .%.%.%.%.%.%.%.%
   20ef0:	25972598 3d982d77 01684cd5 18a608c6     .%.%w-.=.Lh.....
   20f00:	18a618a6 10c510a5 10a510a5 10a510a5     ................
   20f10:	10a610a5 18c610a6 10a510a6 10a610a6     ................
   20f20:	10c610a5 10a610a6 18c718c7 108618a7     ................
   20f30:	10a610a6 10a510a5 10a510a6 10a510a5     ................
   20f40:	10a510a5 10a610a5 10a610a6 10a618a6     ................
   20f50:	10a610a6 10a610a6 10a510a5 10a510a5     ................
   20f60:	10a510a5 10a510a5 10a51085 10a618a6     ................
   20f70:	10a610a6 10a618a6 00a510c6 010600c6     ................
   20f80:	01060106 00e600e6 008500c6 008500a5     ................
   20f90:	00850085 00850085 00850085 00a500a5     ................
   20fa0:	00e600e6 00e600e6 00e600e6 00c600e6     ................
   20fb0:	00c600c6 00e700e7 00e500e6 00e600e6     ................
   20fc0:	00e600e6 00e600e6 010600e6 00e60106     ................
   20fd0:	01a900e7 2d783516 25b82598 1d9825b8     .....5x-.%.%.%..
   20fe0:	1db81db8 1db81db8 25b81db8 25b825b8     ...........%.%.%
   20ff0:	25982598 25b825b8 25b825b8 25b825b8     .%.%.%.%.%.%.%.%
   21000:	25b825b8 25982598 1db825b8 25b81db7     .%.%.%.%.%.....%
   21010:	35572d77 128c5557 10c60085 18a518a6     w-W5WU..........
   21020:	10a610a6 18a610a5 10a610a6 10a510a6     ................
   21030:	10a510a6 10a610a6 18a618a6 188618a7     ................
   21040:	10a618a6 10a510a5 10a610a6 10a518a6     ................
   21050:	10a610a6 10a510a6 10a61086 10a610a6     ................
   21060:	010708c6 45783c32 25982d57 1db82598     ....2<xEW-.%.%..
   21070:	1db81db8 25982598 2d982598 4d363d57     .....%.%.%.-W=6M
   21080:	00a509c9 10a610c6 10a610a6 10a610a6     ................
   21090:	10a610a6 18a618a5 10e718a6 3c950149     ............I..<
   210a0:	35773578 01493c95 10a608e7 10c610c6     x5w5.<I.........
   210b0:	10c510c6 10c510c6 10a510a5 10a610a6     ................
   210c0:	10a610a5 18a610a6 08c718a7 44f6018a     ...............D
   210d0:	25983577 1db82598 1db81db8 25b825b8     w5.%.%.......%.%
   210e0:	25b825b8 25b825b8 25b825b8 25b825b8     .%.%.%.%.%.%.%.%
   210f0:	25b825b8 25b825b8 25b825b8 25b825b8     .%.%.%.%.%.%.%.%
   21100:	25b825b8 25b825b8 25b825b8 25b825b8     .%.%.%.%.%.%.%.%
   21110:	25b825b8 25b825b8 1d981db8 155725b8     .%.%.%.%.....%W.
   21120:	25b825b8 25b825b8 25b825b8 25b825b8     .%.%.%.%.%.%.%.%
   21130:	25b825b8 25b825b8 25b825b8 25b825b8     .%.%.%.%.%.%.%.%
   21140:	25b825b8 25b825b8 25b825b8 25b825b8     .%.%.%.%.%.%.%.%
   21150:	25b825b8 25b825b8 25b825b8 25b825b8     .%.%.%.%.%.%.%.%
   21160:	25b825b8 25b82598 25b825b8 25b825b8     .%.%.%.%.%.%.%.%
   21170:	1d972598 25771db8 0a8c3d36 00e700e7     .%....w%6=......
   21180:	00e700c7 00c600e6 00c700c6 00c700c7     ................
   21190:	00e700c7 00e700e7 00e700e7 00e700e7     ................
   211a0:	00e700e7 00c700e7 00c700c7 00c700c7     ................
   211b0:	00c700e7 00e700e7 00c700e7 00c700c7     ................
   211c0:	00c700c7 00c700c7 00c700c7 00c700c7     ................
   211d0:	00e700c7 00e700c7 00c700e7 00c700c7     ................
   211e0:	00c700c7 00c700c7 00c700c7 00c700c7     ................
   211f0:	00c700c7 00e700e7 09ea0107 44333bb1     .............;3D
   21200:	3c123c32 44333c12 126c3bb1 1a4d1a4d     2<.<.<3D.;l.M.M.
   21210:	1a4c1a4d 1a4c1a4c 124c1a4c 128d124c     M.L.L.L.L.L.L...
   21220:	44333bf2 3c133c13 3c123c13 3c333c33     .;3D.<.<.<.<3<3<
   21230:	3c333c13 3c333c34 3c333c33 3c333c33     .<3<4<3<3<3<3<3<
   21240:	3c333c33 3c133c13 3c333c13 3c333c33     3<3<.<.<.<3<3<3<
   21250:	34743c34 2d983537 25b82598 25b825b8     4<t475.-.%.%.%.%
   21260:	1db81db8 1db81db8 25b825b8 25b825b8     .........%.%.%.%
   21270:	25982598 25b825b8 25b825b8 25b825b8     .%.%.%.%.%.%.%.%
   21280:	25b825b8 25982598 1db825b8 1d971db8     .%.%.%.%.%......
   21290:	2d772597 23d13d77 00e70189 00c700c7     .%w-w=.#........
   212a0:	00e700e7 00c700e7 00c700e7 00e700c7     ................
   212b0:	00e700c7 00c700e7 00e700e8 00c700c7     ................
   212c0:	00e700e7 00e700c7 00e700e7 00c700e7     ................
   212d0:	00c700c7 00c700c7 00c700c7 00e700e7     ................
   212e0:	01ca00e7 359834d5 25982598 1d9825b8     .....4.5.%.%.%..
   212f0:	1db81db8 25982598 259825b8 3d772d98     .....%.%.%.%.-w=
   21300:	01681b2f 00c700c7 00e700e7 00e700e7     /.h.............
   21310:	00e700e7 00e700e7 00e700e7 3cf601eb     ...............<
   21320:	35772d57 020b3cf6 00e70108 010700e7     W-w5.<..........
   21330:	00e700e7 00e700e7 00e700e7 00e700e7     ................
   21340:	00e700e7 00c700c7 00e800e8 3d37022c     ............,.7=
   21350:	1d982d78 1db82598 1db81db8 25b825b8     x-...%.......%.%
   21360:	25b825b8 25b825b8 25b825b8 25b825b8     .%.%.%.%.%.%.%.%
   21370:	25b825b8 25b825b8 25b825b8 25b825b8     .%.%.%.%.%.%.%.%
   21380:	25b825b8 25b825b8 25b825b8 25b825b8     .%.%.%.%.%.%.%.%
   21390:	25b825b8 25b825b8 1d981db8 155725b8     .%.%.%.%.....%W.
   213a0:	25b825b8 25b825b8 25b825b8 25b825b8     .%.%.%.%.%.%.%.%
   213b0:	25b825b8 25b825b8 25b825b8 25b825b8     .%.%.%.%.%.%.%.%
   213c0:	25b825b8 25b825b8 25b825b8 25b825b8     .%.%.%.%.%.%.%.%
   213d0:	25b825b8 25b825b8 25b825b8 25b825b8     .%.%.%.%.%.%.%.%
   213e0:	25982598 25b825b8 1db825b8 25b825b8     .%.%.%.%.%...%.%
   213f0:	1d981db8 25981d98 35162d77 34743494     .......%w-.5.4t4
   21400:	3c543c74 3c543c54 3c543c53 34543454     t<T<T<T<S<T<T4T4
   21410:	34533453 34533453 3c543453 3c543c54     S4S4S4S4S4T<T<T<
   21420:	3c543454 3c543c54 34333c54 3c543433     T4T<T<T<T<3434T<
   21430:	34533c54 34543454 34533c54 34543c54     T<S4T4T4T<S4T<T4
   21440:	34533453 34543454 34533453 34533453     S4S4T4T4S4S4S4S4
   21450:	34533453 34543454 34533454 34543c54     S4S4T4T4T4S4T<T4
   21460:	34533c53 34533453 3c543453 3c543c54     S<S4S4S4S4T<T<T<
   21470:	3c543c54 3c743c74 45373474 3d784578     T<T<t<t<t47ExEx=
   21480:	3d783d78 3d773d98 45783d78 45784578     x=x=.=w=x=xExExE
   21490:	45784578 4d784d78 45784578 3d784578     xExExMxMxExExEx=
   214a0:	3d783d78 3d983d98 3d983d98 3d983d77     x=x=.=.=.=.=w=.=
   214b0:	35983d98 3d983578 3d983d98 3d983d98     .=.5x5.=.=.=.=.=
   214c0:	3d983d98 3d983d78 3d983d98 35783577     .=.=x=.=.=.=w5x5
   214d0:	35983598 25982d78 1d982598 25b825b8     .5.5x-.%.%...%.%
   214e0:	1db81db8 25b825b8 25b825b8 25b825b8     .....%.%.%.%.%.%
   214f0:	25b825b8 25b825b8 25b825b8 25b825b8     .%.%.%.%.%.%.%.%
   21500:	25982598 25982598 25b82598 25b825b8     .%.%.%.%.%.%.%.%
   21510:	259825b8 35782577 347434f5 3c543c54     .%.%w%x5.4t4T<T<
   21520:	3c543c54 34543c54 34533453 34533453     T<T<T<T4S4S4S4S4
   21530:	34543453 3c543c54 3c543c54 3c543434     S4T4T<T<T<T<44T<
   21540:	3c543c54 34543c54 3c543454 34543454     T<T<T<T4T4T<T4T4
   21550:	34543453 34543454 3c543454 34943474     S4T4T4T4T4T<t4.4
   21560:	34f53474 25983577 1db82598 1db81d98     t4.4w5.%.%......
   21570:	1db81db8 1d9825b8 259825b8 2d772598     .....%...%.%.%w-
   21580:	34953d57 34343454 3c533c54 34543454     W=.4T444T<S<T4T4
   21590:	3c543453 3c543c54 34543c54 357834f6     S4T<T<T<T<T4.4x5
   215a0:	25972577 2d162d77 3c742c74 3c543c54     w%.%w-.-t,t<T<T<
   215b0:	3c543c54 3c543c54 34533c53 34533453     T<T<T<T<S<S4S4S4
   215c0:	34533453 34543454 2c543454 2d783516     S4S4T4T4T4T,.5x-
   215d0:	1db82598 1db81db8 1db81db8 25b825b8     .%...........%.%
   215e0:	25b825b8 25b825b8 25b825b8 25b825b8     .%.%.%.%.%.%.%.%
   215f0:	25b825b8 25b825b8 25b825b8 25b825b8     .%.%.%.%.%.%.%.%
   21600:	25b825b8 25b825b8 25b825b8 25b825b8     .%.%.%.%.%.%.%.%
   21610:	25b825b8 25b825b8 1d981db8 155725b8     .%.%.%.%.....%W.
   21620:	25b825b8 25b825b8 25b825b8 25b825b8     .%.%.%.%.%.%.%.%
   21630:	25b825b8 25b825b8 25b825b8 25b825b8     .%.%.%.%.%.%.%.%
   21640:	25b825b8 25b825b8 25b825b8 25b825b8     .%.%.%.%.%.%.%.%
   21650:	25b825b8 25b825b8 25b825b8 25b825b8     .%.%.%.%.%.%.%.%
   21660:	259825b8 25b825b8 1db81db8 25b825b8     .%.%.%.%.....%.%
   21670:	1db81db8 25981d98 2d972598 35983598     .......%.%.-.5.5
   21680:	3d783598 3d573d78 3d783d78 35983578     .5x=x=W=x=x=x5.5
   21690:	3d983d98 3d983d98 3d983d98 35783d98     .=.=.=.=.=.=.=x5
   216a0:	35783d98 35783d78 3d783d78 3d783d78     .=x5x=x5x=x=x=x=
   216b0:	3d983d98 3d983d98 3d983d98 3d983d98     .=.=.=.=.=.=.=.=
   216c0:	3d983d98 3d783d78 3d983d98 3d983d98     .=.=x=x=.=.=.=.=
   216d0:	3d983d98 3d983d98 3d983d98 3d983d98     .=.=.=.=.=.=.=.=
   216e0:	3d983d98 3d983d98 3d983d98 3d783d78     .=.=.=.=.=.=x=x=
   216f0:	35983d98 35983578 2d773598 25982578     .=.5x5.5.5w-x%.%
   21700:	25982598 25972597 25772597 25772577     .%.%.%.%.%w%w%w%
   21710:	25772577 25772577 25772577 25972577     w%w%w%w%w%w%w%.%
   21720:	25982597 25982598 25982578 25982597     .%.%.%.%x%.%.%.%
   21730:	25982597 25982598 25972598 25972597     .%.%.%.%.%.%.%.%
   21740:	25982598 25782578 25982598 25982598     .%.%x%x%.%.%.%.%
   21750:	25982598 25982598 25b825b8 25b825b8     .%.%.%.%.%.%.%.%
   21760:	25b825b8 25b825b8 25b825b8 25b825b8     .%.%.%.%.%.%.%.%
   21770:	25b825b8 25b825b8 25b825b8 25b825b8     .%.%.%.%.%.%.%.%
   21780:	25982598 1d982598 25982598 25982598     .%.%.%...%.%.%.%
   21790:	25b825b8 25972598 35982d98 3d783598     .%.%.%.%.-.5.5x=
   217a0:	3d783d78 35783d78 3d983d98 3d983d98     x=x=x=x5.=.=.=.=
   217b0:	3d983d98 35783d98 35783d78 3d783d78     .=.=.=x5x=x5x=x=
   217c0:	3d783d98 3d783d78 3d983d98 3d983d78     .=x=x=x=.=.=x=.=
   217d0:	3d983d98 3d783d78 3d783d78 35983578     .=.=x=x=x=x=x5.5
   217e0:	2d983598 25982598 1db81db8 25b81db8     .5.-.%.%.......%
   217f0:	25b825b8 25b825b8 25b81db8 25982598     .%.%.%.%...%.%.%
   21800:	2d982577 3d783598 3d783d78 3d983d98     w%.-.5x=x=x=.=.=
   21810:	3d983d98 3d783d98 35983598 25982d98     .=.=.=x=.5.5.-.%
   21820:	25972598 2d982597 3d783598 3d783578     .%.%.%.-.5x=x5x=
   21830:	3d783d78 3d783d78 3d983d78 3d983d98     x=x=x=x=x=.=.=.=
   21840:	3d983d98 35983d98 35983598 25982d98     .=.=.=.5.5.5.-.%
   21850:	1db825b8 1db81db8 1db81db8 25b825b8     .%...........%.%
   21860:	25b825b8 25b825b8 25b825b8 25b825b8     .%.%.%.%.%.%.%.%
   21870:	25b825b8 25b825b8 25b825b8 25b825b8     .%.%.%.%.%.%.%.%
   21880:	25b825b8 25b825b8 25b825b8 25b825b8     .%.%.%.%.%.%.%.%
   21890:	25b825b8 25b825b8 1d981db8 155725b8     .%.%.%.%.....%W.
   218a0:	25b825b8 25b825b8 25b825b8 25b825b8     .%.%.%.%.%.%.%.%
   218b0:	25b825b8 25b825b8 25b825b8 25b825b8     .%.%.%.%.%.%.%.%
   218c0:	25b825b8 25b825b8 25b825b8 25b825b8     .%.%.%.%.%.%.%.%
   218d0:	25b825b8 25b825b8 25b825b8 25b825b8     .%.%.%.%.%.%.%.%
   218e0:	25b825b8 25b825b8 1db81db8 25b825b8     .%.%.%.%.....%.%
   218f0:	25b825b8 1db825b8 25b725b8 25972597     .%.%.%...%.%.%.%
   21900:	2d772577 2d572d57 2d772d77 25982598     w%w-W-W-w-w-.%.%
   21910:	25972597 25972597 25972597 25772597     .%.%.%.%.%.%.%w%
   21920:	25772597 25772577 25972597 25972597     .%w%w%w%.%.%.%.%
   21930:	25972597 25972597 25972597 25772597     .%.%.%.%.%.%.%w%
   21940:	25772577 25772577 25972597 25772577     w%w%w%w%.%.%w%w%
   21950:	25972597 25972597 25972597 25772577     .%.%.%.%.%.%w%w%
   21960:	25972597 25972597 25972597 25972597     .%.%.%.%.%.%.%.%
   21970:	25972597 25972597 25972597 25b82598     .%.%.%.%.%.%.%.%
   21980:	25982598 25982598 25b82598 25b825b8     .%.%.%.%.%.%.%.%
   21990:	1db81db8 25b825b8 25b825b8 25982598     .....%.%.%.%.%.%
   219a0:	25982598 25982598 25982598 25982598     .%.%.%.%.%.%.%.%
   219b0:	25b82598 25982598 25982598 25982598     .%.%.%.%.%.%.%.%
   219c0:	25982598 25982598 25982598 25982598     .%.%.%.%.%.%.%.%
   219d0:	25b825b8 25982598 25b825b8 25b825b8     .%.%.%.%.%.%.%.%
   219e0:	25b825b8 25b825b8 25b825b8 25982598     .%.%.%.%.%.%.%.%
   219f0:	25b825b8 25b825b8 25b825b8 25b825b8     .%.%.%.%.%.%.%.%
   21a00:	25b825b8 25b825b8 25982598 25982598     .%.%.%.%.%.%.%.%
   21a10:	25b82598 25982598 25972597 25972597     .%.%.%.%.%.%.%.%
   21a20:	25972597 25972598 25972597 25772577     .%.%.%.%.%.%w%w%
   21a30:	25772597 25782577 25782578 25782578     .%w%w%x%x%x%x%x%
   21a40:	25982578 25782578 25772577 25772577     x%.%x%x%w%w%w%w%
   21a50:	25972577 25972597 25772577 25772577     w%.%.%.%w%w%w%w%
   21a60:	25972597 25982598 1db81db8 259825b8     .%.%.%.%.....%.%
   21a70:	25982598 1db825b8 25b825b8 259825b8     .%.%.%...%.%.%.%
   21a80:	25972598 25782578 25972577 25972597     .%.%x%x%w%.%.%.%
   21a90:	25972597 25972597 25982597 25982598     .%.%.%.%.%.%.%.%
   21aa0:	25b825b8 25982598 25782597 25782578     .%.%.%.%.%x%x%x%
   21ab0:	25782578 25782578 25972577 25972597     x%x%x%x%w%.%.%.%
   21ac0:	25972597 25972597 25972597 25982597     .%.%.%.%.%.%.%.%
   21ad0:	25982598 1db825b8 1db81d98 25b825b8     .%.%.%.......%.%
   21ae0:	25b825b8 25b825b8 25b825b8 25b825b8     .%.%.%.%.%.%.%.%
   21af0:	25b825b8 25b825b8 25b825b8 25b825b8     .%.%.%.%.%.%.%.%
   21b00:	25b825b8 25b825b8 25b825b8 25b825b8     .%.%.%.%.%.%.%.%
   21b10:	25b825b8 25b825b8 1d981db8 155725b8     .%.%.%.%.....%W.
   21b20:	25b825b8 25b825b8 25b825b8 25b825b8     .%.%.%.%.%.%.%.%
   21b30:	25b825b8 25b825b8 25b825b8 25b825b8     .%.%.%.%.%.%.%.%
   21b40:	25b825b8 25b825b8 25b825b8 25b825b8     .%.%.%.%.%.%.%.%
   21b50:	25b825b8 25b825b8 25b825b8 25b825b8     .%.%.%.%.%.%.%.%
   21b60:	25b825b8 25b825b8 1db81db8 25b81db8     .%.%.%.%.......%
   21b70:	25b825b8 1db81d98 1db81db8 25982598     .%.%.........%.%
   21b80:	25972598 35f935f9 25982598 1db81db8     .%.%.5.5.%.%....
   21b90:	25b81db8 25b825b8 1db825b8 25b825b8     ...%.%.%.%...%.%
   21ba0:	25b825b8 1d9825b8 1db81db8 25b825b8     .%.%.%.......%.%
   21bb0:	25b825b8 25b825b8 25b825b8 25b825b8     .%.%.%.%.%.%.%.%
   21bc0:	1d981d98 25b825b8 25b825b8 25b825b8     .....%.%.%.%.%.%
   21bd0:	25b825b8 25b825b8 25b825b8 25b825b8     .%.%.%.%.%.%.%.%
   21be0:	25b82598 25b825b8 25b825b8 25b825b8     .%.%.%.%.%.%.%.%
   21bf0:	1db81db8 1d9725b8 25b825b8 1db81db8     .....%...%.%....
   21c00:	259825b8 25972598 1db725b8 1db825b8     .%.%.%.%.%...%..
   21c10:	1db81db8 1db81db7 1db81db8 25b825b8     .............%.%
   21c20:	25b82598 25b825b8 25982598 25982598     .%.%.%.%.%.%.%.%
   21c30:	25b825b8 25982598 25982598 25982598     .%.%.%.%.%.%.%.%
   21c40:	25982598 25982598 25982598 25b82598     .%.%.%.%.%.%.%.%
   21c50:	25b825b8 259825b8 25b825b8 25b825b8     .%.%.%.%.%.%.%.%
   21c60:	25982598 25b825b8 25b825b8 25982598     .%.%.%.%.%.%.%.%
   21c70:	25b825b8 25b825b8 25b825b8 25b825b8     .%.%.%.%.%.%.%.%
   21c80:	25b825b8 25b825b8 25982598 25982598     .%.%.%.%.%.%.%.%
   21c90:	25982598 25982598 1db81db8 1db81db8     .%.%.%.%........
   21ca0:	25b825b8 1d981db8 25b825b8 25b825b8     .%.%.....%.%.%.%
   21cb0:	25b825b8 25b825b8 25982598 25982598     .%.%.%.%.%.%.%.%
   21cc0:	1db81db8 25981d98 1d9825b8 25b825b8     .......%.%...%.%
   21cd0:	25b825b8 25b825b8 259825b8 25982598     .%.%.%.%.%.%.%.%
   21ce0:	1db81db7 1db81db8 1db81db8 25982598     .............%.%
   21cf0:	25982598 1d9825b8 1d9825b8 25982598     .%.%.%...%...%.%
   21d00:	25982598 25982598 25b825b8 25b825b8     .%.%.%.%.%.%.%.%
   21d10:	1db81db8 25b825b8 1d981db8 1db81db8     .....%.%........
   21d20:	25b81db8 259825b8 25b825b8 25982598     ...%.%.%.%.%.%.%
   21d30:	25982598 25982598 1d9725b8 25b825b8     .%.%.%.%.%...%.%
   21d40:	25b825b8 25b825b8 1db81db7 259825b8     .%.%.%.%.....%.%
   21d50:	25982598 1db825b8 1db81db8 25b825b8     .%.%.%.......%.%
   21d60:	25b825b8 25b825b8 25b825b8 25b825b8     .%.%.%.%.%.%.%.%
   21d70:	25b825b8 25b825b8 25b825b8 25b825b8     .%.%.%.%.%.%.%.%
   21d80:	25b825b8 25b825b8 25b825b8 25b825b8     .%.%.%.%.%.%.%.%
   21d90:	25b825b8 25b825b8 1d981db8 155725b8     .%.%.%.%.....%W.
   21da0:	25b825b8 25b825b8 1db81db8 25982598     .%.%.%.%.....%.%
   21db0:	25b825b8 25b825b8 25b825b8 25b825b8     .%.%.%.%.%.%.%.%
   21dc0:	25b825b8 25b825b8 25b825b8 25b825b8     .%.%.%.%.%.%.%.%
   21dd0:	25b825b8 25b825b8 25b825b8 1db81db8     .%.%.%.%.%.%....
   21de0:	1db81db8 25b825b8 1db825b8 1db81db8     .....%.%.%......
   21df0:	1db81db8 1db81db8 25b81db8 25982598     ...........%.%.%
   21e00:	25b825b8 467b467b 25972598 1db825b8     .%.%{F{F.%.%.%..
   21e10:	259825b8 25b82598 25b825b8 25b825b8     .%.%.%.%.%.%.%.%
   21e20:	25b825b8 25b825b8 25b825b8 25b825b8     .%.%.%.%.%.%.%.%
   21e30:	25b825b8 25b825b8 25b825b8 25b825b8     .%.%.%.%.%.%.%.%
   21e40:	25b825b8 25982598 25b825b8 25982598     .%.%.%.%.%.%.%.%
   21e50:	25b825b8 25982598 25b825b8 25982598     .%.%.%.%.%.%.%.%
   21e60:	25b825b8 25b825b8 25b825b8 25b825b8     .%.%.%.%.%.%.%.%
   21e70:	25b825b8 25b825b8 25b82598 25b825b8     .%.%.%.%.%.%.%.%
   21e80:	25982598 25982598 25b82598 25b82598     .%.%.%.%.%.%.%.%
   21e90:	25b825b8 25b825b8 25b825b8 25982598     .%.%.%.%.%.%.%.%
   21ea0:	25b825b8 25b825b8 25b825b8 25b82598     .%.%.%.%.%.%.%.%
   21eb0:	25b825b8 25b825b8 25b825b8 25b825b8     .%.%.%.%.%.%.%.%
   21ec0:	25982598 25982598 25b825b8 25b825b8     .%.%.%.%.%.%.%.%
   21ed0:	25b825b8 25b825b8 25b825b8 25b825b8     .%.%.%.%.%.%.%.%
   21ee0:	25b825b8 25b825b8 25b825b8 25b825b8     .%.%.%.%.%.%.%.%
   21ef0:	25b825b8 25b825b8 25b825b8 25b825b8     .%.%.%.%.%.%.%.%
   21f00:	25b825b8 25b825b8 25b825b8 25b825b8     .%.%.%.%.%.%.%.%
   21f10:	25b825b8 25b825b8 1db825b8 25b825b8     .%.%.%.%.%...%.%
   21f20:	259825b8 25b82598 25b825b8 1db81db8     .%.%.%.%.%.%....
   21f30:	25b825b8 25b825b8 1db81db8 25982598     .%.%.%.%.....%.%
   21f40:	1db81db8 25b825b8 25982598 25982598     .....%.%.%.%.%.%
   21f50:	25b825b8 25b825b8 259825b8 25b82598     .%.%.%.%.%.%.%.%
   21f60:	1db81db8 1db81db8 1db81db8 25982598     .............%.%
   21f70:	25b82598 25b825b8 25b825b8 25982598     .%.%.%.%.%.%.%.%
   21f80:	25b82598 25b825b8 25b825b8 25b825b8     .%.%.%.%.%.%.%.%
   21f90:	25b825b8 25b825b8 25b825b8 25b825b8     .%.%.%.%.%.%.%.%
   21fa0:	25b825b8 25b825b8 25b825b8 25b825b8     .%.%.%.%.%.%.%.%
   21fb0:	25b825b8 25b825b8 25b825b8 25b825b8     .%.%.%.%.%.%.%.%
   21fc0:	25b825b8 25b825b8 25b825b8 25b825b8     .%.%.%.%.%.%.%.%
   21fd0:	25b82598 25b825b8 25b825b8 25b825b8     .%.%.%.%.%.%.%.%
   21fe0:	25b825b8 25b825b8 25b825b8 25b825b8     .%.%.%.%.%.%.%.%
   21ff0:	25b825b8 25b825b8 25b825b8 25b825b8     .%.%.%.%.%.%.%.%
   22000:	25b825b8 25b825b8 25b825b8 25b825b8     .%.%.%.%.%.%.%.%
   22010:	25b825b8 25b825b8 1d981db8 155725b8     .%.%.%.%.....%W.
   22020:	25b825b8 25b825b8 1db81db8 25982598     .%.%.%.%.....%.%
   22030:	25b825b8 25b825b8 25b825b8 25b825b8     .%.%.%.%.%.%.%.%
   22040:	25b825b8 25b825b8 25b825b8 25b825b8     .%.%.%.%.%.%.%.%
   22050:	25b825b8 25b825b8 25b825b8 1db81db8     .%.%.%.%.%.%....
   22060:	1db81db8 25b825b8 25b825b8 1db81db8     .....%.%.%.%....
   22070:	1db81db8 1db81db8 25b825b8 25982598     .........%.%.%.%
   22080:	25b82598 25972598 25982598 25b825b8     .%.%.%.%.%.%.%.%
   22090:	259825b8 25982598 25982598 25b825b8     .%.%.%.%.%.%.%.%
   220a0:	25b825b8 25b825b8 25b825b8 25b825b8     .%.%.%.%.%.%.%.%
   220b0:	25b825b8 25982598 25b825b8 25982598     .%.%.%.%.%.%.%.%
   220c0:	25b825b8 25982598 25b825b8 25982598     .%.%.%.%.%.%.%.%
   220d0:	25b825b8 25982598 25b825b8 25982598     .%.%.%.%.%.%.%.%
   220e0:	25b825b8 25982598 25b825b8 25b825b8     .%.%.%.%.%.%.%.%
   220f0:	25b825b8 25b825b8 25982598 25b825b8     .%.%.%.%.%.%.%.%
   22100:	25982598 25982598 25982598 25982598     .%.%.%.%.%.%.%.%
   22110:	25982598 25982598 25982598 25982598     .%.%.%.%.%.%.%.%
   22120:	25b825b8 1db81db8 25b825b8 25b825b8     .%.%.....%.%.%.%
   22130:	25b825b8 25b825b8 1db81db8 25b825b8     .%.%.%.%.....%.%
   22140:	25b825b8 25b825b8 25b825b8 25b825b8     .%.%.%.%.%.%.%.%
   22150:	25b825b8 25b825b8 25b825b8 25b825b8     .%.%.%.%.%.%.%.%
   22160:	25b825b8 25b825b8 25b825b8 25b825b8     .%.%.%.%.%.%.%.%
   22170:	25b825b8 25b825b8 25b825b8 25b825b8     .%.%.%.%.%.%.%.%
   22180:	25b825b8 25b825b8 25b825b8 25b825b8     .%.%.%.%.%.%.%.%
   22190:	25b825b8 25b825b8 25b825b8 25b825b8     .%.%.%.%.%.%.%.%
   221a0:	25982598 25982598 25b825b8 1db81db8     .%.%.%.%.%.%....
   221b0:	25b825b8 25b825b8 1db81db8 25982598     .%.%.%.%.....%.%
   221c0:	1db81db8 25b825b8 25982598 25982598     .....%.%.%.%.%.%
   221d0:	25b825b8 25982598 25b825b8 25b82598     .%.%.%.%.%.%.%.%
   221e0:	1db825b8 1db81db8 25b81db8 259825b8     .%.........%.%.%
   221f0:	25b825b8 25b825b8 25b825b8 25982598     .%.%.%.%.%.%.%.%
   22200:	25b825b8 25b825b8 25b825b8 25b825b8     .%.%.%.%.%.%.%.%
   22210:	25b825b8 25b825b8 25b825b8 25b825b8     .%.%.%.%.%.%.%.%
   22220:	25b825b8 25b825b8 25b825b8 25b825b8     .%.%.%.%.%.%.%.%
   22230:	25b825b8 25b825b8 25b825b8 25b825b8     .%.%.%.%.%.%.%.%
   22240:	25b825b8 25b825b8 25b825b8 25b825b8     .%.%.%.%.%.%.%.%
   22250:	25b825b8 25b825b8 25b825b8 25b825b8     .%.%.%.%.%.%.%.%
   22260:	25b825b8 25b825b8 25b825b8 25b825b8     .%.%.%.%.%.%.%.%
   22270:	25b825b8 25b825b8 25b825b8 25b825b8     .%.%.%.%.%.%.%.%
   22280:	25b825b8 25b825b8 25b825b8 25b825b8     .%.%.%.%.%.%.%.%
   22290:	25b825b8 25b825b8 1d981db8 155725b8     .%.%.%.%.....%W.
   222a0:	25b825b8 25b825b8 25b825b8 25b825b8     .%.%.%.%.%.%.%.%
   222b0:	25982598 25982598 25b825b8 25982598     .%.%.%.%.%.%.%.%
   222c0:	25b825b8 25b825b8 25b825b8 25b825b8     .%.%.%.%.%.%.%.%
   222d0:	25b825b8 25b825b8 25b825b8 25b825b8     .%.%.%.%.%.%.%.%
   222e0:	25b825b8 25b825b8 25b825b8 25b825b8     .%.%.%.%.%.%.%.%
   222f0:	1db825b8 25b825b8 25b825b8 25b825b8     .%...%.%.%.%.%.%
   22300:	25b825b8 25982597 25b82598 25b825b8     .%.%.%.%.%.%.%.%
   22310:	25b825b8 25b825b8 25b825b8 25b825b8     .%.%.%.%.%.%.%.%
   22320:	25b825b8 25b825b8 25b825b8 25b825b8     .%.%.%.%.%.%.%.%
   22330:	25b825b8 25b825b8 25b825b8 25b825b8     .%.%.%.%.%.%.%.%
   22340:	25b825b8 25b825b8 25b825b8 25b825b8     .%.%.%.%.%.%.%.%
   22350:	25b825b8 25b825b8 25b825b8 25b825b8     .%.%.%.%.%.%.%.%
   22360:	25b825b8 25b825b8 25b825b8 25b825b8     .%.%.%.%.%.%.%.%
   22370:	25b825b8 25b825b8 25b825b8 25b825b8     .%.%.%.%.%.%.%.%
   22380:	25b825b8 25b825b8 25b825b8 25b825b8     .%.%.%.%.%.%.%.%
   22390:	25b825b8 25b825b8 25b825b8 25b825b8     .%.%.%.%.%.%.%.%
   223a0:	25b825b8 25b825b8 25b825b8 25b825b8     .%.%.%.%.%.%.%.%
   223b0:	25b825b8 25b825b8 25b825b8 25b825b8     .%.%.%.%.%.%.%.%
   223c0:	25b825b8 25b825b8 25b825b8 25b825b8     .%.%.%.%.%.%.%.%
   223d0:	25b825b8 25b825b8 25b825b8 25b825b8     .%.%.%.%.%.%.%.%
   223e0:	25b825b8 25b825b8 25b825b8 25b825b8     .%.%.%.%.%.%.%.%
   223f0:	25b825b8 25b825b8 25b825b8 25b825b8     .%.%.%.%.%.%.%.%
   22400:	25b825b8 25b825b8 25b825b8 25b825b8     .%.%.%.%.%.%.%.%
   22410:	25b825b8 25b825b8 25b825b8 25b825b8     .%.%.%.%.%.%.%.%
   22420:	25b825b8 25b825b8 25b825b8 25b825b8     .%.%.%.%.%.%.%.%
   22430:	25b825b8 25b825b8 25982598 25b825b8     .%.%.%.%.%.%.%.%
   22440:	25b825b8 25982598 25982598 25982598     .%.%.%.%.%.%.%.%
   22450:	25b825b8 25b825b8 25b825b8 25b825b8     .%.%.%.%.%.%.%.%
   22460:	25b825b8 25b825b8 25b825b8 25b825b8     .%.%.%.%.%.%.%.%
   22470:	25b825b8 25b825b8 25b825b8 25b825b8     .%.%.%.%.%.%.%.%
   22480:	25b825b8 25b825b8 25b825b8 25b825b8     .%.%.%.%.%.%.%.%
   22490:	25b825b8 25b825b8 25b825b8 25b825b8     .%.%.%.%.%.%.%.%
   224a0:	25b825b8 25b825b8 25b825b8 25b825b8     .%.%.%.%.%.%.%.%
   224b0:	25b825b8 25b825b8 25b825b8 25b825b8     .%.%.%.%.%.%.%.%
   224c0:	25b825b8 25b825b8 25b825b8 25b825b8     .%.%.%.%.%.%.%.%
   224d0:	25b825b8 25b825b8 25b825b8 25b825b8     .%.%.%.%.%.%.%.%
   224e0:	25b825b8 25b825b8 25b825b8 25b825b8     .%.%.%.%.%.%.%.%
   224f0:	25b825b8 25b825b8 25b825b8 25b825b8     .%.%.%.%.%.%.%.%
   22500:	25b825b8 25b825b8 25b825b8 25b825b8     .%.%.%.%.%.%.%.%
   22510:	25b825b8 25b825b8 1d981db8 155725b8     .%.%.%.%.....%W.
   22520:	25b825b8 25b825b8 25b825b8 25b825b8     .%.%.%.%.%.%.%.%
   22530:	25982598 25982598 25b825b8 25b825b8     .%.%.%.%.%.%.%.%
   22540:	25b825b8 25b825b8 25b825b8 25b825b8     .%.%.%.%.%.%.%.%
   22550:	25b825b8 25b825b8 25b825b8 25b825b8     .%.%.%.%.%.%.%.%
   22560:	25b825b8 25b825b8 25b825b8 25b825b8     .%.%.%.%.%.%.%.%
   22570:	25b825b8 25b825b8 25b825b8 25b825b8     .%.%.%.%.%.%.%.%
   22580:	25b81d98 1d9725b8 25b81d98 25b825b8     ...%.%.....%.%.%
   22590:	25b825b8 25b825b8 25b825b8 25b825b8     .%.%.%.%.%.%.%.%
   225a0:	25b825b8 25b825b8 25b825b8 25b825b8     .%.%.%.%.%.%.%.%
   225b0:	25b825b8 25b825b8 25b825b8 25b825b8     .%.%.%.%.%.%.%.%
   225c0:	25b825b8 25b825b8 25b825b8 25b825b8     .%.%.%.%.%.%.%.%
   225d0:	25b825b8 25b825b8 25b825b8 25b825b8     .%.%.%.%.%.%.%.%
   225e0:	25b825b8 25b825b8 25b825b8 25b825b8     .%.%.%.%.%.%.%.%
   225f0:	25b825b8 25b825b8 25b825b8 25b825b8     .%.%.%.%.%.%.%.%
   22600:	25b825b8 25b825b8 25b825b8 25b825b8     .%.%.%.%.%.%.%.%
   22610:	25b825b8 25b825b8 25b825b8 25b825b8     .%.%.%.%.%.%.%.%
   22620:	25b825b8 25b825b8 25b825b8 25b825b8     .%.%.%.%.%.%.%.%
   22630:	25b825b8 25b825b8 25b825b8 25b825b8     .%.%.%.%.%.%.%.%
   22640:	25b825b8 25b825b8 25b825b8 25b825b8     .%.%.%.%.%.%.%.%
   22650:	25b825b8 25b825b8 25b825b8 25b825b8     .%.%.%.%.%.%.%.%
   22660:	25b825b8 25b825b8 25b825b8 25b825b8     .%.%.%.%.%.%.%.%
   22670:	25b825b8 25b825b8 25b825b8 25b825b8     .%.%.%.%.%.%.%.%
   22680:	25b825b8 25b825b8 25b825b8 25b825b8     .%.%.%.%.%.%.%.%
   22690:	25b825b8 25b825b8 25b825b8 25b825b8     .%.%.%.%.%.%.%.%
   226a0:	25b825b8 25b825b8 25b825b8 25b825b8     .%.%.%.%.%.%.%.%
   226b0:	25b825b8 25b825b8 25982598 25b825b8     .%.%.%.%.%.%.%.%
   226c0:	25b825b8 25981d98 25982598 25982598     .%.%...%.%.%.%.%
   226d0:	25b825b8 25b825b8 25b825b8 25b825b8     .%.%.%.%.%.%.%.%
   226e0:	25b825b8 25982598 25b825b8 25b825b8     .%.%.%.%.%.%.%.%
   226f0:	25b825b8 25b825b8 25b825b8 25b825b8     .%.%.%.%.%.%.%.%
   22700:	25b825b8 25b825b8 25b825b8 25b825b8     .%.%.%.%.%.%.%.%
   22710:	25b825b8 25b825b8 25b825b8 25b825b8     .%.%.%.%.%.%.%.%
   22720:	25b825b8 25b825b8 25b825b8 25b825b8     .%.%.%.%.%.%.%.%
   22730:	25b825b8 25b825b8 25b825b8 25b825b8     .%.%.%.%.%.%.%.%
   22740:	25b825b8 25b825b8 25b825b8 25b825b8     .%.%.%.%.%.%.%.%
   22750:	25b825b8 25b825b8 25b825b8 25b825b8     .%.%.%.%.%.%.%.%
   22760:	25b825b8 25b825b8 25b825b8 25b825b8     .%.%.%.%.%.%.%.%
   22770:	25b825b8 25b825b8 25b825b8 25b825b8     .%.%.%.%.%.%.%.%
   22780:	25b825b8 25b825b8 25b825b8 25b825b8     .%.%.%.%.%.%.%.%
   22790:	25b825b8 25b825b8 1d981db8 155725b8     .%.%.%.%.....%W.
   227a0:	25b825b8 25b825b8 25b825b8 25b825b8     .%.%.%.%.%.%.%.%
   227b0:	25b825b8 25b825b8 25b825b8 25b825b8     .%.%.%.%.%.%.%.%
   227c0:	25b825b8 25b825b8 25b825b8 25b825b8     .%.%.%.%.%.%.%.%
   227d0:	25b825b8 25b825b8 25b825b8 25b825b8     .%.%.%.%.%.%.%.%
   227e0:	25b825b8 25b825b8 25b825b8 25b825b8     .%.%.%.%.%.%.%.%
   227f0:	25b825b8 25b825b8 25b825b8 25b825b8     .%.%.%.%.%.%.%.%
   22800:	25b825b8 25b825b8 25b825b8 25b825b8     .%.%.%.%.%.%.%.%
   22810:	25b825b8 25b825b8 25b825b8 25b825b8     .%.%.%.%.%.%.%.%
   22820:	25b825b8 25b825b8 25b825b8 25b825b8     .%.%.%.%.%.%.%.%
   22830:	25b825b8 25b825b8 25b825b8 25b825b8     .%.%.%.%.%.%.%.%
   22840:	25b825b8 25b825b8 25b825b8 25b825b8     .%.%.%.%.%.%.%.%
   22850:	25b825b8 25b825b8 25b825b8 25b825b8     .%.%.%.%.%.%.%.%
   22860:	25b825b8 25b825b8 25b825b8 25b825b8     .%.%.%.%.%.%.%.%
   22870:	25b825b8 25b825b8 25b825b8 25b825b8     .%.%.%.%.%.%.%.%
   22880:	25b825b8 25b825b8 25b825b8 25b825b8     .%.%.%.%.%.%.%.%
   22890:	25b825b8 25b825b8 25b825b8 25b825b8     .%.%.%.%.%.%.%.%
   228a0:	25b825b8 25b825b8 25b825b8 25b825b8     .%.%.%.%.%.%.%.%
   228b0:	25b825b8 25b825b8 25b825b8 25b825b8     .%.%.%.%.%.%.%.%
   228c0:	25b825b8 25b825b8 25b825b8 25b825b8     .%.%.%.%.%.%.%.%
   228d0:	25b825b8 25b825b8 25b825b8 25b825b8     .%.%.%.%.%.%.%.%
   228e0:	25b825b8 25b825b8 25b825b8 25b825b8     .%.%.%.%.%.%.%.%
   228f0:	25b825b8 25b825b8 25b825b8 25b825b8     .%.%.%.%.%.%.%.%
   22900:	25b825b8 25b825b8 25b825b8 25b825b8     .%.%.%.%.%.%.%.%
   22910:	25b825b8 25b825b8 25b825b8 25b825b8     .%.%.%.%.%.%.%.%
   22920:	25b825b8 25b825b8 25b825b8 25b825b8     .%.%.%.%.%.%.%.%
   22930:	25b825b8 25b825b8 25b825b8 25b825b8     .%.%.%.%.%.%.%.%
   22940:	25b825b8 25b81d98 25b825b8 25b825b8     .%.%...%.%.%.%.%
   22950:	25b825b8 25b825b8 25b825b8 25b825b8     .%.%.%.%.%.%.%.%
   22960:	25b825b8 25b825b8 25982598 25b825b8     .%.%.%.%.%.%.%.%
   22970:	25b825b8 25b825b8 25b825b8 1db81db8     .%.%.%.%.%.%....
   22980:	25b825b8 25b825b8 25b825b8 25b825b8     .%.%.%.%.%.%.%.%
   22990:	25b825b8 25b825b8 25b825b8 25b825b8     .%.%.%.%.%.%.%.%
   229a0:	25b825b8 25b825b8 25b825b8 25b825b8     .%.%.%.%.%.%.%.%
   229b0:	25b825b8 25b825b8 25b825b8 25b825b8     .%.%.%.%.%.%.%.%
   229c0:	25b825b8 25b825b8 25b825b8 25b825b8     .%.%.%.%.%.%.%.%
   229d0:	25b825b8 25b825b8 25b825b8 25b825b8     .%.%.%.%.%.%.%.%
   229e0:	25b825b8 25b825b8 25b825b8 25b825b8     .%.%.%.%.%.%.%.%
   229f0:	25b825b8 25b825b8 25b825b8 25b825b8     .%.%.%.%.%.%.%.%
   22a00:	25b825b8 25b825b8 25b825b8 25b825b8     .%.%.%.%.%.%.%.%
   22a10:	25b825b8 25b825b8 1d981db8 155725b8     .%.%.%.%.....%W.
   22a20:	25b825b8 25b825b8 25b825b8 25b825b8     .%.%.%.%.%.%.%.%
   22a30:	25b825b8 25b825b8 25b825b8 1db81db8     .%.%.%.%.%.%....
   22a40:	25b825b8 25b825b8 25b825b8 25b825b8     .%.%.%.%.%.%.%.%
   22a50:	25b825b8 25b825b8 25b825b8 25b825b8     .%.%.%.%.%.%.%.%
   22a60:	25b825b8 25b825b8 25b825b8 25b825b8     .%.%.%.%.%.%.%.%
   22a70:	25b825b8 25b825b8 25b825b8 25b825b8     .%.%.%.%.%.%.%.%
   22a80:	25b825b8 25b825b8 25b825b8 25b825b8     .%.%.%.%.%.%.%.%
   22a90:	25b825b8 25b825b8 25b825b8 25b825b8     .%.%.%.%.%.%.%.%
   22aa0:	25b825b8 25b825b8 25b825b8 25b825b8     .%.%.%.%.%.%.%.%
   22ab0:	25b825b8 25b825b8 25b825b8 25b825b8     .%.%.%.%.%.%.%.%
   22ac0:	25b825b8 25b825b8 25b825b8 25b825b8     .%.%.%.%.%.%.%.%
   22ad0:	25b825b8 25b825b8 25b825b8 25b825b8     .%.%.%.%.%.%.%.%
   22ae0:	25b825b8 25b825b8 25b825b8 25b825b8     .%.%.%.%.%.%.%.%
   22af0:	25b825b8 25b825b8 25b825b8 25b825b8     .%.%.%.%.%.%.%.%
   22b00:	25b825b8 25b825b8 25b825b8 25b825b8     .%.%.%.%.%.%.%.%
   22b10:	25b825b8 25b825b8 25b825b8 25b825b8     .%.%.%.%.%.%.%.%
   22b20:	25b825b8 25b825b8 25b825b8 25b825b8     .%.%.%.%.%.%.%.%
   22b30:	25b825b8 25b825b8 25b825b8 25b825b8     .%.%.%.%.%.%.%.%
   22b40:	25b825b8 25b825b8 25b825b8 25b825b8     .%.%.%.%.%.%.%.%
   22b50:	25b825b8 25b825b8 25b825b8 25b825b8     .%.%.%.%.%.%.%.%
   22b60:	25b825b8 25b825b8 25b825b8 25b825b8     .%.%.%.%.%.%.%.%
   22b70:	25b825b8 25b825b8 25b825b8 25b825b8     .%.%.%.%.%.%.%.%
   22b80:	25b825b8 25b825b8 25b825b8 25b825b8     .%.%.%.%.%.%.%.%
   22b90:	25b825b8 25b825b8 25b825b8 25b825b8     .%.%.%.%.%.%.%.%
   22ba0:	25b825b8 25b825b8 25b825b8 25b825b8     .%.%.%.%.%.%.%.%
   22bb0:	25b825b8 25b825b8 25b825b8 25b825b8     .%.%.%.%.%.%.%.%
   22bc0:	25b81d98 1d9825b8 1d981d98 25b825b8     ...%.%.......%.%
   22bd0:	25b825b8 25b825b8 25b825b8 25b825b8     .%.%.%.%.%.%.%.%
   22be0:	25b81d98 25b825b8 25982598 25b825b8     ...%.%.%.%.%.%.%
   22bf0:	25b825b8 25b825b8 25b825b8 1db81db8     .%.%.%.%.%.%....
   22c00:	25b825b8 25b825b8 25b825b8 25b825b8     .%.%.%.%.%.%.%.%
   22c10:	25b825b8 25b825b8 25b825b8 25b825b8     .%.%.%.%.%.%.%.%
   22c20:	25b825b8 25b825b8 25b825b8 25b825b8     .%.%.%.%.%.%.%.%
   22c30:	25b825b8 25b825b8 25b825b8 25b825b8     .%.%.%.%.%.%.%.%
   22c40:	25b825b8 25b825b8 25b825b8 25b825b8     .%.%.%.%.%.%.%.%
   22c50:	25b825b8 25b825b8 25b825b8 25b825b8     .%.%.%.%.%.%.%.%
   22c60:	25b825b8 25b825b8 25b825b8 25b825b8     .%.%.%.%.%.%.%.%
   22c70:	25b825b8 25b825b8 25b825b8 25b825b8     .%.%.%.%.%.%.%.%
   22c80:	25b825b8 25b825b8 25b825b8 25b825b8     .%.%.%.%.%.%.%.%
   22c90:	25b825b8 25b825b8 1d981db8 155725b8     .%.%.%.%.....%W.
   22ca0:	25b825b8 25b825b8 25b825b8 25b825b8     .%.%.%.%.%.%.%.%
   22cb0:	25b825b8 25b825b8 25b825b8 25b825b8     .%.%.%.%.%.%.%.%
   22cc0:	25b825b8 25b825b8 25b825b8 25982598     .%.%.%.%.%.%.%.%
   22cd0:	25982598 25b825b8 1db81db8 25b825b8     .%.%.%.%.....%.%
   22ce0:	25b825b8 25b825b8 25b825b8 25b825b8     .%.%.%.%.%.%.%.%
   22cf0:	25b825b8 25b825b8 25b825b8 25b825b8     .%.%.%.%.%.%.%.%
   22d00:	25b825b8 25982598 25b825b8 25b825b8     .%.%.%.%.%.%.%.%
   22d10:	25b825b8 25b825b8 25b825b8 25b825b8     .%.%.%.%.%.%.%.%
   22d20:	25b825b8 25b825b8 25b825b8 25b825b8     .%.%.%.%.%.%.%.%
   22d30:	25b825b8 25b825b8 25b825b8 25b825b8     .%.%.%.%.%.%.%.%
   22d40:	25b825b8 25b825b8 25b825b8 1db81db8     .%.%.%.%.%.%....
   22d50:	25b825b8 25b825b8 25b825b8 25b825b8     .%.%.%.%.%.%.%.%
   22d60:	25b825b8 25b825b8 25b825b8 25b825b8     .%.%.%.%.%.%.%.%
   22d70:	25b825b8 25b825b8 25b825b8 25b825b8     .%.%.%.%.%.%.%.%
   22d80:	25b825b8 25b825b8 25b825b8 25b825b8     .%.%.%.%.%.%.%.%
   22d90:	25b825b8 25b825b8 25b825b8 25b825b8     .%.%.%.%.%.%.%.%
   22da0:	25b825b8 25b825b8 25b825b8 25b825b8     .%.%.%.%.%.%.%.%
   22db0:	25b825b8 25b825b8 25b825b8 25b825b8     .%.%.%.%.%.%.%.%
   22dc0:	25b825b8 25b825b8 25b825b8 25b825b8     .%.%.%.%.%.%.%.%
   22dd0:	25b825b8 25b825b8 25b825b8 25b825b8     .%.%.%.%.%.%.%.%
   22de0:	25b825b8 25b825b8 25b825b8 25b825b8     .%.%.%.%.%.%.%.%
   22df0:	25b825b8 25b825b8 25b825b8 25b825b8     .%.%.%.%.%.%.%.%
   22e00:	25b825b8 25b825b8 25b825b8 25b825b8     .%.%.%.%.%.%.%.%
   22e10:	25b825b8 25b825b8 25b825b8 25b825b8     .%.%.%.%.%.%.%.%
   22e20:	25b825b8 25b825b8 25b825b8 25b825b8     .%.%.%.%.%.%.%.%
   22e30:	25b825b8 25b825b8 25b825b8 25b825b8     .%.%.%.%.%.%.%.%
   22e40:	25b825b8 1d9825b8 25b81d98 25b825b8     .%.%.%.....%.%.%
   22e50:	1db81db8 25b825b8 25b825b8 25b825b8     .....%.%.%.%.%.%
   22e60:	25b825b8 25b825b8 25b825b8 25b825b8     .%.%.%.%.%.%.%.%
   22e70:	25b825b8 25b82598 25b825b8 25b825b8     .%.%.%.%.%.%.%.%
   22e80:	25b825b8 25b825b8 25b825b8 25b825b8     .%.%.%.%.%.%.%.%
   22e90:	25b825b8 25b825b8 25b825b8 25b825b8     .%.%.%.%.%.%.%.%
   22ea0:	25b825b8 25b825b8 25b825b8 25b825b8     .%.%.%.%.%.%.%.%
   22eb0:	25b825b8 25b825b8 25b825b8 25b825b8     .%.%.%.%.%.%.%.%
   22ec0:	25b825b8 25b825b8 25b825b8 25b825b8     .%.%.%.%.%.%.%.%
   22ed0:	25b825b8 25b825b8 25b825b8 25b825b8     .%.%.%.%.%.%.%.%
   22ee0:	25b825b8 25b825b8 25b825b8 25b825b8     .%.%.%.%.%.%.%.%
   22ef0:	25b825b8 25b825b8 25b825b8 25b825b8     .%.%.%.%.%.%.%.%
   22f00:	25b825b8 25b825b8 25b825b8 25b825b8     .%.%.%.%.%.%.%.%
   22f10:	25b825b8 25b825b8 1d981db8 155725b8     .%.%.%.%.....%W.
   22f20:	25b825b8 25b825b8 25b825b8 25b825b8     .%.%.%.%.%.%.%.%
   22f30:	25b825b8 25b825b8 25b825b8 25b825b8     .%.%.%.%.%.%.%.%
   22f40:	25b825b8 25b825b8 25b825b8 25b825b8     .%.%.%.%.%.%.%.%
   22f50:	25982598 25b825b8 1db81db8 25b825b8     .%.%.%.%.....%.%
   22f60:	25b825b8 25b825b8 25b825b8 25b825b8     .%.%.%.%.%.%.%.%
   22f70:	25b825b8 25b825b8 25b825b8 25b825b8     .%.%.%.%.%.%.%.%
   22f80:	25b825b8 25982598 1d9825b8 25b825b8     .%.%.%.%.%...%.%
   22f90:	25b825b8 25b825b8 25b825b8 25b825b8     .%.%.%.%.%.%.%.%
   22fa0:	25b825b8 25b825b8 25b825b8 25b825b8     .%.%.%.%.%.%.%.%
   22fb0:	25b825b8 25b825b8 25b825b8 25b825b8     .%.%.%.%.%.%.%.%
   22fc0:	25b825b8 25b825b8 25b825b8 1db81db8     .%.%.%.%.%.%....
   22fd0:	25b825b8 25b825b8 25b825b8 25b825b8     .%.%.%.%.%.%.%.%
   22fe0:	25b825b8 25b825b8 25b825b8 25b825b8     .%.%.%.%.%.%.%.%
   22ff0:	25b825b8 25b825b8 25b825b8 25b825b8     .%.%.%.%.%.%.%.%
   23000:	25b825b8 25b825b8 25b825b8 25b825b8     .%.%.%.%.%.%.%.%
   23010:	25b825b8 25b825b8 25b825b8 25b825b8     .%.%.%.%.%.%.%.%
   23020:	25b825b8 25b825b8 25b825b8 25b825b8     .%.%.%.%.%.%.%.%
   23030:	25b825b8 25b825b8 25b825b8 25b825b8     .%.%.%.%.%.%.%.%
   23040:	25b825b8 25b825b8 25b825b8 25b825b8     .%.%.%.%.%.%.%.%
   23050:	25b825b8 25b825b8 25b825b8 25b825b8     .%.%.%.%.%.%.%.%
   23060:	25b825b8 25b825b8 25b825b8 25b825b8     .%.%.%.%.%.%.%.%
   23070:	25b825b8 25b825b8 25b825b8 25b825b8     .%.%.%.%.%.%.%.%
   23080:	25b825b8 25b825b8 25b825b8 25b825b8     .%.%.%.%.%.%.%.%
   23090:	25b825b8 25b825b8 25b825b8 25b825b8     .%.%.%.%.%.%.%.%
   230a0:	25b825b8 25b825b8 25b825b8 25b825b8     .%.%.%.%.%.%.%.%
   230b0:	25b825b8 25b825b8 25b825b8 25b825b8     .%.%.%.%.%.%.%.%
   230c0:	25b825b8 25b825b8 25b825b8 25d825b8     .%.%.%.%.%.%.%.%
   230d0:	25d825d8 25b825d8 25b825b8 25d825d8     .%.%.%.%.%.%.%.%
   230e0:	25b825b8 25b825b8 25b825b8 25b825b8     .%.%.%.%.%.%.%.%
   230f0:	25b825b8 25982598 25b825b8 25b825b8     .%.%.%.%.%.%.%.%
   23100:	25b825b8 25b825b8 25b825b8 25b825b8     .%.%.%.%.%.%.%.%
   23110:	25b825b8 25b825b8 25b825b8 25b825b8     .%.%.%.%.%.%.%.%
   23120:	25b825b8 25b825b8 25b825b8 25b825b8     .%.%.%.%.%.%.%.%
   23130:	25b825b8 25b825b8 25b825b8 25b825b8     .%.%.%.%.%.%.%.%
   23140:	25b825b8 25b825b8 25b825b8 25b825b8     .%.%.%.%.%.%.%.%
   23150:	25b825b8 25b825b8 25b825b8 25b825b8     .%.%.%.%.%.%.%.%
   23160:	25b825b8 25b825b8 25b825b8 25b825b8     .%.%.%.%.%.%.%.%
   23170:	25b825b8 25b825b8 25b825b8 25b825b8     .%.%.%.%.%.%.%.%
   23180:	25b825b8 25b825b8 25b825b8 25b825b8     .%.%.%.%.%.%.%.%
   23190:	25b825b8 25b825b8 1d981db8 155725b8     .%.%.%.%.....%W.
   231a0:	1db81db8 1db81db8 25b81db8 25982598     ...........%.%.%
   231b0:	25b825b8 25b825b8 25b825b8 25b825b8     .%.%.%.%.%.%.%.%
   231c0:	25b825b8 25982598 25b825b8 1db825b8     .%.%.%.%.%.%.%..
   231d0:	1db81db8 25b825b8 1db81db8 25b825b8     .....%.%.....%.%
   231e0:	25b825b8 25b825b8 25b825b8 25b825b8     .%.%.%.%.%.%.%.%
   231f0:	25b825b8 25b825b8 25b825b8 25b825b8     .%.%.%.%.%.%.%.%
   23200:	25b825b8 25b825b8 25b825b8 25b825b8     .%.%.%.%.%.%.%.%
   23210:	25b825b8 25b825b8 25b825b8 25b825b8     .%.%.%.%.%.%.%.%
   23220:	25b825b8 25b825b8 25b825b8 25b825b8     .%.%.%.%.%.%.%.%
   23230:	25b825b8 25b825b8 25b825b8 25b825b8     .%.%.%.%.%.%.%.%
   23240:	25b825b8 25b825b8 25b825b8 25b825b8     .%.%.%.%.%.%.%.%
   23250:	25b825b8 25b825b8 25b825b8 25b825b8     .%.%.%.%.%.%.%.%
   23260:	25b825b8 25b825b8 25b825b8 25b825b8     .%.%.%.%.%.%.%.%
   23270:	25b825b8 25b825b8 25b825b8 25b825b8     .%.%.%.%.%.%.%.%
   23280:	25b825b8 25b825b8 25b825b8 25b825b8     .%.%.%.%.%.%.%.%
   23290:	25b825b8 25b825b8 25b825b8 25b825b8     .%.%.%.%.%.%.%.%
   232a0:	25b825b8 25b825b8 25b825b8 25b825b8     .%.%.%.%.%.%.%.%
   232b0:	25b825b8 25b825b8 25b825b8 25b825b8     .%.%.%.%.%.%.%.%
   232c0:	25b825b8 25b825b8 25b825b8 25b825b8     .%.%.%.%.%.%.%.%
   232d0:	25b825b8 25b825b8 25b825b8 25b825b8     .%.%.%.%.%.%.%.%
   232e0:	25b825b8 25b825b8 25b825b8 25b825b8     .%.%.%.%.%.%.%.%
   232f0:	25b825b8 25b825b8 25b825b8 25b825b8     .%.%.%.%.%.%.%.%
   23300:	25b825b8 25b825b8 25b825b8 25b825b8     .%.%.%.%.%.%.%.%
   23310:	25b825b8 25b825b8 25b825b8 25b825b8     .%.%.%.%.%.%.%.%
   23320:	25b825b8 25b825b8 25b825b8 1db825b8     .%.%.%.%.%.%.%..
   23330:	25b81db8 25982598 25b825b8 25982598     ...%.%.%.%.%.%.%
   23340:	1db81db8 25b825b7 25b725b7 25b825b7     .....%.%.%.%.%.%
   23350:	25b72dd8 25b72dd8 25b825b8 25b825b8     .-.%.-.%.%.%.%.%
   23360:	25b825b8 1d981d98 1db81d98 1db81db7     .%.%............
   23370:	1db81db8 1d982598 25b825b8 25b825b8     .....%...%.%.%.%
   23380:	25b825b8 25b825b8 25b825b8 25b825b8     .%.%.%.%.%.%.%.%
   23390:	25b825b8 25b825b8 25b825b8 25b825b8     .%.%.%.%.%.%.%.%
   233a0:	25b825b8 25b825b8 25b825b8 25b825b8     .%.%.%.%.%.%.%.%
   233b0:	25b825b8 25b825b8 25b825b8 25b825b8     .%.%.%.%.%.%.%.%
   233c0:	25b825b8 25b825b8 25b825b8 25b825b8     .%.%.%.%.%.%.%.%
   233d0:	25b825b8 25b825b8 25b825b8 25b825b8     .%.%.%.%.%.%.%.%
   233e0:	25b825b8 25b825b8 25b825b8 25b825b8     .%.%.%.%.%.%.%.%
   233f0:	25b825b8 25b825b8 25b825b8 25b825b8     .%.%.%.%.%.%.%.%
   23400:	25b825b8 25b825b8 25b825b8 25b825b8     .%.%.%.%.%.%.%.%
   23410:	25b825b8 25b825b8 1d981db8 155725b8     .%.%.%.%.....%W.
   23420:	1db825b8 1db81d98 25b81db8 25b82598     .%.........%.%.%
   23430:	1d981d98 1d981d98 1d981d98 1d981d98     ................
   23440:	25b825b8 259825b8 25b825b8 1db81db8     .%.%.%.%.%.%....
   23450:	1db81db8 25b825b8 1db81db8 25b825b8     .....%.%.....%.%
   23460:	25b825b8 25b825b8 25b825b8 25b825b8     .%.%.%.%.%.%.%.%
   23470:	25b825b8 25b825b8 25b825b8 25b825b8     .%.%.%.%.%.%.%.%
   23480:	25b825b8 25b825b8 25b825b8 25b825b8     .%.%.%.%.%.%.%.%
   23490:	25b825b8 25b825b8 25b825b8 25b825b8     .%.%.%.%.%.%.%.%
   234a0:	25b825b8 25b825b8 25b825b8 25b825b8     .%.%.%.%.%.%.%.%
   234b0:	25b825b8 25b825b8 25b825b8 25b825b8     .%.%.%.%.%.%.%.%
   234c0:	25b825b8 25b825b8 25b825b8 25b825b8     .%.%.%.%.%.%.%.%
   234d0:	25b825b8 25b825b8 25b825b8 25b825b8     .%.%.%.%.%.%.%.%
   234e0:	25b825b8 25b825b8 25b825b8 25b825b8     .%.%.%.%.%.%.%.%
   234f0:	25b825b8 25b825b8 25b825b8 25b825b8     .%.%.%.%.%.%.%.%
   23500:	25b825b8 25b825b8 25b825b8 25b825b8     .%.%.%.%.%.%.%.%
   23510:	25b825b8 25b825b8 25b825b8 25b825b8     .%.%.%.%.%.%.%.%
   23520:	25b825b8 25b825b8 25b825b8 25b825b8     .%.%.%.%.%.%.%.%
   23530:	25b825b8 25b825b8 25b825b8 25b825b8     .%.%.%.%.%.%.%.%
   23540:	25b825b8 25b825b8 25b825b8 25b825b8     .%.%.%.%.%.%.%.%
   23550:	25b825b8 25b825b8 25b825b8 25b825b8     .%.%.%.%.%.%.%.%
   23560:	25b825b8 25b825b8 25b825b8 25b825b8     .%.%.%.%.%.%.%.%
   23570:	25b825b8 25b825b8 25b825b8 25b825b8     .%.%.%.%.%.%.%.%
   23580:	25b825b8 25b825b8 25b825b8 25b825b8     .%.%.%.%.%.%.%.%
   23590:	25b825b8 25b825b8 25b825b8 25b825b8     .%.%.%.%.%.%.%.%
   235a0:	25b825b8 25b825b8 25b82598 25b825b8     .%.%.%.%.%.%.%.%
   235b0:	25b825b8 25982597 25b825b8 25b825b8     .%.%.%.%.%.%.%.%
   235c0:	25d825b8 2dd825b7 35d72dd7 35f735d8     .%.%.%.-.-.5.5.5
   235d0:	35d735d7 35d835d7 35d835d8 2dd82dd8     .5.5.5.5.5.5.-.-
   235e0:	2dd825b7 1db825b8 25b825d8 1db825b8     .%.-.%...%.%.%..
   235f0:	1db81db8 25b825b8 25b825b8 25b825b8     .....%.%.%.%.%.%
   23600:	25b825b8 25b825b8 25b825b8 25b825b8     .%.%.%.%.%.%.%.%
   23610:	25b825b8 25b825b8 25b825b8 25b825b8     .%.%.%.%.%.%.%.%
   23620:	25b825b8 25b825b8 25b825b8 25b825b8     .%.%.%.%.%.%.%.%
   23630:	25b825b8 25b825b8 25b825b8 25b825b8     .%.%.%.%.%.%.%.%
   23640:	25b825b8 25b825b8 25b825b8 25b825b8     .%.%.%.%.%.%.%.%
   23650:	25b825b8 25b825b8 25b825b8 25b825b8     .%.%.%.%.%.%.%.%
   23660:	25b825b8 25b825b8 25b825b8 25b825b8     .%.%.%.%.%.%.%.%
   23670:	25b825b8 25b825b8 25b825b8 25b825b8     .%.%.%.%.%.%.%.%
   23680:	25b825b8 25b825b8 25b825b8 25b825b8     .%.%.%.%.%.%.%.%
   23690:	25b825b8 25b825b8 1d981db8 155725b8     .%.%.%.%.....%W.
   236a0:	25982598 25b82598 25b825b8 25b825b8     .%.%.%.%.%.%.%.%
   236b0:	25b825b8 25982598 25b825b8 25982598     .%.%.%.%.%.%.%.%
   236c0:	25b82598 25982598 25b725b7 1db71db7     .%.%.%.%.%.%....
   236d0:	25b825b8 25b825b8 25b825b8 1d9825b8     .%.%.%.%.%.%.%..
   236e0:	25b825b8 25b825b8 25b825b8 25b825b8     .%.%.%.%.%.%.%.%
   236f0:	25b825b8 25b825b8 25b825b8 25b825b8     .%.%.%.%.%.%.%.%
   23700:	25b825b8 25b825b8 25b825b8 25b825b8     .%.%.%.%.%.%.%.%
   23710:	25b825b8 25b825b8 25b825b8 25b825b8     .%.%.%.%.%.%.%.%
   23720:	25b825b8 25b825b8 25b825b8 25b825b8     .%.%.%.%.%.%.%.%
   23730:	25b825b8 25b825b8 25b825b8 25b825b8     .%.%.%.%.%.%.%.%
   23740:	25b825b8 25b825b8 25b825b8 25b825b8     .%.%.%.%.%.%.%.%
   23750:	25b825b8 25b825b8 25b825b8 25b825b8     .%.%.%.%.%.%.%.%
   23760:	25b825b8 25b825b8 25b825b8 25b825b8     .%.%.%.%.%.%.%.%
   23770:	25b825b8 25b825b8 25b825b8 25b825b8     .%.%.%.%.%.%.%.%
   23780:	25b825b8 25b825b8 25b825b8 25b825b8     .%.%.%.%.%.%.%.%
   23790:	25b825b8 25b825b8 25b825b8 25b825b8     .%.%.%.%.%.%.%.%
   237a0:	25b825b8 25b825b8 25b825b8 25b825b8     .%.%.%.%.%.%.%.%
   237b0:	25b825b8 25b825b8 25b825b8 25b825b8     .%.%.%.%.%.%.%.%
   237c0:	25b825b8 25b825b8 25b825b8 25b825b8     .%.%.%.%.%.%.%.%
   237d0:	25b825b8 25b825b8 25b825b8 25b825b8     .%.%.%.%.%.%.%.%
   237e0:	25b825b8 25b825b8 25b825b8 25b825b8     .%.%.%.%.%.%.%.%
   237f0:	25b825b8 25b825b8 25b825b8 25b825b8     .%.%.%.%.%.%.%.%
   23800:	25b825b8 25b825b8 25b825b8 25b825b8     .%.%.%.%.%.%.%.%
   23810:	25b825b8 25b825b8 25b825b8 25b825b8     .%.%.%.%.%.%.%.%
   23820:	1db81db8 25b825b8 25b825b8 25b82598     .....%.%.%.%.%.%
   23830:	25982598 25982598 25b825b8 25b725b8     .%.%.%.%.%.%.%.%
   23840:	2dd825b7 359735b7 3db63596 3db63db6     .%.-.5.5.5.=.=.=
   23850:	3db63db6 3db63db6 3db63db6 35963db6     .=.=.=.=.=.=.=.5
   23860:	2db62db6 25b72dd7 25b825b8 25b825b8     .-.-.-.%.%.%.%.%
   23870:	25982598 25b72598 25b825b8 25b825b8     .%.%.%.%.%.%.%.%
   23880:	25b825b8 25b825b8 25b825b8 25b825b8     .%.%.%.%.%.%.%.%
   23890:	25b825b8 25b825b8 25b825b8 25b825b8     .%.%.%.%.%.%.%.%
   238a0:	25b825b8 25b825b8 25b825b8 25b825b8     .%.%.%.%.%.%.%.%
   238b0:	25b825b8 25b825b8 25b825b8 25b825b8     .%.%.%.%.%.%.%.%
   238c0:	25b825b8 25b825b8 25b825b8 25b825b8     .%.%.%.%.%.%.%.%
   238d0:	25b825b8 25b825b8 25b825b8 25b825b8     .%.%.%.%.%.%.%.%
   238e0:	25b825b8 25b825b8 25b825b8 25b825b8     .%.%.%.%.%.%.%.%
   238f0:	25b825b8 25b825b8 25b825b8 25b825b8     .%.%.%.%.%.%.%.%
   23900:	25b825b8 25b825b8 25b825b8 25b825b8     .%.%.%.%.%.%.%.%
   23910:	25b825b8 25b825b8 1d981db8 155725b8     .%.%.%.%.....%W.
   23920:	25b825b8 25982598 25b725b8 1db825b8     .%.%.%.%.%.%.%..
   23930:	25b825b8 25b825b8 25b825b8 25b825b8     .%.%.%.%.%.%.%.%
   23940:	25b825b8 259825b8 25b725b8 25b725b7     .%.%.%.%.%.%.%.%
   23950:	25b825b8 25b825b8 25b825b8 25b825b8     .%.%.%.%.%.%.%.%
   23960:	25b825b8 25b825b8 25b825b8 25b825b8     .%.%.%.%.%.%.%.%
   23970:	25b825b8 25b825b8 25b825b8 25b825b8     .%.%.%.%.%.%.%.%
   23980:	25b825b8 25b825b8 25b825b8 25b825b8     .%.%.%.%.%.%.%.%
   23990:	25b825b8 25b825b8 25b825b8 25b825b8     .%.%.%.%.%.%.%.%
   239a0:	25b825b8 25b825b8 25b825b8 25b825b8     .%.%.%.%.%.%.%.%
   239b0:	25b825b8 25b825b8 25b825b8 25b825b8     .%.%.%.%.%.%.%.%
   239c0:	25b825b8 25b825b8 25b825b8 25b825b8     .%.%.%.%.%.%.%.%
   239d0:	25b825b8 25b825b8 25b825b8 25b825b8     .%.%.%.%.%.%.%.%
   239e0:	25b825b8 25b825b8 25b825b8 25b825b8     .%.%.%.%.%.%.%.%
   239f0:	25b825b8 25b825b8 25b825b8 25b825b8     .%.%.%.%.%.%.%.%
   23a00:	25b825b8 25b825b8 25b825b8 25b825b8     .%.%.%.%.%.%.%.%
   23a10:	25b825b8 25b825b8 25b825b8 25b825b8     .%.%.%.%.%.%.%.%
   23a20:	25b825b8 25b825b8 25b825b8 25b825b8     .%.%.%.%.%.%.%.%
   23a30:	25b825b8 25b825b8 25b825b8 25b825b8     .%.%.%.%.%.%.%.%
   23a40:	25b825b8 25b825b8 25b825b8 25b825b8     .%.%.%.%.%.%.%.%
   23a50:	25b825b8 25b825b8 25b825b8 25b825b8     .%.%.%.%.%.%.%.%
   23a60:	25b825b8 25b825b8 25b825b8 25b825b8     .%.%.%.%.%.%.%.%
   23a70:	25b825b8 25b825b8 25b825b8 25b825b8     .%.%.%.%.%.%.%.%
   23a80:	25b825b8 25b825b8 25b825b8 25b825b8     .%.%.%.%.%.%.%.%
   23a90:	25b825b8 25b825b8 25b825b8 25b825b8     .%.%.%.%.%.%.%.%
   23aa0:	1db81db8 25b81db8 25b825b8 25982598     .......%.%.%.%.%
   23ab0:	25b82598 259825b8 25b725b8 2db72db8     .%.%.%.%.%.%.-.-
   23ac0:	35d735d7 667945f7 6e786678 76986e78     .5.5.Eyfxfxnxn.v
   23ad0:	76987698 76987698 6e786e78 66996e78     .v.v.v.vxnxnxn.f
   23ae0:	3db64e17 2db735d7 25b72dd8 25982598     .N.=.5.-.-.%.%.%
   23af0:	259825b8 25972597 25b825b8 25b825b8     .%.%.%.%.%.%.%.%
   23b00:	25b825b8 25b825b8 25b825b8 25b825b8     .%.%.%.%.%.%.%.%
   23b10:	25b825b8 25b825b8 25b825b8 25b825b8     .%.%.%.%.%.%.%.%
   23b20:	25b825b8 25b825b8 25b825b8 25b825b8     .%.%.%.%.%.%.%.%
   23b30:	25b825b8 25b825b8 25b825b8 25b825b8     .%.%.%.%.%.%.%.%
   23b40:	25b825b8 25b825b8 25b825b8 25b825b8     .%.%.%.%.%.%.%.%
   23b50:	25b825b8 25b825b8 25b825b8 25b825b8     .%.%.%.%.%.%.%.%
   23b60:	25b825b8 25b825b8 25b825b8 25b825b8     .%.%.%.%.%.%.%.%
   23b70:	25b825b8 25b825b8 25b825b8 25b825b8     .%.%.%.%.%.%.%.%
   23b80:	25b825b8 25b825b8 25b825b8 25b825b8     .%.%.%.%.%.%.%.%
   23b90:	25b825b8 25b825b8 1d981db8 155725b8     .%.%.%.%.....%W.
   23ba0:	1db81db8 259825b8 25b825b8 25b825b8     .....%.%.%.%.%.%
   23bb0:	25b825b8 25b825b8 25b825b8 25b825b8     .%.%.%.%.%.%.%.%
   23bc0:	25b825b8 25b825b8 25b825b8 25982598     .%.%.%.%.%.%.%.%
   23bd0:	25b82598 25b825b8 25b825b8 25b81d98     .%.%.%.%.%.%...%
   23be0:	25b825b8 25b825b8 25b825b8 25b825b8     .%.%.%.%.%.%.%.%
   23bf0:	25b825b8 25b825b8 25b825b8 25b825b8     .%.%.%.%.%.%.%.%
   23c00:	25b825b8 25b825b8 25b825b8 25b825b8     .%.%.%.%.%.%.%.%
   23c10:	25b825b8 25b825b8 25b825b8 25b825b8     .%.%.%.%.%.%.%.%
   23c20:	25b825b8 25b825b8 25b825b8 25b825b8     .%.%.%.%.%.%.%.%
   23c30:	25b825b8 25b825b8 25b825b8 25b825b8     .%.%.%.%.%.%.%.%
   23c40:	25b825b8 25b825b8 25b825b8 25b825b8     .%.%.%.%.%.%.%.%
   23c50:	25b825b8 25b825b8 25b825b8 25b825b8     .%.%.%.%.%.%.%.%
   23c60:	25b825b8 25b825b8 25b825b8 25b825b8     .%.%.%.%.%.%.%.%
   23c70:	25b825b8 25b825b8 25b825b8 25b825b8     .%.%.%.%.%.%.%.%
   23c80:	25b825b8 25b825b8 25b825b8 25b825b8     .%.%.%.%.%.%.%.%
   23c90:	25b825b8 25b825b8 25b825b8 25b825b8     .%.%.%.%.%.%.%.%
   23ca0:	25b825b8 25b825b8 25b825b8 25b825b8     .%.%.%.%.%.%.%.%
   23cb0:	25b825b8 25b825b8 25b825b8 25b825b8     .%.%.%.%.%.%.%.%
   23cc0:	25b825b8 25b825b8 25b825b8 25b825b8     .%.%.%.%.%.%.%.%
   23cd0:	25b825b8 25b825b8 25b825b8 25b825b8     .%.%.%.%.%.%.%.%
   23ce0:	25b825b8 25b825b8 25b825b8 25b825b8     .%.%.%.%.%.%.%.%
   23cf0:	25b825b8 25b825b8 25b825b8 25b825b8     .%.%.%.%.%.%.%.%
   23d00:	25b825b8 25b825b8 25b825b8 25b825b8     .%.%.%.%.%.%.%.%
   23d10:	25b825b8 25b825b8 25b825b8 25b825b8     .%.%.%.%.%.%.%.%
   23d20:	1db825b8 1db81db8 25b725b8 25972597     .%.......%.%.%.%
   23d30:	25b825b7 25b82598 2db72db8 3dd735b7     .%.%.%.%.-.-.5.=
   23d40:	45d645f7 b7fe6e58 bffcbffd c7fcc7fc     .E.EXn..........
   23d50:	c7fcc7fc c7fcc7fc c7fcc7fc b7febffd     ................
   23d60:	4db676b9 35d745f7 2db735f7 25b82db8     .v.M.E.5.5.-.-.%
   23d70:	25b825b8 1db725b7 1db81db8 25b825b8     .%.%.%.......%.%
   23d80:	25b825b8 25b825b8 25b825b8 25b825b8     .%.%.%.%.%.%.%.%
   23d90:	1d981d98 25b825b8 25b825b8 25b825b8     .....%.%.%.%.%.%
   23da0:	25b825b8 25b825b8 25b825b8 25b825b8     .%.%.%.%.%.%.%.%
   23db0:	25b825b8 25b825b8 25b825b8 25b825b8     .%.%.%.%.%.%.%.%
   23dc0:	25b825b8 25b825b8 25b825b8 25b825b8     .%.%.%.%.%.%.%.%
   23dd0:	25b825b8 25b825b8 25b825b8 25b825b8     .%.%.%.%.%.%.%.%
   23de0:	25b825b8 25b825b8 25b825b8 25b825b8     .%.%.%.%.%.%.%.%
   23df0:	25b825b8 25b825b8 25b825b8 25b825b8     .%.%.%.%.%.%.%.%
   23e00:	25b825b8 25b825b8 25b825b8 25b825b8     .%.%.%.%.%.%.%.%
   23e10:	25b825b8 25b825b8 1d981db8 155725b8     .%.%.%.%.....%W.
   23e20:	1db71db7 25b81d98 25b825b8 25b825b8     .......%.%.%.%.%
   23e30:	2db825b8 25b725b7 2dd82db8 2db72db8     .%.-.%.%.-.-.-.-
   23e40:	25b72db7 25b825b8 25b825b8 25b82597     .-.%.%.%.%.%.%.%
   23e50:	1d982598 25b825b8 1d9825b8 1d981d98     .%...%.%.%......
   23e60:	25b825b8 25b825b8 25b825b8 25b825b8     .%.%.%.%.%.%.%.%
   23e70:	25b825b8 25b825b8 25b825b8 25b825b8     .%.%.%.%.%.%.%.%
   23e80:	25b825b8 25b825b8 25b825b8 25b825b8     .%.%.%.%.%.%.%.%
   23e90:	25b825b8 25b825b8 25b825b8 25b825b8     .%.%.%.%.%.%.%.%
   23ea0:	25b825b8 25b825b8 25b825b8 25b825b8     .%.%.%.%.%.%.%.%
   23eb0:	25b825b8 25b825b8 25b825b8 25b825b8     .%.%.%.%.%.%.%.%
   23ec0:	25b825b8 25b825b8 25b825b8 25b825b8     .%.%.%.%.%.%.%.%
   23ed0:	25b825b8 25b825b8 25b825b8 25b825b8     .%.%.%.%.%.%.%.%
   23ee0:	25b825b8 25b825b8 25b825b8 25b825b8     .%.%.%.%.%.%.%.%
   23ef0:	25b825b8 25b825b8 25b825b8 25b825b8     .%.%.%.%.%.%.%.%
   23f00:	25b825b8 25b825b8 25b825b8 25b825b8     .%.%.%.%.%.%.%.%
   23f10:	25b825b8 25b825b8 25b825b8 25b825b8     .%.%.%.%.%.%.%.%
   23f20:	25b825b8 25b825b8 25b825b8 25b825b8     .%.%.%.%.%.%.%.%
   23f30:	25b825b8 25b825b8 25b825b8 25b825b8     .%.%.%.%.%.%.%.%
   23f40:	25b825b8 25b825b8 25b825b8 25b825b8     .%.%.%.%.%.%.%.%
   23f50:	25b825b8 25b825b8 25b825b8 25b825b8     .%.%.%.%.%.%.%.%
   23f60:	25b825b8 25b825b8 25b825b8 25b825b8     .%.%.%.%.%.%.%.%
   23f70:	25b825b8 25b825b8 25b825b8 25b825b8     .%.%.%.%.%.%.%.%
   23f80:	25b825b8 25b825b8 25b825b8 25b825b8     .%.%.%.%.%.%.%.%
   23f90:	25b825b8 25b825b8 25b825b8 25b825b8     .%.%.%.%.%.%.%.%
   23fa0:	25b825b8 1db81db8 25b725b8 25b725b7     .%.%.....%.%.%.%
   23fb0:	25b725b7 2db82db8 35b735b7 55f74dd7     .%.%.-.-.5.5.M.U
   23fc0:	65f55e16 c7dc8656 cfbac7ba cfbacfba     .^.eV...........
   23fd0:	d7dad7da cfbad7da cfbacfb9 c7fcc7ba     ................
   23fe0:	65d58e97 55f65df6 35b64df7 25b72db7     ...e.].U.M.5.-.%
   23ff0:	25d82dd8 1db725b8 1d981db8 25b81d98     .-.%.%.........%
   24000:	25b825b8 25b825b8 25b825b8 25b825b8     .%.%.%.%.%.%.%.%
   24010:	25b825b8 25b825b8 25b825b8 25b825b8     .%.%.%.%.%.%.%.%
   24020:	25b825b8 25b825b8 25b825b8 25b825b8     .%.%.%.%.%.%.%.%
   24030:	25b825b8 25b825b8 25b825b8 25b825b8     .%.%.%.%.%.%.%.%
   24040:	25b825b8 25b825b8 25b825b8 25b825b8     .%.%.%.%.%.%.%.%
   24050:	25b825b8 25b825b8 25b825b8 25b825b8     .%.%.%.%.%.%.%.%
   24060:	25b825b8 25b825b8 25b825b8 25b825b8     .%.%.%.%.%.%.%.%
   24070:	25b825b8 25b825b8 25b825b8 25b825b8     .%.%.%.%.%.%.%.%
   24080:	25b825b8 25b825b8 25b825b8 25b825b8     .%.%.%.%.%.%.%.%
   24090:	25b825b8 25b825b8 1d981db8 155725b8     .%.%.%.%.....%W.
   240a0:	25b82597 25b82598 2dd82dd8 35f82dd8     .%.%.%.%.-.-.-.5
   240b0:	35f835f8 35f835f8 3df83dd8 3df83df8     .5.5.5.5.=.=.=.=
   240c0:	35f735f7 2dd82df8 25d825d7 25d825d8     .5.5.-.-.%.%.%.%
   240d0:	25b825b8 25b825b8 1d9825b8 1d9825b8     .%.%.%.%.%...%..
   240e0:	25b825b8 25b825b8 25b825b8 25b825b8     .%.%.%.%.%.%.%.%
   240f0:	25b825b8 25b825b8 25b825b8 25b825b8     .%.%.%.%.%.%.%.%
   24100:	25b825b8 25b825b8 25b825b8 25b825b8     .%.%.%.%.%.%.%.%
   24110:	25b825b8 25b825b8 25b825b8 25b825b8     .%.%.%.%.%.%.%.%
   24120:	25b825b8 25b825b8 25b825b8 25b825b8     .%.%.%.%.%.%.%.%
   24130:	25b825b8 25b825b8 25b825b8 25b825b8     .%.%.%.%.%.%.%.%
   24140:	25b825b8 25b825b8 25b825b8 25b825b8     .%.%.%.%.%.%.%.%
   24150:	25b825b8 25b825b8 25b825b8 25b825b8     .%.%.%.%.%.%.%.%
   24160:	25b825b8 25b825b8 25b825b8 25b825b8     .%.%.%.%.%.%.%.%
   24170:	25b825b8 25b825b8 25b825b8 25b825b8     .%.%.%.%.%.%.%.%
   24180:	25b825b8 25b825b8 25b825b8 25b825b8     .%.%.%.%.%.%.%.%
   24190:	25b825b8 25b825b8 25b825b8 25b825b8     .%.%.%.%.%.%.%.%
   241a0:	25b825b8 25b825b8 25b825b8 25b825b8     .%.%.%.%.%.%.%.%
   241b0:	25b825b8 25b825b8 25b825b8 25b825b8     .%.%.%.%.%.%.%.%
   241c0:	25b825b8 25b825b8 25b825b8 25b825b8     .%.%.%.%.%.%.%.%
   241d0:	25b825b8 25b825b8 25b825b8 25b825b8     .%.%.%.%.%.%.%.%
   241e0:	25b825b8 25b825b8 25b825b8 25b825b8     .%.%.%.%.%.%.%.%
   241f0:	25b825b8 25b825b8 25b825b8 25b825b8     .%.%.%.%.%.%.%.%
   24200:	25b825b8 25b825b8 25b825b8 25b825b8     .%.%.%.%.%.%.%.%
   24210:	25b825b8 25b825b8 25b825b8 25b825b8     .%.%.%.%.%.%.%.%
   24220:	25b825b8 25b825b8 259825b8 25b72598     .%.%.%.%.%.%.%.%
   24230:	2dd725d7 3df835f8 4dd645f7 afdd975b     .%.-.5.=.E.M[...
   24240:	bfbbb7bb d7dbc7bb d7dad7da dfdad7da     ................
   24250:	dfdadfda dfdadffa d7dadfda d7dbd7da     ................
   24260:	bfbbc7bb afdcbfdc 55f6979c 35f74617     ...........U.F.5
   24270:	2dd735f7 25b825b7 25b825b8 25b825b8     .5.-.%.%.%.%.%.%
   24280:	25b825b8 25b825b8 1d981d98 1d981d98     .%.%.%.%........
   24290:	1d981d98 1d981d98 1d981d98 1d981d98     ................
   242a0:	1d981d98 1d981d98 1d981d98 1d981d98     ................
   242b0:	25b825b8 25b825b8 25b825b8 25b825b8     .%.%.%.%.%.%.%.%
   242c0:	25b825b8 25b825b8 25b825b8 25b825b8     .%.%.%.%.%.%.%.%
   242d0:	25b825b8 25b825b8 25b825b8 25b825b8     .%.%.%.%.%.%.%.%
   242e0:	25b825b8 25b825b8 25b825b8 25b825b8     .%.%.%.%.%.%.%.%
   242f0:	25b825b8 25b825b8 25b825b8 25b825b8     .%.%.%.%.%.%.%.%
   24300:	25b825b8 25b825b8 25b825b8 25b825b8     .%.%.%.%.%.%.%.%
   24310:	25b825b8 25b825b8 1d981db8 155725b8     .%.%.%.%.....%W.
   24320:	2d972597 2db72d97 35962db7 3d963d96     .%.-.-.-.-.5.=.=
   24330:	45953d95 45954595 45954595 45954595     .=.E.E.E.E.E.E.E
   24340:	3d9545b5 35b63db5 2dd72dd7 25b825b7     .E.=.=.5.-.-.%.%
   24350:	25b825b8 1d9725b8 25b825b8 25b825b8     .%.%.%...%.%.%.%
   24360:	25b825b8 25b825b8 25b825b8 25b825b8     .%.%.%.%.%.%.%.%
   24370:	25b825b8 25b825b8 25b825b8 25b825b8     .%.%.%.%.%.%.%.%
   24380:	25b825b8 25b825b8 25b825b8 25b825b8     .%.%.%.%.%.%.%.%
   24390:	25b825b8 25b825b8 25b825b8 25b825b8     .%.%.%.%.%.%.%.%
   243a0:	25b825b8 25b825b8 25b825b8 25b825b8     .%.%.%.%.%.%.%.%
   243b0:	25b825b8 25b825b8 25b825b8 25b825b8     .%.%.%.%.%.%.%.%
   243c0:	25b825b8 25b825b8 25b825b8 25b825b8     .%.%.%.%.%.%.%.%
   243d0:	25b825b8 25b825b8 25b825b8 25b825b8     .%.%.%.%.%.%.%.%
   243e0:	25b825b8 25b825b8 25b825b8 25b825b8     .%.%.%.%.%.%.%.%
   243f0:	25b825b8 25b825b8 25b825b8 25b825b8     .%.%.%.%.%.%.%.%
   24400:	25b825b8 25b825b8 25b825b8 25b825b8     .%.%.%.%.%.%.%.%
   24410:	25b825b8 25b825b8 25b825b8 25b825b8     .%.%.%.%.%.%.%.%
   24420:	25b825b8 25b825b8 25b825b8 25b825b8     .%.%.%.%.%.%.%.%
   24430:	25b825b8 25b825b8 25b825b8 25b825b8     .%.%.%.%.%.%.%.%
   24440:	25b825b8 25b825b8 25b825b8 25b825b8     .%.%.%.%.%.%.%.%
   24450:	25b825b8 25b825b8 25b825b8 25b825b8     .%.%.%.%.%.%.%.%
   24460:	25b825b8 25b825b8 25b825b8 25b825b8     .%.%.%.%.%.%.%.%
   24470:	25b825b8 25b825b8 25b825b8 25b825b8     .%.%.%.%.%.%.%.%
   24480:	25b825b8 25b825b8 25b825b8 25b825b8     .%.%.%.%.%.%.%.%
   24490:	25b825b8 25b825b8 25b825b8 25b825b8     .%.%.%.%.%.%.%.%
   244a0:	25b825b8 25b825b8 25b82598 25b725b8     .%.%.%.%.%.%.%.%
   244b0:	35b62d96 45953db6 5db44db5 c7fca75a     .-.5.=.E.M.]Z...
   244c0:	d7dbcfba dfbad7da dfdadfda dfdadfda     ................
   244d0:	dfdadfda dfdadfda dfdadfda dfdadfda     ................
   244e0:	d7dadfdb cffccfda 65d5b79b 3db54db5     ...........e.M.=
   244f0:	35b63db5 2db72d96 259825b7 1d981d98     .=.5.-.-.%.%....
   24500:	25b825b8 25b825b8 25b825b8 25b825b8     .%.%.%.%.%.%.%.%
   24510:	25b825b8 25b825b8 1d971d98 1d971d98     .%.%.%.%........
   24520:	25b825b8 25b825b8 25b825b8 25b825b8     .%.%.%.%.%.%.%.%
   24530:	25b825b8 25b825b8 25b825b8 25b825b8     .%.%.%.%.%.%.%.%
   24540:	25b825b8 25b825b8 25b825b8 25b825b8     .%.%.%.%.%.%.%.%
   24550:	25b825b8 25b825b8 25b825b8 25b825b8     .%.%.%.%.%.%.%.%
   24560:	25b825b8 25b825b8 25b825b8 25b825b8     .%.%.%.%.%.%.%.%
   24570:	25b825b8 25b825b8 25b825b8 25b825b8     .%.%.%.%.%.%.%.%
   24580:	25b825b8 25b825b8 25b825b8 25b825b8     .%.%.%.%.%.%.%.%
   24590:	25b825b8 25b825b8 1d981db8 155725b8     .%.%.%.%.....%W.
   245a0:	2dd82db7 3dd835d8 561745f7 973b975c     .-.-.5.=.E.V\.;.
   245b0:	9f5a9f3a 9f5a9f5a 9f5a9f5a 9f5a9f5a     :.Z.Z.Z.Z.Z.Z.Z.
   245c0:	973a9f5a 6eb9977b 45f845d6 35d835d7     Z.:.{..n.E.E.5.5
   245d0:	25d82dd8 25b825d8 25b825b8 25b825b8     .-.%.%.%.%.%.%.%
   245e0:	25b825b8 25b825b8 25b825b8 25b825b8     .%.%.%.%.%.%.%.%
   245f0:	25b825b8 25b825b8 25b825b8 25b825b8     .%.%.%.%.%.%.%.%
   24600:	25b825b8 25b825b8 25b825b8 25b825b8     .%.%.%.%.%.%.%.%
   24610:	25b825b8 25b825b8 25b825b8 25b825b8     .%.%.%.%.%.%.%.%
   24620:	25b825b8 25b825b8 25b825b8 25b825b8     .%.%.%.%.%.%.%.%
   24630:	25b825b8 25b825b8 25b825b8 25b825b8     .%.%.%.%.%.%.%.%
   24640:	25b825b8 25b825b8 25b825b8 25b825b8     .%.%.%.%.%.%.%.%
   24650:	25b825b8 25b825b8 25b825b8 25b825b8     .%.%.%.%.%.%.%.%
   24660:	25b825b8 25b825b8 25b825b8 25b825b8     .%.%.%.%.%.%.%.%
   24670:	25b825b8 25b825b8 25b825b8 25b825b8     .%.%.%.%.%.%.%.%
   24680:	25b825b8 25b825b8 25b825b8 25b825b8     .%.%.%.%.%.%.%.%
   24690:	25b825b8 25b825b8 25b825b8 25b825b8     .%.%.%.%.%.%.%.%
   246a0:	25b825b8 25b825b8 25b825b8 25b825b8     .%.%.%.%.%.%.%.%
   246b0:	25b825b8 25b825b8 25b825b8 25b825b8     .%.%.%.%.%.%.%.%
   246c0:	25b825b8 25b825b8 25b825b8 25b825b8     .%.%.%.%.%.%.%.%
   246d0:	25b825b8 25b825b8 25b825b8 25b825b8     .%.%.%.%.%.%.%.%
   246e0:	25b825b8 25b825b8 25b825b8 25b825b8     .%.%.%.%.%.%.%.%
   246f0:	25b825b8 25b825b8 25b825b8 25b825b8     .%.%.%.%.%.%.%.%
   24700:	25b825b8 25b825b8 25b825b8 25b825b8     .%.%.%.%.%.%.%.%
   24710:	25b825b8 25b825b8 25b825b8 25b825b8     .%.%.%.%.%.%.%.%
   24720:	1d9825b8 25b825b8 25b825b8 35f82db8     .%...%.%.%.%.-.5
   24730:	66583db6 9f5b975b af59a75a d7dbc7bb     .=Xf[.[.Z.Y.....
   24740:	dfdad7da dffadfda dfd9dfda e7fadfda     ................
   24750:	e7fae7fa e7fae7fa dffadffa dfdadffa     ................
   24760:	dfdadfda d7dad7da b759cfbb 975aa75a     ..........Y.Z.Z.
   24770:	6699977b 35f83db6 25b82db7 25b825b8     {..f.=.5.-.%.%.%
   24780:	25b81db8 259825b8 25b825b8 25b825b8     ...%.%.%.%.%.%.%
   24790:	25b825b8 25b825b8 25d825d8 25d825b8     .%.%.%.%.%.%.%.%
   247a0:	25b825b8 25b825b8 25b825b8 25b825b8     .%.%.%.%.%.%.%.%
   247b0:	25b825b8 25982598 25b825b8 25b825b8     .%.%.%.%.%.%.%.%
   247c0:	25b825b8 25b825b8 25b825b8 25b825b8     .%.%.%.%.%.%.%.%
   247d0:	25b825b8 25b825b8 25b825b8 25b825b8     .%.%.%.%.%.%.%.%
   247e0:	25b825b8 25b825b8 25b825b8 25b825b8     .%.%.%.%.%.%.%.%
   247f0:	25b825b8 25b825b8 25b825b8 25b825b8     .%.%.%.%.%.%.%.%
   24800:	25b825b8 25b825b8 25b825b8 25b825b8     .%.%.%.%.%.%.%.%
   24810:	25b825b8 1d9825b8 1d9825b8 155725b8     .%.%.%...%...%W.
   24820:	3d973596 4db64596 6df65596 c7fdbfdd     .5.=.E.M.U.m....
   24830:	cfdbc7dc cffccfdc cffccffc cfdccffc     ................
   24840:	c7dcc7fc 96d9c7fe 4db65595 45b74596     .........U.M.E.E
   24850:	35b73597 35973597 35973597 2d772d77     .5.5.5.5.5.5w-w-
   24860:	2d772d77 2d772d77 2d772d77 2d772d77     w-w-w-w-w-w-w-w-
   24870:	2d772d77 2d772d77 2d772d77 2d772d77     w-w-w-w-w-w-w-w-
   24880:	2d772d77 2d772d77 2d772d77 2d772d77     w-w-w-w-w-w-w-w-
   24890:	2d772d77 2d772d77 2d772d77 2d772d77     w-w-w-w-w-w-w-w-
   248a0:	2d772d77 2d772d77 2d772d77 2d772d77     w-w-w-w-w-w-w-w-
   248b0:	2d772d77 2d772d77 2d772d77 2d772d77     w-w-w-w-w-w-w-w-
   248c0:	2d772d77 2d772d77 2d772d77 2d772d77     w-w-w-w-w-w-w-w-
   248d0:	2d772d77 2d772d77 2d772d77 2d772d77     w-w-w-w-w-w-w-w-
   248e0:	2d772d77 2d772d77 2d772d77 2d772d77     w-w-w-w-w-w-w-w-
   248f0:	2d772d77 2d772d77 2d772d77 2d772d77     w-w-w-w-w-w-w-w-
   24900:	2d772d77 2d772d77 2d772d77 2d772d77     w-w-w-w-w-w-w-w-
   24910:	2d772d77 2d772d77 2d772d77 2d772d77     w-w-w-w-w-w-w-w-
   24920:	2d772d77 2d772d77 2d772d77 2d772d77     w-w-w-w-w-w-w-w-
   24930:	2d772d77 2d772d77 2d772d77 2d772d77     w-w-w-w-w-w-w-w-
   24940:	2d772d77 2d772d77 2d772d77 2d772d77     w-w-w-w-w-w-w-w-
   24950:	2d772d77 2d772d77 2d772d77 2d772d77     w-w-w-w-w-w-w-w-
   24960:	2d772d77 2d772d77 2d772d77 2d772d77     w-w-w-w-w-w-w-w-
   24970:	2d772d77 2d772d77 2d772d77 2d772d77     w-w-w-w-w-w-w-w-
   24980:	2d772d77 2d772d77 2d772d77 2d772d77     w-w-w-w-w-w-w-w-
   24990:	2d772d77 2d772d77 2d772d77 2d772d77     w-w-w-w-w-w-w-w-
   249a0:	2d772d77 2d772d77 35973597 45b73597     w-w-w-w-.5.5.5.E
   249b0:	7e984d95 c7dcc7fe d7fbcffc dfdadfdb     .M.~............
   249c0:	e7dadfda e7fae7da e7fae7fa e7fae7fa     ................
   249d0:	e7fae7fa e7fae7fa e7dae7fa e7fbe7fb     ................
   249e0:	dfdadfda dfdae7db d7dbdfdb c7dccfdc     ................
   249f0:	86b9bffd 45964d75 35973597 2d972d77     ....uM.E.5.5w-.-
   24a00:	2d772d77 2d772d77 2d772d77 2d772d77     w-w-w-w-w-w-w-w-
   24a10:	35973597 35973577 35973597 35973597     .5.5w5.5.5.5.5.5
   24a20:	2d772d77 35973597 2d772d77 2d773597     w-w-.5.5w-w-.5w-
   24a30:	2d772d77 2d772d77 2d772d77 2d772d77     w-w-w-w-w-w-w-w-
   24a40:	2d772d77 2d772d77 2d772d77 2d772d77     w-w-w-w-w-w-w-w-
   24a50:	2d772d77 2d772d77 2d772d77 2d772d77     w-w-w-w-w-w-w-w-
   24a60:	2d772d77 2d772d77 2d772d97 2d772d77     w-w-w-w-.-w-w-w-
   24a70:	2d772d77 2d772d77 2d772d77 2d772d77     w-w-w-w-w-w-w-w-
   24a80:	2d772d77 2d772d77 2d772d77 2d772d77     w-w-w-w-w-w-w-w-
   24a90:	2d772d77 2d772d77 2d772d77 25362d97     w-w-w-w-w-w-.-6%
   24aa0:	76395d76 8e99869a 9ed99699 d79ccf9c     v]9v............
   24ab0:	d79bd7bb dfbbd7bb d7bbd79b d79bd7bb     ................
   24ac0:	d7bcd79b b71ad7bc 8e9a9699 7e7a867a     ............z.z~
   24ad0:	55555d96 55555556 4d354d55 4d154d35     .]UUVUUUUM5M5M.M
   24ae0:	45354d15 45354d15 45354535 45354535     .M5E.M5E5E5E5E5E
   24af0:	45354535 45354535 45354535 45354535     5E5E5E5E5E5E5E5E
   24b00:	45354d15 45354d15 45354535 45354535     .M5E.M5E5E5E5E5E
   24b10:	45354535 45354535 45354535 45354535     5E5E5E5E5E5E5E5E
   24b20:	45354d15 45354d15 45354535 45354535     .M5E.M5E5E5E5E5E
   24b30:	45354535 45354535 45354535 45354535     5E5E5E5E5E5E5E5E
   24b40:	45354d15 45354d15 45354535 45354535     .M5E.M5E5E5E5E5E
   24b50:	45354535 45354535 45354535 45354535     5E5E5E5E5E5E5E5E
   24b60:	45354d15 45354d15 45354535 45354535     .M5E.M5E5E5E5E5E
   24b70:	45354535 45354535 45354535 45354535     5E5E5E5E5E5E5E5E
   24b80:	45354d15 45354d15 45354535 45354535     .M5E.M5E5E5E5E5E
   24b90:	45354535 45354535 45354535 45354535     5E5E5E5E5E5E5E5E
   24ba0:	45354d15 45354d15 45354535 45354535     .M5E.M5E5E5E5E5E
   24bb0:	45354535 45354535 45354535 45354535     5E5E5E5E5E5E5E5E
   24bc0:	45354d15 45354d15 45354535 45354535     .M5E.M5E5E5E5E5E
   24bd0:	45354535 45354535 45354535 45354535     5E5E5E5E5E5E5E5E
   24be0:	45354d15 45354d15 45354535 45354535     .M5E.M5E5E5E5E5E
   24bf0:	45354535 45354535 45354535 45354535     5E5E5E5E5E5E5E5E
   24c00:	45354d15 45354d15 45354535 45354535     .M5E.M5E5E5E5E5E
   24c10:	45354535 45354535 45354535 45354535     5E5E5E5E5E5E5E5E
   24c20:	4d354515 4d354d35 55764d35 76385556     .E5M5M5M5MvUVU8v
   24c30:	a6d98e99 d79ccfbc dfbbdfbb e7bbe7db     ................
   24c40:	e7bbe7bb e7dbe7db efdbe7db efdbefdb     ................
   24c50:	efdbefdb e7dbefdb e7dbe7db e7dbe7bb     ................
   24c60:	e7bbe7bb e7bbe7bb dfbbe7bc d79cdfbb     ................
   24c70:	af1acfbc 76388e79 55555555 4d354d35     ....y.8vUUUU5M5M
   24c80:	45354535 4d354d35 4d564d35 4d564d56     5E5E5M5M5MVMVMVM
   24c90:	4d565556 55565556 4d564d56 55565556     VUVMVUVUVMVMVUVU
   24ca0:	55565556 4d564d56 4d354d35 45354d35     VUVUVMVM5M5M5M5E
   24cb0:	4d354d35 45354d35 45354535 45354535     5M5M5M5E5E5E5E5E
   24cc0:	45354d15 45354d15 45354535 45354535     .M5E.M5E5E5E5E5E
   24cd0:	45354535 45354535 45354535 45354535     5E5E5E5E5E5E5E5E
   24ce0:	4d354d35 4d354d35 4d354d35 4d354d35     5M5M5M5M5M5M5M5M
   24cf0:	4d354d35 4d354d35 4d354d35 4d354d35     5M5M5M5M5M5M5M5M
   24d00:	45354535 45354535 45354535 45354535     5E5E5E5E5E5E5E5E
   24d10:	45354535 4d354d35 45354d35 3cd44d35     5E5E5M5M5M5E5M.<
   24d20:	dfffdfff e7ffe7ff efffe7ff f7fff7ff     ................
   24d30:	f7fef7ff f7fef7fe f7fef7fe f7fef7fe     ................
   24d40:	f7fff7fe effff7ff e7ffe7ff dfffe7ff     ................
   24d50:	dfffdfff dfffdfff dfffdfff dfffdfff     ................
   24d60:	dfffdfff dfffdfff dfffdfff dfffdfff     ................
   24d70:	dfffdfff dfffdfff dfffdfff dfffdfff     ................
   24d80:	dfffdfff dfffdfff dfffdfff dfffdfff     ................
   24d90:	dfffdfff dfffdfff dfffdfff dfffdfff     ................
   24da0:	dfffdfff dfffdfff dfffdfff dfffdfff     ................
   24db0:	dfffdfff dfffdfff dfffdfff dfffdfff     ................
   24dc0:	dfffdfff dfffdfff dfffdfff dfffdfff     ................
   24dd0:	dfffdfff dfffdfff dfffdfff dfffdfff     ................
   24de0:	dfffdfff dfffdfff dfffdfff dfffdfff     ................
   24df0:	dfffdfff dfffdfff dfffdfff dfffdfff     ................
   24e00:	dfffdfff dfffdfff dfffdfff dfffdfff     ................
   24e10:	dfffdfff dfffdfff dfffdfff dfffdfff     ................
   24e20:	dfffdfff dfffdfff dfffdfff dfffdfff     ................
   24e30:	dfffdfff dfffdfff dfffdfff dfffdfff     ................
   24e40:	dfffdfff dfffdfff dfffdfff dfffdfff     ................
   24e50:	dfffdfff dfffdfff dfffdfff dfffdfff     ................
   24e60:	dfffdfff dfffdfff dfffdfff dfffdfff     ................
   24e70:	dfffdfff dfffdfff dfffdfff dfffdfff     ................
   24e80:	dfffdfff dfffdfff dfffdfff dfffdfff     ................
   24e90:	dfffdfff dfffdfff dfffdfff dfffdfff     ................
   24ea0:	d7ffdfff dfffdfff dfffdfff dfffdfff     ................
   24eb0:	efffe7ff f7fef7ff f7fef7fe fffefffe     ................
   24ec0:	fffefffe fffefffe fffefffe fffefffe     ................
   24ed0:	fffefffe fffefffe fffefffe fffefffe     ................
   24ee0:	fffefffe fffefffe fffefffe f7fff7fe     ................
   24ef0:	effff7ff dfffe7ff dfffdfff dfffd7ff     ................
   24f00:	d7ffdfff dfffdfff dfffdfff d7ffdfff     ................
   24f10:	dfffdfff dfffdfff dfffdfff dfffdfff     ................
   24f20:	dfffdfff dfffdfff dfffdfff dfffdfff     ................
   24f30:	dfffdfff dfffdfff dfffdfff dfffdfff     ................
   24f40:	dfffdfff dfffdfff dfffdfff dfffdfff     ................
   24f50:	dfffdfff dfffdfff dfffdfff dfffdfff     ................
   24f60:	dfffdfff dfffdfff dfffdfff dfffdfff     ................
   24f70:	dfffdfff dfffdfff dfffdfff dfffdfff     ................
   24f80:	dfffdfff dfffdfff dfffdfff dfffdfff     ................
   24f90:	dfffdfff dfffdfff d7ffdfff d7ffdfff     ................
   24fa0:	f7fff7ff f7fff7ff fffff7ff ffffffff     ................
   24fb0:	ffffffff ffffffff ffffffff ffffffff     ................
   24fc0:	ffffffff ffffffff f7fff7ff f7fff7ff     ................
   24fd0:	f7fff7ff f7fff7ff f7fff7ff f7fff7ff     ................
   24fe0:	f7fff7ff f7fff7ff f7fff7ff f7fff7ff     ................
   24ff0:	f7fff7ff f7fff7ff f7fff7ff f7fff7ff     ................
   25000:	f7fff7ff f7fff7ff f7fff7ff f7fff7ff     ................
   25010:	f7fff7ff f7fff7ff f7fff7ff f7fff7ff     ................
   25020:	f7fff7ff f7fff7ff f7fff7ff f7fff7ff     ................
   25030:	f7fff7ff f7fff7ff f7fff7ff f7fff7ff     ................
   25040:	f7fff7ff f7fff7ff f7fff7ff f7fff7ff     ................
   25050:	f7fff7ff f7fff7ff f7fff7ff f7fff7ff     ................
   25060:	f7fff7ff f7fff7ff f7fff7ff f7fff7ff     ................
   25070:	f7fff7ff f7fff7ff f7fff7ff f7fff7ff     ................
   25080:	f7fff7ff f7fff7ff f7fff7ff f7fff7ff     ................
   25090:	f7fff7ff f7fff7ff f7fff7ff f7fff7ff     ................
   250a0:	f7fff7ff f7fff7ff f7fff7ff f7fff7ff     ................
   250b0:	f7fff7ff f7fff7ff f7fff7ff f7fff7ff     ................
   250c0:	f7fff7ff f7fff7ff f7fff7ff f7fff7ff     ................
   250d0:	f7fff7ff f7fff7ff f7fff7ff f7fff7ff     ................
   250e0:	f7fff7ff f7fff7ff f7fff7ff f7fff7ff     ................
   250f0:	f7fff7ff f7fff7ff f7fff7ff f7fff7ff     ................
   25100:	f7fff7ff f7fff7ff f7fff7ff f7fff7ff     ................
   25110:	f7fff7ff f7fff7ff f7fff7ff f7fff7ff     ................
   25120:	f7fff7ff f7fff7ff f7fff7ff f7fff7ff     ................
   25130:	fffff7ff ffffffff ffffffff ffffffff     ................
   25140:	ffffffff ffffffff ffffffff ffffffff     ................
   25150:	ffffffff ffffffff ffffffff ffffffff     ................
   25160:	ffffffff ffffffff ffffffff ffffffff     ................
   25170:	ffffffff f7fff7ff f7fff7ff f7fff7ff     ................
   25180:	f7fff7ff f7fff7ff f7fff7ff f7fff7ff     ................
   25190:	f7fff7ff f7fff7ff f7fff7ff f7fff7ff     ................
   251a0:	f7fff7ff f7fff7ff f7fff7ff f7fff7ff     ................
   251b0:	f7fff7ff f7fff7ff f7fff7ff f7fff7ff     ................
   251c0:	f7fff7ff f7fff7ff f7fff7ff f7fff7ff     ................
   251d0:	f7fff7ff f7fff7ff f7fff7ff f7fff7ff     ................
   251e0:	f7fff7ff f7fff7ff f7fff7ff f7fff7ff     ................
   251f0:	f7fff7ff f7fff7ff f7fff7ff f7fff7ff     ................
   25200:	f7fff7ff f7fff7ff f7fff7ff f7fff7ff     ................
   25210:	f7fff7ff f7fff7ff f7fff7ff f7fff7ff     ................
   25220:	ffffffff ffffffff ffffffff ffffffff     ................
   25230:	ffffffff ffffffff ffffffff ffffffff     ................
   25240:	ffffffff ffffffff ffffffff ffffffff     ................
   25250:	ffffffff ffffffff ffffffff ffffffff     ................
   25260:	ffffffff ffffffff ffffffff ffffffff     ................
   25270:	ffffffff ffffffff ffffffff ffffffff     ................
   25280:	ffffffff ffffffff ffffffff ffffffff     ................
   25290:	ffffffff ffffffff ffffffff ffffffff     ................
   252a0:	ffffffff ffffffff ffffffff ffffffff     ................
   252b0:	ffffffff ffffffff ffffffff ffffffff     ................
   252c0:	ffffffff ffffffff ffffffff ffffffff     ................
   252d0:	ffffffff ffffffff ffffffff ffffffff     ................
   252e0:	ffffffff ffffffff ffffffff ffffffff     ................
   252f0:	ffffffff ffffffff ffffffff ffffffff     ................
   25300:	ffffffff ffffffff ffffffff ffffffff     ................
   25310:	ffffffff ffffffff ffffffff ffffffff     ................
   25320:	ffffffff ffffffff ffffffff ffffffff     ................
   25330:	ffffffff ffffffff ffffffff ffffffff     ................
   25340:	ffffffff ffffffff ffffffff ffffffff     ................
   25350:	ffffffff ffffffff ffffffff ffffffff     ................
   25360:	ffffffff ffffffff ffffffff ffffffff     ................
   25370:	ffffffff ffffffff ffffffff ffffffff     ................
   25380:	ffffffff ffffffff ffffffff ffffffff     ................
   25390:	ffffffff ffffffff ffffffff ffffffff     ................
   253a0:	ffffffff ffffffff ffffffff ffffffff     ................
   253b0:	ffffffff ffffffff ffffffff ffffffff     ................
   253c0:	ffffffff ffffffff ffffffff ffffffff     ................
   253d0:	ffffffff ffffffff ffffffff ffffffff     ................
   253e0:	ffffffff ffffffff ffffffff ffffffff     ................
   253f0:	ffffffff ffffffff ffffffff ffffffff     ................
   25400:	ffffffff ffffffff ffffffff ffffffff     ................
   25410:	ffffffff ffffffff ffffffff ffffffff     ................
   25420:	ffffffff ffffffff ffffffff ffffffff     ................
   25430:	ffffffff ffffffff ffffffff ffffffff     ................
   25440:	ffffffff ffffffff ffffffff ffffffff     ................
   25450:	ffffffff ffffffff ffffffff ffffffff     ................
   25460:	ffffffff ffffffff ffffffff ffffffff     ................
   25470:	ffffffff ffffffff ffffffff ffffffff     ................
   25480:	ffffffff ffffffff ffffffff ffffffff     ................
   25490:	ffffffff ffffffff ffffffff ffffffff     ................
   254a0:	ffffffff ffffffff ffffffff ffffffff     ................
   254b0:	ffffffff ffffffff ffffffff ffffffff     ................
   254c0:	ffffffff ffffffff ffffffff ffffffff     ................
   254d0:	ffffffff ffffffff ffffffff ffffffff     ................
   254e0:	ffffffff ffffffff ffffffff ffffffff     ................
   254f0:	ffffffff ffffffff ffffffff ffffffff     ................
   25500:	ffffffff ffffffff ffffffff ffffffff     ................
   25510:	ffffffff ffffffff ffffffff ffffffff     ................
   25520:	ffffffff ffffffff ffffffff ffffffff     ................
   25530:	ffffffff ffffffff ffffffff ffffffff     ................
   25540:	ffffffff ffffffff ffffffff ffffffff     ................
   25550:	ffffffff ffffffff ffffffff ffffffff     ................
   25560:	ffffffff ffffffff ffffffff ffffffff     ................
   25570:	ffffffff ffffffff ffffffff ffffffff     ................
   25580:	ffffffff ffffffff ffffffff ffffffff     ................
   25590:	ffffffff ffffffff ffffffff ffffffff     ................
   255a0:	ffffffff ffffffff ffffffff ffffffff     ................
   255b0:	ffffffff ffffffff ffffffff ffffffff     ................
   255c0:	ffffffff ffffffff ffffffff ffffffff     ................
   255d0:	ffffffff ffffffff ffffffff ffffffff     ................
   255e0:	ffffffff ffffffff ffffffff ffffffff     ................
   255f0:	ffffffff ffffffff ffffffff ffffffff     ................
   25600:	ffffffff ffffffff ffffffff ffffffff     ................
   25610:	ffffffff ffffffff ffffffff ffffffff     ................
   25620:	ffffffff ffffffff ffffffff ffffffff     ................
   25630:	ffffffff ffffffff ffffffff ffffffff     ................
   25640:	ffffffff ffffffff ffffffff ffffffff     ................
   25650:	ffffffff ffffffff ffffffff ffffffff     ................
   25660:	ffffffff ffffffff ffffffff ffffffff     ................
   25670:	ffffffff ffffffff ffffffff ffffffff     ................
   25680:	ffffffff ffffffff ffffffff ffffffff     ................
   25690:	ffffffff ffffffff ffffffff ffffffff     ................
   256a0:	ffffffff ffffffff ffffffff ffffffff     ................
   256b0:	ffffffff ffffffff ffffffff ffffffff     ................
   256c0:	ffffffff ffffffff ffffffff ffffffff     ................
   256d0:	ffffffff ffffffff ffffffff ffffffff     ................
   256e0:	ffffffff ffffffff ffffffff ffffffff     ................
   256f0:	ffffffff ffffffff ffffffff ffffffff     ................
   25700:	ffffffff ffffffff ffffffff ffffffff     ................
   25710:	ffffffff ffffffff ffffffff ffffffff     ................
   25720:	ffffffff ffffffff ffffffff ffffffff     ................
   25730:	ffffffff ffffffff ffffffff ffffffff     ................
   25740:	ffffffff ffffffff ffffffff ffffffff     ................
   25750:	ffffffff ffffffff ffffffff ffffffff     ................
   25760:	ffffffff ffffffff ffffffff ffffffff     ................
   25770:	ffffffff ffffffff ffffffff ffffffff     ................
   25780:	ffffffff ffffffff ffffffff ffffffff     ................
   25790:	ffffffff ffffffff ffffffff ffffffff     ................
   257a0:	ffffffff ffffffff ffffffff ffffffff     ................
   257b0:	ffffffff ffffffff ffffffff ffffffff     ................
   257c0:	ffffffff ffffffff ffffffff ffffffff     ................
   257d0:	ffffffff ffffffff ffffffff ffffffff     ................
   257e0:	ffffffff ffffffff ffffffff ffffffff     ................
   257f0:	ffffffff ffffffff ffffffff ffffffff     ................
   25800:	ffffffff ffffffff ffffffff ffffffff     ................
   25810:	ffffffff ffffffff ffffffff ffffffff     ................
   25820:	ffffffff ffffffff ffffffff ffffffff     ................
   25830:	ffffffff ffffffff ffffffff ffffffff     ................
   25840:	ffffffff ffffffff ffffffff ffffffff     ................
   25850:	ffffffff ffffffff ffffffff ffffffff     ................
   25860:	ffffffff ffffffff ffffffff ffffffff     ................
   25870:	ffffffff ffffffff ffffffff ffffffff     ................
   25880:	ffffffff ffffffff ffffffff ffffffff     ................
   25890:	ffffffff ffffffff ffffffff ffffffff     ................
   258a0:	ffffffff ffffffff ffffffff ffffffff     ................
   258b0:	ffffffff ffffffff ffffffff ffffffff     ................
   258c0:	ffffffff ffffffff ffffffff ffffffff     ................
   258d0:	ffffffff ffffffff ffffffff ffffffff     ................
   258e0:	ffffffff ffffffff ffffffff ffffffff     ................
   258f0:	ffffffff ffffffff ffffffff ffffffff     ................
   25900:	ffffffff ffffffff ffffffff ffffffff     ................
   25910:	ffffffff ffffffff ffffffff ffffffff     ................
   25920:	ffffffff ffffffff ffffffff ffffffff     ................
   25930:	ffffffff ffffffff ffffffff ffffffff     ................
   25940:	ffffffff ffffffff ffffffff ffffffff     ................
   25950:	ffffffff ffffffff ffffffff ffffffff     ................
   25960:	ffffffff ffffffff ffffffff ffffffff     ................
   25970:	ffffffff ffffffff ffffffff ffffffff     ................
   25980:	ffffffff ffffffff ffffffff ffffffff     ................
   25990:	ffffffff ffffffff ffffffff ffffffff     ................
   259a0:	ffffffff ffffffff ffffffff ffffffff     ................
   259b0:	ffffffff ffffffff ffffffff ffffffff     ................
   259c0:	ffffffff ffffffff ffffffff ffffffff     ................
   259d0:	ffffffff ffffffff ffffffff ffffffff     ................
   259e0:	ffffffff ffffffff ffffffff ffffffff     ................
   259f0:	ffffffff ffffffff ffffffff ffffffff     ................
   25a00:	ffffffff ffffffff ffffffff ffffffff     ................
   25a10:	ffffffff ffffffff ffffffff ffffffff     ................
   25a20:	ffffffff ffffffff ffffffff ffffffff     ................
   25a30:	ffffffff ffffffff ffffffff ffffffff     ................
   25a40:	ffffffff ffffffff ffffffff ffffffff     ................
   25a50:	ffffffff ffffffff ffffffff ffffffff     ................
   25a60:	ffffffff ffffffff ffffffff ffffffff     ................
   25a70:	ffffffff ffffffff ffffffff ffffffff     ................
   25a80:	ffffffff ffffffff ffffffff ffffffff     ................
   25a90:	ffffffff ffffffff ffffffff ffffffff     ................
   25aa0:	ffffffff ffffffff ffffffff ffffffff     ................
   25ab0:	ffffffff ffffffff ffffffff ffffffff     ................
   25ac0:	ffffffff ffffffff ffffffff ffffffff     ................
   25ad0:	ffffffff ffffffff ffffffff ffffffff     ................
   25ae0:	ffffffff ffffffff ffffffff ffffffff     ................
   25af0:	ffffffff ffffffff ffffffff ffffffff     ................
   25b00:	ffffffff ffffffff ffffffff ffffffff     ................
   25b10:	ffffffff ffffffff ffffffff ffffffff     ................
   25b20:	ffffffff ffffffff ffffffff ffffffff     ................
   25b30:	ffffffff ffffffff ffffffff ffffffff     ................
   25b40:	ffffffff ffffffff ffffffff ffffffff     ................
   25b50:	ffffffff ffffffff ffffffff ffffffff     ................
   25b60:	ffffffff ffffffff ffffffff ffffffff     ................
   25b70:	ffffffff ffffffff ffffffff ffffffff     ................
   25b80:	ffffffff ffffffff ffffffff ffffffff     ................
   25b90:	ffffffff ffffffff ffffffff ffffffff     ................
   25ba0:	ffffffff ffffffff ffffffff ffffffff     ................
   25bb0:	ffffffff ffffffff ffffffff ffffffff     ................
   25bc0:	ffffffff ffffffff ffffffff ffffffff     ................
   25bd0:	ffffffff ffffffff ffffffff ffffffff     ................
   25be0:	ffffffff ffffffff ffffffff ffffffff     ................
   25bf0:	ffffffff ffffffff ffffffff ffffffff     ................
   25c00:	ffffffff ffffffff ffffffff ffffffff     ................
   25c10:	ffffffff ffffffff ffffffff ffffffff     ................
   25c20:	ffffffff ffffffff ffffffff ffffffff     ................
   25c30:	ffffffff ffffffff ffffffff ffffffff     ................
   25c40:	ffffffff ffffffff ffffffff ffffffff     ................
   25c50:	ffffffff ffffffff ffffffff ffffffff     ................
   25c60:	ffffffff ffffffff ffffffff ffffffff     ................
   25c70:	ffffffff ffffffff ffffffff ffffffff     ................
   25c80:	ffffffff ffffffff ffffffff ffffffff     ................
   25c90:	ffffffff ffffffff ffffffff ffffffff     ................
   25ca0:	ffffffff ffffffff ffffffff ffffffff     ................
   25cb0:	ffffffff ffffffff ffffffff ffffffff     ................
   25cc0:	ffffffff ffffffff ffffffff ffffffff     ................
   25cd0:	ffffffff ffffffff ffffffff ffffffff     ................
   25ce0:	ffffffff ffffffff ffffffff ffffffff     ................
   25cf0:	ffffffff ffffffff ffffffff ffffffff     ................
   25d00:	ffffffff ffffffff ffffffff ffffffff     ................
   25d10:	ffffffff ffffffff ffffffff ffffffff     ................
   25d20:	ffffffff ffffffff ffffffff ffffffff     ................
   25d30:	ffffffff ffffffff ffffffff ffffffff     ................
   25d40:	ffffffff ffffffff ffffffff ffffffff     ................
   25d50:	ffffffff ffffffff ffffffff ffffffff     ................
   25d60:	ffffffff ffffffff ffffffff ffffffff     ................
   25d70:	ffffffff ffffffff ffffffff ffffffff     ................
   25d80:	ffffffff ffffffff ffffffff ffffffff     ................
   25d90:	ffffffff ffffffff ffffffff ffffffff     ................
   25da0:	ffffffff ffffffff ffffffff ffffffff     ................
   25db0:	ffffffff ffffffff ffffffff ffffffff     ................
   25dc0:	ffffffff ffffffff ffffffff ffffffff     ................
   25dd0:	ffffffff ffffffff ffffffff ffffffff     ................
   25de0:	ffffffff ffffffff ffffffff ffffffff     ................
   25df0:	ffffffff ffffffff ffffffff ffffffff     ................
   25e00:	ffffffff ffffffff ffffffff ffffffff     ................
   25e10:	ffffffff ffffffff ffffffff ffffffff     ................
   25e20:	ffffffff ffffffff ffffffff ffffffff     ................
   25e30:	ffffffff ffffffff ffffffff ffffffff     ................
   25e40:	ffffffff ffffffff ffffffff ffffffff     ................
   25e50:	ffffffff ffffffff ffffffff ffffffff     ................
   25e60:	ffffffff ffffffff ffffffff ffffffff     ................
   25e70:	ffffffff ffffffff ffffffff ffffffff     ................
   25e80:	ffffffff ffffffff ffffffff ffffffff     ................
   25e90:	ffffffff ffffffff ffffffff ffffffff     ................
   25ea0:	ffffffff ffffffff ffffffff ffffffff     ................
   25eb0:	ffffffff ffffffff ffffffff ffffffff     ................
   25ec0:	ffffffff ffffffff ffffffff ffffffff     ................
   25ed0:	ffffffff ffffffff ffffffff ffffffff     ................
   25ee0:	ffffffff ffffffff ffffffff ffffffff     ................
   25ef0:	ffffffff ffffffff ffffffff ffffffff     ................
   25f00:	ffffffff ffffffff ffffffff ffffffff     ................
   25f10:	ffffffff ffffffff ffffffff ffffffff     ................
   25f20:	ffffffff ffffffff ffffffff ffffffff     ................
   25f30:	ffffffff ffffffff ffffffff ffffffff     ................
   25f40:	ffffffff ffffffff ffffffff ffffffff     ................
   25f50:	ffffffff ffffffff ffffffff ffffffff     ................
   25f60:	ffffffff ffffffff ffffffff ffffffff     ................
   25f70:	ffffffff ffffffff ffffffff ffffffff     ................
   25f80:	ffffffff ffffffff ffffffff ffffffff     ................
   25f90:	ffffffff ffffffff ffffffff ffffffff     ................
   25fa0:	ffffffff ffffffff ffffffff ffffffff     ................
   25fb0:	ffffffff ffffffff ffffffff ffffffff     ................
   25fc0:	ffffffff ffffffff ffffffff ffffffff     ................
   25fd0:	ffffffff ffffffff ffffffff ffffffff     ................
   25fe0:	ffffffff ffffffff ffffffff ffffffff     ................
   25ff0:	ffffffff ffffffff ffffffff ffffffff     ................
   26000:	ffffffff ffffffff ffffffff ffffffff     ................
   26010:	ffffffff ffffffff ffffffff ffffffff     ................
   26020:	ffffffff ffffffff ffffffff ffffffff     ................
   26030:	ffffffff ffffffff ffffffff ffffffff     ................
   26040:	ffffffff ffffffff ffffffff ffffffff     ................
   26050:	ffffffff ffffffff ffffffff ffffffff     ................
   26060:	ffffffff ffffffff ffffffff ffffffff     ................
   26070:	ffffffff ffffffff ffffffff ffffffff     ................
   26080:	ffffffff ffffffff ffffffff ffffffff     ................
   26090:	ffffffff ffffffff ffffffff ffffffff     ................
   260a0:	ffffffff ffffffff ffffffff ffffffff     ................
   260b0:	ffffffff ffffffff ffffffff ffffffff     ................
   260c0:	ffffffff ffffffff ffffffff ffffffff     ................
   260d0:	ffffffff ffffffff ffffffff ffffffff     ................
   260e0:	ffffffff ffffffff ffffffff ffffffff     ................
   260f0:	ffffffff ffffffff ffffffff ffffffff     ................
   26100:	ffffffff ffffffff ffffffff ffffffff     ................
   26110:	ffffffff ffffffff ffffffff ffffffff     ................
   26120:	ffffffff ffffffff ffffffff ffffffff     ................
   26130:	ffffffff ffffffff ffffffff ffffffff     ................
   26140:	ffffffff ffffffff ffffffff ffffffff     ................
   26150:	ffffffff ffffffff ffffffff ffffffff     ................
   26160:	ffffffff ffffffff ffffffff ffffffff     ................
   26170:	ffffffff ffffffff ffffffff ffffffff     ................
   26180:	ffffffff ffffffff ffffffff ffffffff     ................
   26190:	ffffffff ffffffff ffffffff ffffffff     ................
   261a0:	ffffffff ffffffff ffffffff ffffffff     ................
   261b0:	ffffffff ffffffff ffffffff ffffffff     ................
   261c0:	ffffffff ffffffff ffffffff ffffffff     ................
   261d0:	ffffffff ffffffff ffffffff ffffffff     ................
   261e0:	ffffffff ffffffff ffffffff ffffffff     ................
   261f0:	ffffffff ffffffff ffffffff ffffffff     ................
   26200:	ffffffff ffffffff ffffffff ffffffff     ................
   26210:	ffffffff ffffffff ffffffff ffffffff     ................
   26220:	ffffffff ffffffff ffffffff ffffffff     ................
   26230:	ffffffff ffffffff ffffffff ffffffff     ................
   26240:	ffffffff ffffffff ffffffff ffffffff     ................
   26250:	ffffffff ffffffff ffffffff ffffffff     ................
   26260:	ffffffff ffffffff ffffffff ffffffff     ................
   26270:	ffffffff ffffffff ffffffff ffffffff     ................
   26280:	ffffffff ffffffff ffffffff ffffffff     ................
   26290:	ffffffff ffffffff ffffffff ffffffff     ................
   262a0:	ffffffff ffffffff ffffffff ffffffff     ................
   262b0:	ffffffff ffffffff ffffffff ffffffff     ................
   262c0:	ffffffff ffffffff ffffffff ffffffff     ................
   262d0:	ffffffff ffffffff ffffffff ffffffff     ................
   262e0:	ffffffff ffffffff ffffffff ffffffff     ................
   262f0:	ffffffff ffffffff ffffffff ffffffff     ................
   26300:	ffffffff ffffffff ffffffff ffffffff     ................
   26310:	ffffffff ffffffff ffffffff ffffffff     ................
   26320:	ffffffff ffffffff ffffffff ffffffff     ................
   26330:	ffffffff ffffffff ffffffff ffffffff     ................
   26340:	ffffffff ffffffff ffffffff ffffffff     ................
   26350:	ffffffff ffffffff ffffffff ffffffff     ................
   26360:	ffffffff ffffffff ffffffff ffffffff     ................
   26370:	ffffffff ffffffff ffffffff ffffffff     ................
   26380:	ffffffff ffffffff ffffffff ffffffff     ................
   26390:	ffffffff ffffffff ffffffff ffffffff     ................
   263a0:	ffffffff ffffffff ffffffff ffffffff     ................
   263b0:	ffffffff ffffffff ffffffff ffffffff     ................
   263c0:	ffffffff ffffffff ffffffff ffffffff     ................
   263d0:	ffffffff ffffffff ffffffff ffffffff     ................
   263e0:	ffffffff ffffffff ffffffff ffffffff     ................
   263f0:	ffffffff ffffffff ffffffff ffffffff     ................
   26400:	ffffffff ffffffff ffffffff ffffffff     ................
   26410:	ffffffff ffffffff ffffffff ffffffff     ................
   26420:	ffffffff ffffffff ffffffff ffffffff     ................
   26430:	ffffffff ffffffff ffffffff ffffffff     ................
   26440:	ffffffff ffffffff ffffffff ffffffff     ................
   26450:	ffffffff ffffffff ffffffff ffffffff     ................
   26460:	ffffffff ffffffff ffffffff ffffffff     ................
   26470:	ffffffff ffffffff ffffffff ffffffff     ................
   26480:	ffffffff ffffffff ffffffff ffffffff     ................
   26490:	ffffffff ffffffff ffffffff ffffffff     ................
   264a0:	ffffffff ffffffff ffffffff ffffffff     ................
   264b0:	ffffffff ffffffff ffffffff ffffffff     ................
   264c0:	ffffffff ffffffff ffffffff ffffffff     ................
   264d0:	ffffffff ffffffff ffffffff ffffffff     ................
   264e0:	ffffffff ffffffff ffffffff ffffffff     ................
   264f0:	ffffffff ffffffff ffffffff ffffffff     ................
   26500:	ffffffff ffffffff ffffffff ffffffff     ................
   26510:	ffffffff ffffffff ffffffff ffffffff     ................
   26520:	ffffffff ffffffff ffffffff ffffffff     ................
   26530:	ffffffff ffffffff ffffffff ffffffff     ................
   26540:	ffffffff ffffffff ffffffff ffffffff     ................
   26550:	ffffffff ffffffff ffffffff ffffffff     ................
   26560:	ffffffff ffffffff ffffffff ffffffff     ................
   26570:	ffffffff ffffffff ffffffff ffffffff     ................
   26580:	ffffffff ffffffff ffffffff ffffffff     ................
   26590:	ffffffff ffffffff ffffffff ffffffff     ................
   265a0:	ffffffff ffffffff ffffffff ffffffff     ................
   265b0:	ffffffff ffffffff ffffffff ffffffff     ................
   265c0:	ffffffff ffffffff ffffffff ffffffff     ................
   265d0:	ffffffff ffffffff ffffffff ffffffff     ................
   265e0:	ffffffff ffffffff ffffffff ffffffff     ................
   265f0:	ffffffff ffffffff ffffffff ffffffff     ................
   26600:	ffffffff ffffffff ffffffff ffffffff     ................
   26610:	ffffffff ffffffff ffffffff ffffffff     ................
   26620:	ffffffff ffffffff ffffffff ffffffff     ................
   26630:	ffffffff ffffffff ffffffff ffffffff     ................
   26640:	ffffffff ffffffff ffffffff ffffffff     ................
   26650:	ffffffff ffffffff ffffffff ffffffff     ................
   26660:	ffffffff ffffffff ffffffff ffffffff     ................
   26670:	ffffffff ffffffff ffffffff ffffffff     ................
   26680:	ffffffff ffffffff ffffffff ffffffff     ................
   26690:	ffffffff ffffffff ffffffff ffffffff     ................
   266a0:	ffffffff ffffffff ffffffff ffffffff     ................
   266b0:	ffffffff ffffffff ffffffff ffffffff     ................
   266c0:	ffffffff ffffffff ffffffff ffffffff     ................
   266d0:	ffffffff ffffffff ffffffff ffffffff     ................
   266e0:	ffffffff ffffffff ffffffff ffffffff     ................
   266f0:	ffffffff ffffffff ffffffff ffffffff     ................
   26700:	ffffffff ffffffff ffffffff ffffffff     ................
   26710:	ffffffff ffffffff ffffffff ffffffff     ................
   26720:	ffffffff ffffffff ffffffff ffffffff     ................
   26730:	ffffffff ffffffff ffffffff ffffffff     ................
   26740:	ffffffff ffffffff ffffffff ffffffff     ................
   26750:	ffffffff ffffffff ffffffff ffffffff     ................
   26760:	ffffffff ffffffff ffffffff ffffffff     ................
   26770:	ffffffff ffffffff ffffffff ffffffff     ................
   26780:	ffffffff ffffffff ffffffff ffffffff     ................
   26790:	ffffffff ffffffff ffffffff ffffffff     ................
   267a0:	ffffffff ffffffff ffffffff ffffffff     ................
   267b0:	ffffffff ffffffff ffffffff ffffffff     ................
   267c0:	ffffffff ffffffff ffffffff ffffffff     ................
   267d0:	ffffffff ffffffff ffffffff ffffffff     ................
   267e0:	ffffffff ffffffff ffffffff ffffffff     ................
   267f0:	ffffffff ffffffff ffffffff ffffffff     ................
   26800:	ffffffff ffffffff ffffffff ffffffff     ................
   26810:	ffffffff ffffffff ffffffff ffffffff     ................
   26820:	ffffffff ffffffff ffffffff ffffffff     ................
   26830:	ffffffff ffffffff ffffffff ffffffff     ................
   26840:	ffffffff ffffffff ffffffff ffffffff     ................
   26850:	ffffffff ffffffff ffffffff ffffffff     ................
   26860:	ffffffff ffffffff ffffffff ffffffff     ................
   26870:	ffffffff ffffffff ffffffff ffffffff     ................
   26880:	ffffffff ffffffff ffffffff ffffffff     ................
   26890:	ffffffff ffffffff ffffffff ffffffff     ................
   268a0:	ffffffff ffffffff ffffffff ffffffff     ................
   268b0:	ffffffff ffffffff ffffffff ffffffff     ................
   268c0:	ffffffff ffffffff ffffffff ffffffff     ................
   268d0:	ffffffff ffffffff ffffffff ffffffff     ................
   268e0:	ffffffff ffffffff ffffffff ffffffff     ................
   268f0:	ffffffff ffffffff ffffffff ffffffff     ................
   26900:	ffffffff ffffffff ffffffff ffffffff     ................
   26910:	ffffffff ffffffff ffffffff ffffffff     ................
   26920:	ffffffff ffffffff ffffffff ffffffff     ................
   26930:	ffffffff ffffffff ffffffff ffffffff     ................
   26940:	ffffffff ffffffff ffffffff ffffffff     ................
   26950:	ffffffff ffffffff ffffffff ffffffff     ................
   26960:	ffffffff ffffffff ffffffff ffffffff     ................
   26970:	ffffffff ffffffff ffffffff ffffffff     ................
   26980:	ffffffff ffffffff ffffffff ffffffff     ................
   26990:	ffffffff ffffffff ffffffff ffffffff     ................
   269a0:	ffffffff ffffffff ffffffff ffffffff     ................
   269b0:	ffffffff ffffffff ffffffff ffffffff     ................
   269c0:	ffffffff ffffffff ffffffff ffffffff     ................
   269d0:	ffffffff ffffffff ffffffff ffffffff     ................
   269e0:	ffffffff ffffffff ffffffff ffffffff     ................
   269f0:	ffffffff ffffffff ffffffff ffffffff     ................
   26a00:	ffffffff ffffffff ffffffff ffffffff     ................
   26a10:	ffffffff ffffffff ffffffff ffffffff     ................
   26a20:	ffffffff ffffffff ffffffff ffffffff     ................
   26a30:	ffffffff ffffffff ffffffff ffffffff     ................
   26a40:	ffffffff ffffffff ffffffff ffffffff     ................
   26a50:	ffffffff ffffffff ffffffff ffffffff     ................
   26a60:	ffffffff ffffffff ffffffff ffffffff     ................
   26a70:	ffffffff ffffffff ffffffff ffffffff     ................
   26a80:	ffffffff ffffffff ffffffff ffffffff     ................
   26a90:	ffffffff ffffffff ffffffff ffffffff     ................
   26aa0:	ffffffff ffffffff ffffffff ffffffff     ................
   26ab0:	ffffffff ffffffff ffffffff ffffffff     ................
   26ac0:	ffffffff ffffffff ffffffff ffffffff     ................
   26ad0:	ffffffff ffffffff ffffffff ffffffff     ................
   26ae0:	ffffffff ffffffff ffffffff ffffffff     ................
   26af0:	ffffffff ffffffff ffffffff ffffffff     ................
   26b00:	ffffffff ffffffff ffffffff ffffffff     ................
   26b10:	ffffffff ffffffff ffffffff ffffffff     ................
   26b20:	ffffffff ffffffff ffffffff ffffffff     ................
   26b30:	ffffffff ffffffff ffffffff ffffffff     ................
   26b40:	ffffffff ffffffff ffffffff ffffffff     ................
   26b50:	ffffffff ffffffff ffffffff ffffffff     ................
   26b60:	ffffffff ffffffff ffffffff ffffffff     ................
   26b70:	ffffffff ffffffff ffffffff ffffffff     ................
   26b80:	ffffffff ffffffff ffffffff ffffffff     ................
   26b90:	ffffffff ffffffff ffffffff ffffffff     ................
   26ba0:	ffffffff ffffffff ffffffff ffffffff     ................
   26bb0:	ffffffff ffffffff ffffffff ffffffff     ................
   26bc0:	ffffffff ffffffff ffffffff ffffffff     ................
   26bd0:	ffffffff ffffffff ffffffff ffffffff     ................
   26be0:	ffffffff ffffffff ffffffff ffffffff     ................
   26bf0:	ffffffff ffffffff ffffffff ffffffff     ................
   26c00:	ffffffff ffffffff ffffffff ffffffff     ................
   26c10:	ffffffff ffffffff ffffffff ffffffff     ................
   26c20:	ffffffff ffffffff ffffffff ffffffff     ................
   26c30:	ffffffff ffffffff ffffffff ffffffff     ................
   26c40:	ffffffff ffffffff ffffffff ffffffff     ................
   26c50:	ffffffff ffffffff ffffffff ffffffff     ................
   26c60:	ffffffff ffffffff ffffffff ffffffff     ................
   26c70:	ffffffff ffffffff ffffffff ffffffff     ................
   26c80:	ffffffff ffffffff ffffffff ffffffff     ................
   26c90:	ffffffff ffffffff ffffffff ffffffff     ................
   26ca0:	ffffffff ffffffff ffffffff ffffffff     ................
   26cb0:	ffffffff ffffffff ffffffff ffffffff     ................
   26cc0:	ffffffff ffffffff ffffffff ffffffff     ................
   26cd0:	ffffffff ffffffff ffffffff ffffffff     ................
   26ce0:	ffffffff ffffffff ffffffff ffffffff     ................
   26cf0:	ffffffff ffffffff ffffffff ffffffff     ................
   26d00:	ffffffff ffffffff ffffffff ffffffff     ................
   26d10:	ffffffff ffffffff ffffffff ffffffff     ................
   26d20:	ffffffff ffffffff ffffffff ffffffff     ................
   26d30:	ffffffff ffffffff ffffffff ffffffff     ................
   26d40:	ffffffff ffffffff ffffffff ffffffff     ................
   26d50:	ffffffff ffffffff ffffffff ffffffff     ................
   26d60:	ffffffff ffffffff ffffffff ffffffff     ................
   26d70:	ffffffff ffffffff ffffffff ffffffff     ................
   26d80:	ffffffff ffffffff ffffffff ffffffff     ................
   26d90:	ffffffff ffffffff ffffffff ffffffff     ................

00026da0 <title>:
	...
   3386c:	ffffffff ffffffff ffffffff ffffffff     ................
   3387c:	ffffffff ffffffff ffffffff 0000ffff     ................
	...
   3396c:	ffff0000 ffffffff ffffffff ffffffff     ................
   3397c:	ffffffff ffffffff ffffffff ffffffff     ................
   3398c:	ffffffff ffffffff ffffffff 00000000     ................
	...
   33aec:	ffffffff ffffffff ffffffff ffffffff     ................
   33afc:	ffffffff ffffffff ffffffff 0000ffff     ................
	...
   33bec:	ffff0000 ffffffff ffffffff ffffffff     ................
   33bfc:	ffffffff ffffffff ffffffff ffffffff     ................
   33c0c:	ffffffff ffffffff ffffffff 00000000     ................
	...
   33d6c:	ffffffff ffffffff ffffffff ffffffff     ................
   33d7c:	ffffffff ffffffff ffffffff 0000ffff     ................
	...
   33e6c:	ffff0000 ffffffff ffffffff ffffffff     ................
   33e7c:	ffffffff ffffffff ffffffff ffffffff     ................
   33e8c:	ffffffff ffffffff ffffffff 00000000     ................
	...
   33fe4:	ffff0000 ffffffff ffffffff 0000ffff     ................
	...
   34004:	ffffffff ffffffff ffffffff 00000000     ................
	...
   340ec:	ffff0000 ffffffff ffffffff 0000ffff     ................
	...
   34110:	ffff0000 ffffffff ffffffff 0000ffff     ................
	...
   34264:	ffff0000 ffffffff ffffffff 0000ffff     ................
	...
   34284:	ffffffff ffffffff ffffffff 00000000     ................
	...
   3436c:	ffff0000 ffffffff ffffffff 0000ffff     ................
	...
   34390:	ffff0000 ffffffff ffffffff 0000ffff     ................
	...
   344e4:	ffff0000 ffffffff ffffffff 0000ffff     ................
	...
   34504:	ffffffff ffffffff ffffffff 00000000     ................
	...
   345ec:	ffff0000 ffffffff ffffffff 0000ffff     ................
	...
   34610:	ffff0000 ffffffff ffffffff 0000ffff     ................
	...
   34764:	ffff0000 ffffffff ffffffff 0000ffff     ................
	...
   34784:	ffffffff ffffffff ffffffff 00000000     ................
	...
   3486c:	ffff0000 ffffffff ffffffff 0000ffff     ................
	...
   34890:	ffff0000 ffffffff ffffffff 0000ffff     ................
	...
   349e4:	ffff0000 ffffffff ffffffff 0000ffff     ................
	...
   34a04:	ffffffff ffffffff ffffffff 00000000     ................
	...
   34aec:	ffff0000 ffffffff ffffffff 0000ffff     ................
	...
   34b10:	ffff0000 ffffffff ffffffff 0000ffff     ................
	...
   34c64:	ffff0000 ffffffff ffffffff 0000ffff     ................
	...
   34c84:	ffffffff ffffffff ffffffff 00000000     ................
	...
   34d6c:	ffff0000 ffffffff ffffffff 0000ffff     ................
	...
   34d90:	ffff0000 ffffffff ffffffff 0000ffff     ................
	...
   34ee4:	ffff0000 ffffffff ffffffff 0000ffff     ................
	...
   34f1c:	ffffffff ffffffff ffffffff ffffffff     ................
   34f2c:	ffffffff ffffffff ffffffff 0000ffff     ................
	...
   34f50:	ffff0000 ffffffff ffffffff ffffffff     ................
   34f60:	ffffffff ffffffff 0000ffff 00000000     ................
	...
   34f80:	ffff0000 ffffffff ffffffff ffffffff     ................
   34f90:	ffffffff ffffffff 0000ffff 00000000     ................
	...
   34fac:	ffffffff ffffffff ffffffff ffffffff     ................
   34fbc:	ffffffff ffffffff 00000000 00000000     ................
	...
   34fec:	ffff0000 ffffffff ffffffff 0000ffff     ................
	...
   35010:	ffff0000 ffffffff ffffffff 0000ffff     ................
	...
   35030:	ffffffff ffffffff ffffffff ffffffff     ................
   35040:	ffffffff ffffffff 00000000 00000000     ................
	...
   35060:	ffffffff ffffffff ffffffff ffffffff     ................
   35070:	ffffffff ffffffff 00000000 00000000     ................
	...
   35088:	ffff0000 ffffffff ffffffff ffffffff     ................
   35098:	ffffffff ffffffff 0000ffff 00000000     ................
	...
   350b4:	ffffffff ffffffff ffffffff ffffffff     ................
   350c4:	ffffffff ffffffff 00000000 00000000     ................
	...
   35164:	ffff0000 ffffffff ffffffff 0000ffff     ................
	...
   3519c:	ffffffff ffffffff ffffffff ffffffff     ................
   351ac:	ffffffff ffffffff ffffffff 0000ffff     ................
	...
   351d0:	ffff0000 ffffffff ffffffff ffffffff     ................
   351e0:	ffffffff ffffffff 0000ffff 00000000     ................
	...
   35200:	ffff0000 ffffffff ffffffff ffffffff     ................
   35210:	ffffffff ffffffff 0000ffff 00000000     ................
	...
   3522c:	ffffffff ffffffff ffffffff ffffffff     ................
   3523c:	ffffffff ffffffff 00000000 00000000     ................
	...
   3526c:	ffff0000 ffffffff ffffffff 0000ffff     ................
	...
   35290:	ffff0000 ffffffff ffffffff 0000ffff     ................
	...
   352b0:	ffffffff ffffffff ffffffff ffffffff     ................
   352c0:	ffffffff ffffffff 00000000 00000000     ................
	...
   352e0:	ffffffff ffffffff ffffffff ffffffff     ................
   352f0:	ffffffff ffffffff 00000000 00000000     ................
	...
   35308:	ffff0000 ffffffff ffffffff ffffffff     ................
   35318:	ffffffff ffffffff 0000ffff 00000000     ................
	...
   35334:	ffffffff ffffffff ffffffff ffffffff     ................
   35344:	ffffffff ffffffff 00000000 00000000     ................
	...
   353e4:	ffff0000 ffffffff ffffffff 0000ffff     ................
	...
   3541c:	ffffffff ffffffff ffffffff ffffffff     ................
   3542c:	ffffffff ffffffff ffffffff 0000ffff     ................
	...
   35450:	ffff0000 ffffffff ffffffff ffffffff     ................
   35460:	ffffffff ffffffff 0000ffff 00000000     ................
	...
   35480:	ffff0000 ffffffff ffffffff ffffffff     ................
   35490:	ffffffff ffffffff 0000ffff 00000000     ................
	...
   354ac:	ffffffff ffffffff ffffffff ffffffff     ................
   354bc:	ffffffff ffffffff 00000000 00000000     ................
	...
   354ec:	ffff0000 ffffffff ffffffff 0000ffff     ................
	...
   35510:	ffff0000 ffffffff ffffffff 0000ffff     ................
	...
   35530:	ffffffff ffffffff ffffffff ffffffff     ................
   35540:	ffffffff ffffffff 00000000 00000000     ................
	...
   35560:	ffffffff ffffffff ffffffff ffffffff     ................
   35570:	ffffffff ffffffff 00000000 00000000     ................
	...
   35588:	ffff0000 ffffffff ffffffff ffffffff     ................
   35598:	ffffffff ffffffff 0000ffff 00000000     ................
	...
   355b4:	ffffffff ffffffff ffffffff ffffffff     ................
   355c4:	ffffffff ffffffff 00000000 00000000     ................
	...
   3566c:	ffffffff ffffffff ffffffff ffffffff     ................
   3567c:	0000ffff 00000000 00000000 00000000     ................
	...
   3569c:	ffffffff ffffffff ffffffff 00000000     ................
	...
   356b4:	ffffffff ffffffff ffffffff 00000000     ................
	...
   356cc:	ffffffff ffffffff ffffffff 00000000     ................
	...
   356e4:	ffffffff ffffffff ffffffff 00000000     ................
	...
   356fc:	ffffffff ffffffff ffffffff 00000000     ................
	...
   35714:	ffffffff ffffffff ffffffff 00000000     ................
   35724:	ffff0000 ffffffff ffffffff 0000ffff     ................
	...
   3573c:	ffff0000 ffffffff ffffffff 0000ffff     ................
	...
   3576c:	ffff0000 ffffffff ffffffff 0000ffff     ................
	...
   35790:	ffff0000 ffffffff ffffffff 0000ffff     ................
	...
   357a8:	ffff0000 ffffffff ffffffff 0000ffff     ................
	...
   357c0:	ffff0000 ffffffff ffffffff 0000ffff     ................
	...
   357d8:	ffff0000 ffffffff ffffffff 0000ffff     ................
	...
   357f0:	ffff0000 ffffffff ffffffff 0000ffff     ................
   35800:	00000000 ffffffff ffffffff ffffffff     ................
	...
   3581c:	ffffffff ffffffff ffffffff 00000000     ................
	...
   35834:	ffffffff ffffffff ffffffff ffffffff     ................
   35844:	0000ffff 00000000 00000000 00000000     ................
	...
   358ec:	ffffffff ffffffff ffffffff ffffffff     ................
   358fc:	0000ffff 00000000 00000000 00000000     ................
	...
   3591c:	ffffffff ffffffff ffffffff 00000000     ................
	...
   35934:	ffffffff ffffffff ffffffff 00000000     ................
	...
   3594c:	ffffffff ffffffff ffffffff 00000000     ................
	...
   35964:	ffffffff ffffffff ffffffff 00000000     ................
	...
   3597c:	ffffffff ffffffff ffffffff 00000000     ................
	...
   35994:	ffffffff ffffffff ffffffff 00000000     ................
   359a4:	ffff0000 ffffffff ffffffff 0000ffff     ................
	...
   359bc:	ffff0000 ffffffff ffffffff 0000ffff     ................
	...
   359ec:	ffff0000 ffffffff ffffffff 0000ffff     ................
	...
   35a10:	ffff0000 ffffffff ffffffff 0000ffff     ................
	...
   35a28:	ffff0000 ffffffff ffffffff 0000ffff     ................
	...
   35a40:	ffff0000 ffffffff ffffffff 0000ffff     ................
	...
   35a58:	ffff0000 ffffffff ffffffff 0000ffff     ................
	...
   35a70:	ffff0000 ffffffff ffffffff 0000ffff     ................
   35a80:	00000000 ffffffff ffffffff ffffffff     ................
	...
   35a9c:	ffffffff ffffffff ffffffff 00000000     ................
	...
   35ab4:	ffffffff ffffffff ffffffff ffffffff     ................
   35ac4:	0000ffff 00000000 00000000 00000000     ................
	...
   35b6c:	ffffffff ffffffff ffffffff ffffffff     ................
   35b7c:	0000ffff 00000000 00000000 00000000     ................
	...
   35b9c:	ffffffff ffffffff ffffffff 00000000     ................
	...
   35bb4:	ffffffff ffffffff ffffffff 00000000     ................
	...
   35bcc:	ffffffff ffffffff ffffffff 00000000     ................
	...
   35be4:	ffffffff ffffffff ffffffff 00000000     ................
	...
   35bfc:	ffffffff ffffffff ffffffff 00000000     ................
	...
   35c14:	ffffffff ffffffff ffffffff 00000000     ................
   35c24:	ffff0000 ffffffff ffffffff 0000ffff     ................
	...
   35c3c:	ffff0000 ffffffff ffffffff 0000ffff     ................
	...
   35c6c:	ffff0000 ffffffff ffffffff 0000ffff     ................
	...
   35c90:	ffff0000 ffffffff ffffffff 0000ffff     ................
	...
   35ca8:	ffff0000 ffffffff ffffffff 0000ffff     ................
	...
   35cc0:	ffff0000 ffffffff ffffffff 0000ffff     ................
	...
   35cd8:	ffff0000 ffffffff ffffffff 0000ffff     ................
	...
   35cf0:	ffff0000 ffffffff ffffffff 0000ffff     ................
   35d00:	00000000 ffffffff ffffffff ffffffff     ................
	...
   35d1c:	ffffffff ffffffff ffffffff 00000000     ................
	...
   35d34:	ffffffff ffffffff ffffffff ffffffff     ................
   35d44:	0000ffff 00000000 00000000 00000000     ................
	...
   35df8:	ffffffff ffffffff ffffffff ffffffff     ................
   35e08:	0000ffff 00000000 00000000 00000000     ................
   35e18:	00000000 ffffffff ffffffff ffffffff     ................
	...
   35e34:	ffffffff ffffffff ffffffff 00000000     ................
	...
   35e58:	ffffffff ffffffff ffffffff ffffffff     ................
   35e68:	ffffffff ffffffff 00000000 00000000     ................
   35e78:	00000000 ffffffff ffffffff ffffffff     ................
	...
   35ea4:	ffff0000 ffffffff ffffffff ffffffff     ................
   35eb4:	ffffffff ffffffff ffffffff ffffffff     ................
   35ec4:	ffffffff 0000ffff 00000000 00000000     ................
	...
   35eec:	ffff0000 ffffffff ffffffff ffffffff     ................
   35efc:	ffffffff ffffffff ffffffff ffffffff     ................
   35f0c:	ffffffff ffffffff ffffffff 00000000     ................
	...
   35f34:	ffff0000 ffffffff ffffffff ffffffff     ................
   35f44:	ffffffff ffffffff 0000ffff 00000000     ................
   35f54:	00000000 ffff0000 ffffffff ffffffff     ................
   35f64:	0000ffff 00000000 00000000 00000000     ................
	...
   35f84:	ffffffff ffffffff ffffffff ffffffff     ................
   35f94:	ffffffff ffffffff ffffffff ffffffff     ................
   35fa4:	ffffffff 00000000 00000000 00000000     ................
   35fb4:	ffffffff ffffffff ffffffff 00000000     ................
	...
   36078:	ffffffff ffffffff ffffffff ffffffff     ................
   36088:	0000ffff 00000000 00000000 00000000     ................
   36098:	00000000 ffffffff ffffffff ffffffff     ................
	...
   360b4:	ffffffff ffffffff ffffffff 00000000     ................
	...
   360d8:	ffffffff ffffffff ffffffff ffffffff     ................
   360e8:	ffffffff ffffffff 00000000 00000000     ................
   360f8:	00000000 ffffffff ffffffff ffffffff     ................
	...
   36124:	ffff0000 ffffffff ffffffff ffffffff     ................
   36134:	ffffffff ffffffff ffffffff ffffffff     ................
   36144:	ffffffff 0000ffff 00000000 00000000     ................
	...
   3616c:	ffff0000 ffffffff ffffffff ffffffff     ................
   3617c:	ffffffff ffffffff ffffffff ffffffff     ................
   3618c:	ffffffff ffffffff ffffffff 00000000     ................
	...
   361b4:	ffff0000 ffffffff ffffffff ffffffff     ................
   361c4:	ffffffff ffffffff 0000ffff 00000000     ................
   361d4:	00000000 ffff0000 ffffffff ffffffff     ................
   361e4:	0000ffff 00000000 00000000 00000000     ................
	...
   36204:	ffffffff ffffffff ffffffff ffffffff     ................
   36214:	ffffffff ffffffff ffffffff ffffffff     ................
   36224:	ffffffff 00000000 00000000 00000000     ................
   36234:	ffffffff ffffffff ffffffff 00000000     ................
	...
   362f8:	ffffffff ffffffff ffffffff ffffffff     ................
   36308:	0000ffff 00000000 00000000 00000000     ................
   36318:	00000000 ffffffff ffffffff ffffffff     ................
	...
   36334:	ffffffff ffffffff ffffffff 00000000     ................
	...
   36358:	ffffffff ffffffff ffffffff ffffffff     ................
   36368:	ffffffff ffffffff 00000000 00000000     ................
   36378:	00000000 ffffffff ffffffff ffffffff     ................
	...
   363a4:	ffff0000 ffffffff ffffffff ffffffff     ................
   363b4:	ffffffff ffffffff ffffffff ffffffff     ................
   363c4:	ffffffff 0000ffff 00000000 00000000     ................
	...
   363ec:	ffff0000 ffffffff ffffffff ffffffff     ................
   363fc:	ffffffff ffffffff ffffffff ffffffff     ................
   3640c:	ffffffff ffffffff ffffffff 00000000     ................
	...
   36434:	ffff0000 ffffffff ffffffff ffffffff     ................
   36444:	ffffffff ffffffff 0000ffff 00000000     ................
   36454:	00000000 ffff0000 ffffffff ffffffff     ................
   36464:	0000ffff 00000000 00000000 00000000     ................
	...
   36484:	ffffffff ffffffff ffffffff ffffffff     ................
   36494:	ffffffff ffffffff ffffffff ffffffff     ................
   364a4:	ffffffff 00000000 00000000 00000000     ................
   364b4:	ffffffff ffffffff ffffffff 00000000     ................
	...
   36584:	ffffffff ffffffff ffffffff 00000000     ................
	...
   3659c:	ffffffff ffffffff ffffffff 00000000     ................
	...
   365b4:	ffffffff ffffffff ffffffff 00000000     ................
	...
   365d0:	ffff0000 ffffffff ffffffff 0000ffff     ................
   365e0:	00000000 ffffffff ffffffff ffffffff     ................
	...
   365fc:	ffffffff ffffffff ffffffff 00000000     ................
	...
   36624:	ffff0000 ffffffff ffffffff 0000ffff     ................
	...
   3666c:	ffff0000 ffffffff ffffffff 0000ffff     ................
	...
   36690:	ffff0000 ffffffff ffffffff 0000ffff     ................
	...
   366b0:	ffffffff ffffffff ffffffff 00000000     ................
   366c0:	ffff0000 ffffffff ffffffff 0000ffff     ................
	...
   366d8:	ffff0000 ffffffff ffffffff 0000ffff     ................
	...
   36704:	ffffffff ffffffff ffffffff 00000000     ................
	...
   36734:	ffffffff ffffffff ffffffff 00000000     ................
	...
   36804:	ffffffff ffffffff ffffffff 00000000     ................
	...
   3681c:	ffffffff ffffffff ffffffff 00000000     ................
	...
   36834:	ffffffff ffffffff ffffffff 00000000     ................
	...
   36850:	ffff0000 ffffffff ffffffff 0000ffff     ................
   36860:	00000000 ffffffff ffffffff ffffffff     ................
	...
   3687c:	ffffffff ffffffff ffffffff 00000000     ................
	...
   368a4:	ffff0000 ffffffff ffffffff 0000ffff     ................
	...
   368ec:	ffff0000 ffffffff ffffffff 0000ffff     ................
	...
   36910:	ffff0000 ffffffff ffffffff 0000ffff     ................
	...
   36930:	ffffffff ffffffff ffffffff 00000000     ................
   36940:	ffff0000 ffffffff ffffffff 0000ffff     ................
	...
   36958:	ffff0000 ffffffff ffffffff 0000ffff     ................
	...
   36984:	ffffffff ffffffff ffffffff 00000000     ................
	...
   369b4:	ffffffff ffffffff ffffffff 00000000     ................
	...
   36a84:	ffffffff ffffffff ffffffff 00000000     ................
	...
   36a9c:	ffffffff ffffffff ffffffff 00000000     ................
	...
   36ab4:	ffffffff ffffffff ffffffff 00000000     ................
	...
   36ad0:	ffff0000 ffffffff ffffffff 0000ffff     ................
   36ae0:	00000000 ffffffff ffffffff ffffffff     ................
	...
   36afc:	ffffffff ffffffff ffffffff 00000000     ................
	...
   36b24:	ffff0000 ffffffff ffffffff 0000ffff     ................
	...
   36b6c:	ffff0000 ffffffff ffffffff 0000ffff     ................
	...
   36b90:	ffff0000 ffffffff ffffffff 0000ffff     ................
	...
   36bb0:	ffffffff ffffffff ffffffff 00000000     ................
   36bc0:	ffff0000 ffffffff ffffffff 0000ffff     ................
	...
   36bd8:	ffff0000 ffffffff ffffffff 0000ffff     ................
	...
   36c04:	ffffffff ffffffff ffffffff 00000000     ................
	...
   36c34:	ffffffff ffffffff ffffffff 00000000     ................
	...
   36ce4:	ffff0000 ffffffff ffffffff 0000ffff     ................
	...
   36d04:	ffffffff ffffffff ffffffff 00000000     ................
	...
   36d1c:	ffffffff ffffffff ffffffff 00000000     ................
	...
   36d34:	ffffffff ffffffff ffffffff 00000000     ................
	...
   36d4c:	ffffffff ffffffff ffffffff 00000000     ................
	...
   36d64:	ffffffff ffffffff ffffffff 00000000     ................
	...
   36d7c:	ffffffff ffffffff ffffffff 00000000     ................
	...
   36da4:	ffff0000 ffffffff ffffffff 0000ffff     ................
	...
   36dec:	ffff0000 ffffffff ffffffff 0000ffff     ................
	...
   36e10:	ffff0000 ffffffff ffffffff 0000ffff     ................
	...
   36e28:	ffff0000 ffffffff ffffffff 0000ffff     ................
	...
   36e40:	ffff0000 ffffffff ffffffff 0000ffff     ................
	...
   36e58:	ffff0000 ffffffff ffffffff 0000ffff     ................
	...
   36e84:	ffffffff ffffffff ffffffff 00000000     ................
	...
   36eb4:	ffffffff ffffffff ffffffff 00000000     ................
	...
   36f64:	ffff0000 ffffffff ffffffff 0000ffff     ................
	...
   36f84:	ffffffff ffffffff ffffffff 00000000     ................
	...
   36f9c:	ffffffff ffffffff ffffffff 00000000     ................
	...
   36fb4:	ffffffff ffffffff ffffffff 00000000     ................
	...
   36fcc:	ffffffff ffffffff ffffffff 00000000     ................
	...
   36fe4:	ffffffff ffffffff ffffffff 00000000     ................
	...
   36ffc:	ffffffff ffffffff ffffffff 00000000     ................
	...
   37024:	ffff0000 ffffffff ffffffff 0000ffff     ................
	...
   3706c:	ffff0000 ffffffff ffffffff 0000ffff     ................
	...
   37090:	ffff0000 ffffffff ffffffff 0000ffff     ................
	...
   370a8:	ffff0000 ffffffff ffffffff 0000ffff     ................
	...
   370c0:	ffff0000 ffffffff ffffffff 0000ffff     ................
	...
   370d8:	ffff0000 ffffffff ffffffff 0000ffff     ................
	...
   37104:	ffffffff ffffffff ffffffff 00000000     ................
	...
   37134:	ffffffff ffffffff ffffffff 00000000     ................
	...
   371e4:	ffff0000 ffffffff ffffffff 0000ffff     ................
	...
   37204:	ffffffff ffffffff ffffffff 00000000     ................
	...
   3721c:	ffffffff ffffffff ffffffff 00000000     ................
	...
   37234:	ffffffff ffffffff ffffffff 00000000     ................
	...
   3724c:	ffffffff ffffffff ffffffff 00000000     ................
	...
   37264:	ffffffff ffffffff ffffffff 00000000     ................
	...
   3727c:	ffffffff ffffffff ffffffff 00000000     ................
	...
   372a4:	ffff0000 ffffffff ffffffff 0000ffff     ................
	...
   372ec:	ffff0000 ffffffff ffffffff 0000ffff     ................
	...
   37310:	ffff0000 ffffffff ffffffff 0000ffff     ................
	...
   37328:	ffff0000 ffffffff ffffffff 0000ffff     ................
	...
   37340:	ffff0000 ffffffff ffffffff 0000ffff     ................
	...
   37358:	ffff0000 ffffffff ffffffff 0000ffff     ................
	...
   37384:	ffffffff ffffffff ffffffff 00000000     ................
	...
   373b4:	ffffffff ffffffff ffffffff 00000000     ................
	...
   37464:	ffff0000 ffffffff ffffffff 0000ffff     ................
	...
   37484:	ffffffff ffffffff ffffffff 00000000     ................
	...
   3749c:	ffffffff ffffffff ffffffff 00000000     ................
	...
   374b4:	ffffffff ffffffff ffffffff 00000000     ................
	...
   374cc:	ffffffff ffffffff ffffffff 00000000     ................
	...
   374e4:	ffffffff ffffffff ffffffff 00000000     ................
	...
   374fc:	ffffffff ffffffff ffffffff 00000000     ................
	...
   37514:	ffffffff ffffffff ffffffff 00000000     ................
   37524:	ffff0000 ffffffff ffffffff 0000ffff     ................
	...
   3753c:	ffff0000 ffffffff ffffffff 0000ffff     ................
	...
   3756c:	ffff0000 ffffffff ffffffff 0000ffff     ................
	...
   37590:	ffff0000 ffffffff ffffffff 0000ffff     ................
	...
   375a8:	ffff0000 ffffffff ffffffff 0000ffff     ................
	...
   375c0:	ffff0000 ffffffff ffffffff 0000ffff     ................
	...
   375d8:	ffff0000 ffffffff ffffffff 0000ffff     ................
	...
   375f0:	ffff0000 ffffffff ffffffff 0000ffff     ................
   37600:	00000000 ffffffff ffffffff ffffffff     ................
	...
   3761c:	ffffffff ffffffff ffffffff 00000000     ................
	...
   37634:	ffffffff ffffffff ffffffff 00000000     ................
	...
   376e4:	ffff0000 ffffffff ffffffff 0000ffff     ................
	...
   37704:	ffffffff ffffffff ffffffff 00000000     ................
	...
   3771c:	ffffffff ffffffff ffffffff 00000000     ................
	...
   37734:	ffffffff ffffffff ffffffff 00000000     ................
	...
   3774c:	ffffffff ffffffff ffffffff 00000000     ................
	...
   37764:	ffffffff ffffffff ffffffff 00000000     ................
	...
   3777c:	ffffffff ffffffff ffffffff 00000000     ................
	...
   37794:	ffffffff ffffffff ffffffff 00000000     ................
   377a4:	ffff0000 ffffffff ffffffff 0000ffff     ................
	...
   377bc:	ffff0000 ffffffff ffffffff 0000ffff     ................
	...
   377ec:	ffff0000 ffffffff ffffffff 0000ffff     ................
	...
   37810:	ffff0000 ffffffff ffffffff 0000ffff     ................
	...
   37828:	ffff0000 ffffffff ffffffff 0000ffff     ................
	...
   37840:	ffff0000 ffffffff ffffffff 0000ffff     ................
	...
   37858:	ffff0000 ffffffff ffffffff 0000ffff     ................
	...
   37870:	ffff0000 ffffffff ffffffff 0000ffff     ................
   37880:	00000000 ffffffff ffffffff ffffffff     ................
	...
   3789c:	ffffffff ffffffff ffffffff 00000000     ................
	...
   378b4:	ffffffff ffffffff ffffffff 00000000     ................
	...
   37964:	ffff0000 ffffffff ffffffff 0000ffff     ................
	...
   37984:	ffffffff ffffffff ffffffff 00000000     ................
	...
   3799c:	ffffffff ffffffff ffffffff 00000000     ................
	...
   379b4:	ffffffff ffffffff ffffffff 00000000     ................
	...
   379cc:	ffffffff ffffffff ffffffff 00000000     ................
	...
   379e4:	ffffffff ffffffff ffffffff 00000000     ................
	...
   379fc:	ffffffff ffffffff ffffffff 00000000     ................
	...
   37a14:	ffffffff ffffffff ffffffff 00000000     ................
   37a24:	ffff0000 ffffffff ffffffff 0000ffff     ................
	...
   37a3c:	ffff0000 ffffffff ffffffff 0000ffff     ................
	...
   37a6c:	ffff0000 ffffffff ffffffff 0000ffff     ................
	...
   37a90:	ffff0000 ffffffff ffffffff 0000ffff     ................
	...
   37aa8:	ffff0000 ffffffff ffffffff 0000ffff     ................
	...
   37ac0:	ffff0000 ffffffff ffffffff 0000ffff     ................
	...
   37ad8:	ffff0000 ffffffff ffffffff 0000ffff     ................
	...
   37af0:	ffff0000 ffffffff ffffffff 0000ffff     ................
   37b00:	00000000 ffffffff ffffffff ffffffff     ................
	...
   37b1c:	ffffffff ffffffff ffffffff 00000000     ................
	...
   37b34:	ffffffff ffffffff ffffffff 00000000     ................
	...
   37bec:	ffffffff ffffffff ffffffff ffffffff     ................
   37bfc:	ffffffff ffffffff ffffffff 0000ffff     ................
	...
   37c1c:	ffffffff ffffffff ffffffff ffffffff     ................
   37c2c:	ffffffff ffffffff ffffffff 0000ffff     ................
	...
   37c50:	ffff0000 ffffffff ffffffff ffffffff     ................
   37c60:	ffffffff ffffffff ffffffff ffffffff     ................
	...
   37c80:	ffff0000 ffffffff ffffffff ffffffff     ................
   37c90:	ffffffff ffffffff 0000ffff 00000000     ................
	...
   37cac:	ffffffff ffffffff ffffffff ffffffff     ................
   37cbc:	ffffffff ffffffff 00000000 00000000     ................
	...
   37cec:	ffff0000 ffffffff ffffffff 0000ffff     ................
	...
   37d18:	ffffffff ffffffff ffffffff 00000000     ................
	...
   37d30:	ffffffff ffffffff ffffffff ffffffff     ................
   37d40:	ffffffff ffffffff ffffffff 0000ffff     ................
	...
   37d60:	ffffffff ffffffff ffffffff ffffffff     ................
   37d70:	ffffffff ffffffff 00000000 00000000     ................
	...
   37d88:	ffff0000 ffffffff ffffffff ffffffff     ................
   37d98:	ffffffff ffffffff 0000ffff 00000000     ................
	...
   37db4:	ffffffff ffffffff ffffffff 00000000     ................
	...
   37e6c:	ffffffff ffffffff ffffffff ffffffff     ................
   37e7c:	ffffffff ffffffff ffffffff 0000ffff     ................
	...
   37e9c:	ffffffff ffffffff ffffffff ffffffff     ................
   37eac:	ffffffff ffffffff ffffffff 0000ffff     ................
	...
   37ed0:	ffff0000 ffffffff ffffffff ffffffff     ................
   37ee0:	ffffffff ffffffff ffffffff ffffffff     ................
	...
   37f00:	ffff0000 ffffffff ffffffff ffffffff     ................
   37f10:	ffffffff ffffffff 0000ffff 00000000     ................
	...
   37f2c:	ffffffff ffffffff ffffffff ffffffff     ................
   37f3c:	ffffffff ffffffff 00000000 00000000     ................
	...
   37f6c:	ffff0000 ffffffff ffffffff 0000ffff     ................
	...
   37f98:	ffffffff ffffffff ffffffff 00000000     ................
	...
   37fb0:	ffffffff ffffffff ffffffff ffffffff     ................
   37fc0:	ffffffff ffffffff ffffffff 0000ffff     ................
	...
   37fe0:	ffffffff ffffffff ffffffff ffffffff     ................
   37ff0:	ffffffff ffffffff 00000000 00000000     ................
	...
   38008:	ffff0000 ffffffff ffffffff ffffffff     ................
   38018:	ffffffff ffffffff 0000ffff 00000000     ................
	...
   38034:	ffffffff ffffffff ffffffff 00000000     ................
	...
   380ec:	ffffffff ffffffff ffffffff ffffffff     ................
   380fc:	ffffffff ffffffff ffffffff 0000ffff     ................
	...
   3811c:	ffffffff ffffffff ffffffff ffffffff     ................
   3812c:	ffffffff ffffffff ffffffff 0000ffff     ................
	...
   38150:	ffff0000 ffffffff ffffffff ffffffff     ................
   38160:	ffffffff ffffffff ffffffff ffffffff     ................
	...
   38180:	ffff0000 ffffffff ffffffff ffffffff     ................
   38190:	ffffffff ffffffff 0000ffff 00000000     ................
	...
   381ac:	ffffffff ffffffff ffffffff ffffffff     ................
   381bc:	ffffffff ffffffff 00000000 00000000     ................
	...
   381ec:	ffff0000 ffffffff ffffffff 0000ffff     ................
	...
   38218:	ffffffff ffffffff ffffffff 00000000     ................
	...
   38230:	ffffffff ffffffff ffffffff ffffffff     ................
   38240:	ffffffff ffffffff ffffffff 0000ffff     ................
	...
   38260:	ffffffff ffffffff ffffffff ffffffff     ................
   38270:	ffffffff ffffffff 00000000 00000000     ................
	...
   38288:	ffff0000 ffffffff ffffffff ffffffff     ................
   38298:	ffffffff ffffffff 0000ffff 00000000     ................
	...
   382b4:	ffffffff ffffffff ffffffff 00000000     ................
	...
   3839c:	ffffffff ffffffff ffffffff 00000000     ................
	...
   3861c:	ffffffff ffffffff ffffffff 00000000     ................
	...
   3889c:	ffffffff ffffffff ffffffff 00000000     ................
	...
   38b1c:	ffffffff ffffffff ffffffff 00000000     ................
	...
   38d9c:	ffffffff ffffffff ffffffff 00000000     ................
	...
   3901c:	ffffffff ffffffff ffffffff 00000000     ................
	...
   3929c:	ffffffff ffffffff ffffffff 00000000     ................
	...
   3951c:	ffffffff ffffffff ffffffff 00000000     ................
	...
   3979c:	ffffffff ffffffff ffffffff 00000000     ................
	...
   3ae28:	ffff0000 ffffffff ffffffff ffffffff     ................
	...
   3ae70:	ffff0000 0000ffff 00000000 00000000     ................
   3ae80:	ffff0000 0000ffff 00000000 00000000     ................
	...
   3aebc:	ffffffff ffffffff 0000ffff 00000000     ................
   3aecc:	ffffffff 00000000 00000000 00000000     ................
   3aedc:	ffffffff 00000000 00000000 00000000     ................
	...
   3af18:	ffff0000 ffffffff ffffffff ffffffff     ................
   3af28:	0000ffff ffffffff 00000000 00000000     ................
	...
   3af54:	ffffffff ffffffff ffffffff 0000ffff     ................
	...
   3af7c:	ffff0000 0000ffff 00000000 00000000     ................
	...
   3b0a8:	ffff0000 0000ffff 00000000 ffff0000     ................
   3b0b8:	0000ffff 00000000 00000000 00000000     ................
	...
   3b0f0:	ffff0000 0000ffff 00000000 00000000     ................
   3b100:	ffff0000 0000ffff 00000000 00000000     ................
	...
   3b138:	ffff0000 0000ffff 00000000 ffffffff     ................
   3b148:	00000000 ffffffff 00000000 00000000     ................
   3b158:	00000000 ffffffff 00000000 00000000     ................
	...
   3b17c:	ffffffff 00000000 00000000 00000000     ................
	...
   3b1a0:	ffffffff 00000000 00000000 ffffffff     ................
	...
   3b1d4:	ffffffff 00000000 00000000 00000000     ................
	...
   3b1fc:	ffff0000 0000ffff 00000000 00000000     ................
	...
   3b328:	ffff0000 0000ffff 00000000 ffff0000     ................
   3b338:	0000ffff 00000000 00000000 00000000     ................
	...
   3b374:	ffffffff 00000000 00000000 ffffffff     ................
	...
   3b3b8:	ffff0000 0000ffff 00000000 ffffffff     ................
   3b3c8:	00000000 ffffffff 00000000 00000000     ................
	...
   3b3fc:	ffffffff 00000000 00000000 00000000     ................
	...
   3b420:	ffffffff 00000000 00000000 ffffffff     ................
	...
   3b454:	ffffffff 00000000 00000000 00000000     ................
	...
   3b47c:	ffff0000 0000ffff 00000000 00000000     ................
	...
   3b5a8:	ffff0000 0000ffff 00000000 ffff0000     ................
   3b5b8:	0000ffff 00000000 ffffffff ffffffff     ................
	...
   3b5d0:	ffffffff ffffffff 00000000 ffff0000     ................
   3b5e0:	ffffffff 0000ffff 00000000 00000000     ................
   3b5f0:	00000000 ffff0000 0000ffff ffff0000     ................
   3b600:	0000ffff 00000000 ffff0000 ffffffff     ................
   3b610:	0000ffff 00000000 ffffffff 00000000     ................
   3b620:	ffffffff 00000000 ffffffff ffffffff     ................
	...
   3b638:	ffff0000 0000ffff 00000000 00000000     ................
   3b648:	00000000 ffffffff ffffffff 0000ffff     ................
   3b658:	00000000 ffffffff 00000000 ffffffff     ................
   3b668:	ffffffff 0000ffff 00000000 00000000     ................
   3b678:	ffff0000 ffffffff 0000ffff ffff0000     ................
   3b688:	ffffffff 0000ffff 00000000 00000000     ................
	...
   3b6a0:	ffffffff 00000000 00000000 ffffffff     ................
   3b6b0:	ffffffff 0000ffff 00000000 ffff0000     ................
   3b6c0:	ffffffff 0000ffff 00000000 00000000     ................
   3b6d0:	00000000 ffffffff 00000000 00000000     ................
   3b6e0:	00000000 ffff0000 ffffffff ffffffff     ................
	...
   3b6f8:	ffffffff ffffffff 0000ffff 00000000     ................
	...
   3b828:	ffff0000 0000ffff 00000000 ffff0000     ................
   3b838:	0000ffff ffff0000 0000ffff ffff0000     ................
   3b848:	0000ffff ffff0000 0000ffff ffff0000     ................
   3b858:	0000ffff ffffffff 00000000 ffffffff     ................
	...
   3b878:	ffffffff ffffffff 00000000 00000000     ................
   3b888:	ffffffff 00000000 ffffffff 00000000     ................
   3b898:	ffffffff 00000000 ffffffff 00000000     ................
   3b8a8:	ffffffff 0000ffff 00000000 00000000     ................
   3b8b8:	00000000 ffffffff 0000ffff 00000000     ................
   3b8c8:	00000000 ffffffff 00000000 ffffffff     ................
   3b8d8:	00000000 ffffffff 00000000 ffffffff     ................
   3b8e8:	00000000 ffffffff 00000000 00000000     ................
   3b8f8:	00000000 ffffffff 00000000 ffffffff     ................
   3b908:	00000000 ffffffff 00000000 00000000     ................
	...
   3b920:	ffffffff 00000000 00000000 ffffffff     ................
   3b930:	00000000 ffffffff 00000000 ffffffff     ................
   3b940:	00000000 ffffffff 00000000 00000000     ................
   3b950:	00000000 ffffffff ffffffff ffffffff     ................
   3b960:	00000000 ffff0000 0000ffff ffff0000     ................
   3b970:	0000ffff ffff0000 0000ffff ffff0000     ................
   3b980:	0000ffff 00000000 00000000 00000000     ................
	...
   3baa8:	ffff0000 ffffffff ffffffff ffffffff     ................
	...
   3bac0:	ffff0000 ffffffff 0000ffff ffff0000     ................
   3bad0:	0000ffff 00000000 00000000 ffffffff     ................
   3bae0:	ffffffff ffffffff 00000000 00000000     ................
	...
   3baf8:	ffff0000 0000ffff 00000000 00000000     ................
   3bb08:	ffffffff 00000000 ffffffff 00000000     ................
   3bb18:	ffffffff 00000000 ffffffff 00000000     ................
   3bb28:	ffffffff 00000000 00000000 00000000     ................
	...
   3bb40:	ffffffff 0000ffff 00000000 ffffffff     ................
   3bb50:	00000000 ffffffff 00000000 ffffffff     ................
   3bb60:	00000000 ffffffff 00000000 ffffffff     ................
	...
   3bb7c:	ffffffff 00000000 ffffffff 00000000     ................
   3bb8c:	ffffffff 00000000 00000000 00000000     ................
   3bb9c:	00000000 ffffffff 00000000 00000000     ................
   3bbac:	ffffffff 00000000 ffffffff 00000000     ................
   3bbbc:	ffffffff ffffffff ffffffff 00000000     ................
	...
   3bbd4:	ffffffff 00000000 00000000 00000000     ................
   3bbe4:	ffff0000 0000ffff ffff0000 0000ffff     ................
   3bbf4:	ffff0000 0000ffff ffff0000 0000ffff     ................
	...
   3bd28:	ffff0000 0000ffff 00000000 ffff0000     ................
   3bd38:	0000ffff 00000000 ffffffff ffff0000     ................
   3bd48:	0000ffff ffff0000 0000ffff 00000000     ................
   3bd58:	00000000 ffffffff 00000000 00000000     ................
	...
   3bd78:	ffff0000 0000ffff 00000000 00000000     ................
   3bd88:	ffffffff 00000000 ffffffff 00000000     ................
   3bd98:	ffffffff 00000000 ffffffff 00000000     ................
   3bda8:	ffffffff 00000000 00000000 00000000     ................
	...
   3bdc4:	ffffffff 00000000 ffffffff 00000000     ................
   3bdd4:	ffffffff 00000000 ffffffff 00000000     ................
   3bde4:	ffffffff 00000000 ffffffff 00000000     ................
	...
   3bdfc:	ffffffff 00000000 ffffffff 00000000     ................
   3be0c:	ffffffff 00000000 00000000 00000000     ................
   3be1c:	00000000 ffffffff 00000000 00000000     ................
   3be2c:	ffffffff 00000000 ffffffff 00000000     ................
   3be3c:	ffffffff 00000000 00000000 00000000     ................
	...
   3be54:	ffffffff 00000000 00000000 00000000     ................
   3be64:	ffff0000 0000ffff ffff0000 0000ffff     ................
   3be74:	ffff0000 0000ffff ffff0000 0000ffff     ................
	...
   3bfa8:	ffff0000 0000ffff 00000000 ffff0000     ................
   3bfb8:	0000ffff ffff0000 0000ffff ffff0000     ................
   3bfc8:	0000ffff ffff0000 0000ffff 00000000     ................
   3bfd8:	00000000 ffffffff 00000000 00000000     ................
	...
   3bff8:	ffff0000 0000ffff 00000000 00000000     ................
   3c008:	ffffffff 00000000 ffffffff 00000000     ................
   3c018:	ffffffff 00000000 ffffffff 00000000     ................
   3c028:	ffffffff 00000000 00000000 00000000     ................
   3c038:	ffff0000 0000ffff 00000000 ffffffff     ................
   3c048:	00000000 ffffffff 00000000 ffffffff     ................
   3c058:	00000000 ffffffff 00000000 ffffffff     ................
   3c068:	00000000 ffffffff 00000000 00000000     ................
   3c078:	00000000 ffffffff 00000000 ffffffff     ................
   3c088:	00000000 ffffffff 00000000 00000000     ................
	...
   3c0a0:	ffffffff 00000000 00000000 ffffffff     ................
   3c0b0:	00000000 ffffffff 00000000 ffffffff     ................
	...
   3c0d4:	ffffffff 00000000 00000000 00000000     ................
   3c0e4:	ffff0000 0000ffff ffff0000 0000ffff     ................
   3c0f4:	ffff0000 0000ffff ffff0000 0000ffff     ................
	...
   3c228:	ffff0000 0000ffff 00000000 ffff0000     ................
   3c238:	0000ffff ffff0000 0000ffff ffff0000     ................
   3c248:	0000ffff ffff0000 0000ffff ffff0000     ................
   3c258:	0000ffff ffffffff 00000000 ffffffff     ................
	...
   3c278:	ffff0000 0000ffff 00000000 00000000     ................
   3c288:	ffffffff 00000000 ffffffff 00000000     ................
   3c298:	ffffffff 00000000 ffffffff 00000000     ................
   3c2a8:	ffffffff 00000000 00000000 00000000     ................
   3c2b8:	ffff0000 0000ffff 00000000 ffffffff     ................
   3c2c8:	00000000 ffffffff 00000000 ffffffff     ................
   3c2d8:	00000000 ffffffff 00000000 ffffffff     ................
   3c2e8:	00000000 ffffffff 00000000 00000000     ................
   3c2f8:	00000000 ffffffff 00000000 ffffffff     ................
   3c308:	00000000 ffffffff 00000000 00000000     ................
	...
   3c320:	ffffffff 00000000 00000000 ffffffff     ................
   3c330:	00000000 ffffffff 00000000 ffffffff     ................
   3c340:	00000000 ffffffff 00000000 00000000     ................
   3c350:	00000000 ffffffff 00000000 00000000     ................
   3c360:	00000000 ffff0000 0000ffff ffff0000     ................
   3c370:	0000ffff ffff0000 0000ffff ffff0000     ................
   3c380:	0000ffff 00000000 00000000 00000000     ................
	...
   3c4a8:	ffff0000 0000ffff 00000000 00000000     ................
   3c4b8:	ffffffff 00000000 ffffffff ffffffff     ................
   3c4c8:	0000ffff 00000000 ffffffff ffffffff     ................
   3c4d8:	00000000 ffff0000 ffffffff 0000ffff     ................
	...
   3c4f8:	ffff0000 0000ffff 00000000 00000000     ................
   3c508:	ffff0000 ffffffff 0000ffff 00000000     ................
   3c518:	ffff0000 ffffffff ffffffff 00000000     ................
   3c528:	ffffffff 00000000 00000000 00000000     ................
   3c538:	00000000 ffffffff ffffffff 0000ffff     ................
   3c548:	00000000 ffffffff 00000000 ffffffff     ................
   3c558:	00000000 ffffffff 00000000 ffffffff     ................
   3c568:	ffffffff 0000ffff 00000000 00000000     ................
   3c578:	00000000 ffff0000 0000ffff ffff0000     ................
   3c588:	ffffffff 0000ffff 00000000 00000000     ................
	...
   3c5a0:	ffffffff 00000000 00000000 ffffffff     ................
   3c5b0:	00000000 ffffffff 00000000 ffff0000     ................
   3c5c0:	ffffffff 0000ffff 00000000 00000000     ................
   3c5d0:	00000000 ffffffff ffffffff ffffffff     ................
   3c5e0:	0000ffff ffff0000 0000ffff ffff0000     ................
   3c5f0:	0000ffff 00000000 ffffffff ffffffff     ................
   3c600:	0000ffff 00000000 00000000 00000000     ................
	...
   3c7e4:	ffffffff 00000000 00000000 00000000     ................
	...
   3ca64:	ffffffff 00000000 00000000 00000000     ................
	...
   3cce4:	ffffffff 00000000 00000000 00000000     ................
	...
   3e2c8:	ffffffff ffffffff ffffffff 0000ffff     ................
   3e2d8:	ffffffff 00000000 00000000 00000000     ................
	...
   3e328:	ffff0000 ffffffff ffffffff 0000ffff     ................
	...
   3e340:	ffff0000 ffffffff ffffffff ffffffff     ................
	...
   3e364:	ffffffff 00000000 00000000 00000000     ................
	...
   3e398:	ffff0000 0000ffff 00000000 ffff0000     ................
   3e3a8:	0000ffff 00000000 ffff0000 0000ffff     ................
   3e3b8:	ffffffff 00000000 00000000 00000000     ................
	...
   3e3e0:	ffffffff 00000000 00000000 00000000     ................
	...
   3e548:	ffffffff 00000000 00000000 00000000     ................
   3e558:	ffffffff 00000000 00000000 00000000     ................
	...
   3e578:	ffff0000 0000ffff 00000000 00000000     ................
   3e588:	ffff0000 0000ffff 00000000 00000000     ................
	...
   3e5a8:	ffff0000 0000ffff 00000000 00000000     ................
	...
   3e5c0:	ffff0000 0000ffff 00000000 ffff0000     ................
   3e5d0:	0000ffff 00000000 00000000 00000000     ................
   3e5e0:	00000000 ffffffff 00000000 00000000     ................
	...
   3e5fc:	ffffffff 00000000 00000000 00000000     ................
	...
   3e618:	ffff0000 0000ffff 00000000 ffff0000     ................
   3e628:	0000ffff 00000000 ffff0000 0000ffff     ................
   3e638:	ffffffff 00000000 00000000 00000000     ................
	...
   3e660:	ffffffff 00000000 00000000 00000000     ................
	...
   3e7c8:	ffffffff 00000000 00000000 00000000     ................
	...
   3e7f8:	ffff0000 0000ffff 00000000 00000000     ................
   3e808:	ffff0000 0000ffff 00000000 00000000     ................
	...
   3e828:	ffff0000 0000ffff 00000000 00000000     ................
	...
   3e840:	ffff0000 0000ffff 00000000 ffff0000     ................
   3e850:	0000ffff 00000000 00000000 00000000     ................
	...
   3e87c:	ffffffff 00000000 00000000 00000000     ................
	...
   3e898:	ffff0000 0000ffff 00000000 ffff0000     ................
   3e8a8:	0000ffff 00000000 ffff0000 0000ffff     ................
	...
   3e8e0:	ffffffff 00000000 00000000 00000000     ................
	...
   3ea48:	ffffffff 00000000 00000000 00000000     ................
   3ea58:	ffffffff 00000000 ffffffff ffffffff     ................
   3ea68:	00000000 ffffffff ffffffff 00000000     ................
   3ea78:	ffffffff ffffffff 00000000 00000000     ................
   3ea88:	ffffffff ffffffff 00000000 ffffffff     ................
   3ea98:	ffffffff 00000000 00000000 00000000     ................
   3eaa8:	ffff0000 0000ffff 00000000 00000000     ................
	...
   3eac0:	ffff0000 0000ffff 00000000 ffff0000     ................
   3ead0:	0000ffff ffff0000 ffffffff 0000ffff     ................
   3eae0:	00000000 ffffffff 00000000 ffffffff     ................
   3eaf0:	ffffffff 0000ffff ffff0000 ffffffff     ................
   3eb00:	0000ffff ffff0000 ffffffff 0000ffff     ................
	...
   3eb1c:	ffffffff 00000000 ffffffff ffffffff     ................
   3eb2c:	00000000 ffffffff 00000000 ffffffff     ................
   3eb3c:	00000000 ffffffff ffffffff 0000ffff     ................
   3eb4c:	00000000 ffff0000 ffffffff 0000ffff     ................
   3eb5c:	00000000 ffffffff 00000000 00000000     ................
	...
   3ecc8:	ffffffff ffffffff ffffffff 00000000     ................
   3ecd8:	ffffffff 00000000 ffffffff 0000ffff     ................
   3ece8:	ffff0000 0000ffff ffff0000 0000ffff     ................
   3ecf8:	ffff0000 0000ffff 00000000 00000000     ................
   3ed08:	ffff0000 0000ffff ffff0000 0000ffff     ................
   3ed18:	ffff0000 0000ffff 00000000 00000000     ................
   3ed28:	ffff0000 ffffffff ffffffff 00000000     ................
	...
   3ed40:	ffff0000 0000ffff 00000000 ffff0000     ................
   3ed50:	0000ffff ffffffff 00000000 ffffffff     ................
   3ed60:	00000000 ffffffff 00000000 ffffffff     ................
   3ed70:	00000000 ffffffff 00000000 ffffffff     ................
   3ed80:	00000000 ffffffff 00000000 ffffffff     ................
	...
   3ed9c:	ffffffff 00000000 ffffffff ffffffff     ................
   3edac:	00000000 ffffffff 00000000 ffffffff     ................
   3edbc:	00000000 ffffffff 00000000 ffffffff     ................
   3edcc:	00000000 ffffffff 00000000 ffffffff     ................
   3eddc:	00000000 ffffffff 00000000 00000000     ................
	...
   3ef48:	ffffffff 00000000 00000000 00000000     ................
   3ef58:	ffffffff 00000000 ffffffff 00000000     ................
   3ef68:	ffff0000 0000ffff 00000000 00000000     ................
   3ef78:	ffff0000 0000ffff 00000000 00000000     ................
   3ef88:	ffff0000 0000ffff ffff0000 0000ffff     ................
   3ef98:	ffff0000 0000ffff 00000000 00000000     ................
   3efa8:	ffff0000 0000ffff ffff0000 0000ffff     ................
	...
   3efc0:	ffff0000 ffffffff ffffffff ffffffff     ................
   3efd0:	00000000 ffffffff 00000000 ffffffff     ................
   3efe0:	00000000 ffffffff 00000000 ffffffff     ................
   3eff0:	00000000 ffffffff 00000000 ffffffff     ................
   3f000:	00000000 ffffffff 00000000 00000000     ................
	...
   3f01c:	ffff0000 0000ffff 0000ffff ffff0000     ................
   3f02c:	ffff0000 0000ffff 00000000 ffffffff     ................
   3f03c:	00000000 ffffffff 00000000 ffffffff     ................
   3f04c:	00000000 ffffffff 00000000 00000000     ................
   3f05c:	00000000 ffffffff 00000000 00000000     ................
	...
   3f1c8:	ffffffff 00000000 00000000 00000000     ................
   3f1d8:	ffffffff 00000000 ffffffff 00000000     ................
   3f1e8:	00000000 ffffffff ffffffff 00000000     ................
   3f1f8:	ffff0000 0000ffff 00000000 00000000     ................
   3f208:	ffff0000 0000ffff ffff0000 0000ffff     ................
   3f218:	ffff0000 0000ffff 00000000 00000000     ................
	...
   3f230:	ffff0000 0000ffff 00000000 00000000     ................
   3f240:	ffff0000 0000ffff 00000000 00000000     ................
   3f250:	00000000 ffffffff 00000000 ffffffff     ................
   3f260:	00000000 ffffffff 00000000 ffffffff     ................
   3f270:	00000000 ffffffff 00000000 ffffffff     ................
   3f280:	00000000 ffff0000 ffffffff 0000ffff     ................
	...
   3f29c:	ffff0000 ffffffff 0000ffff ffff0000     ................
   3f2ac:	ffffffff 0000ffff 00000000 ffffffff     ................
   3f2bc:	00000000 ffffffff 00000000 ffffffff     ................
   3f2cc:	00000000 ffff0000 ffffffff 0000ffff     ................
   3f2dc:	00000000 ffffffff 00000000 00000000     ................
	...
   3f448:	ffffffff 00000000 00000000 00000000     ................
   3f458:	ffffffff 00000000 ffffffff 00000000     ................
	...
   3f470:	ffff0000 0000ffff ffff0000 0000ffff     ................
	...
   3f488:	ffff0000 0000ffff ffff0000 0000ffff     ................
   3f498:	ffff0000 0000ffff 00000000 00000000     ................
	...
   3f4b0:	ffff0000 0000ffff 00000000 00000000     ................
   3f4c0:	ffff0000 0000ffff 00000000 00000000     ................
   3f4d0:	00000000 ffffffff 00000000 ffffffff     ................
   3f4e0:	00000000 ffffffff 00000000 ffffffff     ................
   3f4f0:	00000000 ffffffff 00000000 ffffffff     ................
	...
   3f50c:	ffffffff 00000000 00000000 00000000     ................
   3f51c:	00000000 ffffffff 00000000 00000000     ................
   3f52c:	ffffffff 00000000 00000000 ffffffff     ................
   3f53c:	00000000 ffffffff 00000000 ffffffff     ................
	...
   3f558:	ffffffff 00000000 00000000 00000000     ................
	...
   3f6c8:	ffffffff 00000000 00000000 00000000     ................
   3f6d8:	ffffffff 00000000 ffffffff 00000000     ................
   3f6e8:	ffff0000 0000ffff ffff0000 0000ffff     ................
   3f6f8:	ffff0000 0000ffff 00000000 00000000     ................
   3f708:	ffff0000 0000ffff ffff0000 0000ffff     ................
   3f718:	ffff0000 0000ffff 00000000 00000000     ................
   3f728:	ffff0000 0000ffff ffff0000 0000ffff     ................
	...
   3f740:	ffff0000 0000ffff 00000000 00000000     ................
   3f750:	00000000 ffffffff 00000000 ffffffff     ................
   3f760:	00000000 ffffffff 00000000 ffffffff     ................
   3f770:	00000000 ffffffff 00000000 ffffffff     ................
   3f780:	00000000 ffffffff 00000000 ffffffff     ................
	...
   3f7a0:	ffffffff 00000000 00000000 ffffffff     ................
	...
   3f7b8:	ffffffff 00000000 ffffffff 00000000     ................
   3f7c8:	ffffffff 00000000 ffffffff 00000000     ................
   3f7d8:	ffffffff 00000000 ffffffff 00000000     ................
	...
   3f948:	ffffffff 00000000 00000000 00000000     ................
   3f958:	ffffffff 00000000 ffffffff 00000000     ................
   3f968:	00000000 ffffffff ffffffff 00000000     ................
   3f978:	00000000 ffffffff 00000000 00000000     ................
   3f988:	00000000 ffffffff 00000000 ffffffff     ................
   3f998:	ffffffff 00000000 00000000 00000000     ................
   3f9a8:	00000000 ffffffff ffffffff 00000000     ................
	...
   3f9c0:	ffff0000 0000ffff 00000000 00000000     ................
   3f9d0:	00000000 ffff0000 ffffffff 0000ffff     ................
   3f9e0:	00000000 ffffffff 00000000 ffffffff     ................
   3f9f0:	00000000 ffffffff 00000000 ffff0000     ................
   3fa00:	0000ffff ffff0000 ffffffff 0000ffff     ................
	...
   3fa20:	ffffffff 00000000 00000000 ffffffff     ................
	...
   3fa38:	ffffffff 00000000 ffffffff 00000000     ................
   3fa48:	ffffffff 00000000 ffff0000 ffffffff     ................
   3fa58:	0000ffff 00000000 ffffffff 00000000     ................
	...

0004c5a0 <ship>:
	...
   4c5b0:	ffffffff 00000000 00000000 00000000     ................
	...
   4c5d0:	ffff0000 ffffffff 0000ffff 00000000     ................
	...
   4c5f4:	ffffffff 00000000 ffffffff 00000000     ................
   4c604:	00200000 00200841 00000000 00200000     .. .A. ....... .
   4c614:	ffff0000 0000ffff 08410000 ffff0000     ..........A.....
   4c624:	0000ffff 00000000 00000000 00000000     ................
   4c634:	00000000 ffffffff 00000000 00000000     ................
   4c644:	00000000 ffffffff 00000000 00000000     ................
   4c654:	00000841 00000000 0000ffdf 00000000     A...............
	...
   4c66c:	ffff0000 00000000 00000000 00000000     ................
   4c67c:	00000000 0000ffff 00000000 00000000     ................
   4c68c:	00000000 ffff0000 00000000 00000000     ................
	...
   4c6a4:	0000ffff 00000000 00000000 00000000     ................
   4c6b4:	ffff0000 00000000 00000000 00000000     ................
   4c6c4:	00000000 0000ffff 00000000 00000000     ................
   4c6d4:	00000000 ffff0000 00000000 00000000     ................
	...
   4c6ec:	0000ffff 00000000 00000000 00000000     ................
   4c6fc:	ffff0000 00000000 00000000 00000000     ................
   4c70c:	00000000 0000ffff 00000000 00000000     ................
   4c71c:	00000000 ffff0000 00000000 00200000     .............. .
   4c72c:	00000000 00000020 0000ffff 00000000     .... ...........
	...
   4c744:	ffff0000 00000000 00000000 00000000     ................
   4c754:	00000000 0000ffff 00000000 00000000     ................
   4c764:	00000000 ffff0000 00000000 00000000     ................
   4c774:	00000000 ffff0000 0000ffff 00000000     ................
	...
   4c78c:	ffff0000 0000ffff 00000000 ffff0000     ................
   4c79c:	ffffffff 00000000 00000000 00200000     .............. .
	...
   4c7b4:	ffffffff 00000000 ffff0000 0000ffff     ................
   4c7c4:	00000000 00000020 00000000 00000000     .... ...........
   4c7d4:	00000000 ffff0000 0000ffff ffffffff     ................
	...
   4c800:	ffffffff ffffffff 0000ffff 00000000     ................
   4c810:	ffffffff ffffffff ffffffff 00000000     ................
   4c820:	ffff0000 ffffffff ffff0000 ffffffff     ................
   4c830:	ffff0000 ffffffff ffffffff ffffffff     ................
   4c840:	0000ffff ffffffff 0000ffff 00000000     ................
   4c850:	ffff0000 ffff0000 00000000 00000000     ................
   4c860:	00000000 0000ffff 0000ffff 00000000     ................
   4c870:	00000000 ffff0000 ffffffff 00000000     ................
	...
   4c888:	ffffffff 0000ffff 00000000 00000000     ................
   4c898:	00000000 0000ffff 00000000 00000000     ................
	...

0004c8b8 <_global_impure_ptr>:
   4c8b8:	0004c928 00000043                       (...C...

0004c8c0 <_init>:
   4c8c0:	e1a0c00d 	mov	r12, sp
   4c8c4:	e92ddff8 	push	{r3, r4, r5, r6, r7, r8, r9, r10, r11, r12, lr, pc}
   4c8c8:	e24cb004 	sub	r11, r12, #4
   4c8cc:	e24bd028 	sub	sp, r11, #40	; 0x28
   4c8d0:	e89d6ff0 	ldm	sp, {r4, r5, r6, r7, r8, r9, r10, r11, sp, lr}
   4c8d4:	e12fff1e 	bx	lr

0004c8d8 <__init_array_start>:
   4c8d8:	00001444 	.word	0x00001444

0004c8dc <__frame_dummy_init_array_entry>:
   4c8dc:	00000208                                ....

0004c8e0 <__libc_fini>:
   4c8e0:	e1a0c00d 	mov	r12, sp
   4c8e4:	e92ddff8 	push	{r3, r4, r5, r6, r7, r8, r9, r10, r11, r12, lr, pc}
   4c8e8:	e24cb004 	sub	r11, r12, #4
   4c8ec:	e24bd028 	sub	sp, r11, #40	; 0x28
   4c8f0:	e89d6ff0 	ldm	sp, {r4, r5, r6, r7, r8, r9, r10, r11, sp, lr}
   4c8f4:	e12fff1e 	bx	lr

0004c8f8 <__fini_array_start>:
   4c8f8:	000001c4 	.word	0x000001c4

0004c8fc <__cs3_regions>:
	...
   4c908:	0004cd58 	.word	0x0004cd58
   4c90c:	00000110 	.word	0x00000110
