
C:/ECE243/project/flappy_bird_project/project/gameOver.axf:     file format elf32-littlearm


Disassembly of section .text:

00000000 <__cs3_interrupt_vector>:
       0:	18 f0 9f e5 18 f0 9f e5 18 f0 9f e5 18 f0 9f e5     ................
      10:	18 f0 9f e5 18 f0 9f e5 18 f0 9f e5 18 f0 9f e5     ................
      20:	2c 0e 00 00 30 0e 00 00 34 0e 00 00 38 0e 00 00     ,...0...4...8...
      30:	3c 0e 00 00 10 15 00 00 f0 0e 00 00 40 0e 00 00     <...........@...

00000040 <__cs3_reset_generic>:
      40:	ea000026 	b	e0 <__cs3_start_asm_sim>

00000044 <__cs3_start_c>:
      44:	e59f608c 	ldr	r6, [pc, #140]	; d8 <__cs3_start_c+0x94>
      48:	e3560000 	cmp	r6, #0
      4c:	e92d4080 	push	{r7, lr}
      50:	e2466001 	sub	r6, r6, #1
      54:	0a00001e 	beq	d4 <__cs3_start_c+0x90>
      58:	e59f507c 	ldr	r5, [pc, #124]	; dc <__cs3_start_c+0x98>
      5c:	e3a00000 	mov	r0, #0
      60:	e3a01000 	mov	r1, #0
      64:	e515200c 	ldr	r2, [r5, #-12]
      68:	e515e010 	ldr	lr, [r5, #-16]
      6c:	e5154008 	ldr	r4, [r5, #-8]
      70:	e15e0002 	cmp	lr, r2
      74:	00822004 	addeq	r2, r2, r4
      78:	0a000009 	beq	a4 <__cs3_start_c+0x60>
      7c:	e3540000 	cmp	r4, #0
      80:	0a000007 	beq	a4 <__cs3_start_c+0x60>
      84:	e1a07002 	mov	r7, r2
      88:	e1a0c002 	mov	r12, r2
      8c:	e8be000c 	ldm	lr!, {r2, r3}
      90:	e8ac000c 	stmia	r12!, {r2, r3}
      94:	e067300c 	rsb	r3, r7, r12
      98:	e1540003 	cmp	r4, r3
      9c:	e1a0200c 	mov	r2, r12
      a0:	1afffff9 	bne	8c <__cs3_start_c+0x48>
      a4:	e515e004 	ldr	lr, [r5, #-4]
      a8:	e35e0000 	cmp	lr, #0
      ac:	11a03002 	movne	r3, r2
      b0:	0a000003 	beq	c4 <__cs3_start_c+0x80>
      b4:	e8a30003 	stmia	r3!, {r0, r1}
      b8:	e062c003 	rsb	r12, r2, r3
      bc:	e15e000c 	cmp	lr, r12
      c0:	1afffffb 	bne	b4 <__cs3_start_c+0x70>
      c4:	e2466001 	sub	r6, r6, #1
      c8:	e3760001 	cmn	r6, #1
      cc:	e2855014 	add	r5, r5, #20
      d0:	1affffe3 	bne	64 <__cs3_start_c+0x20>
      d4:	eb0004f4 	bl	14ac <__cs3_premain>
      d8:	00000001 	.word	0x00000001
      dc:	0004c910 	.word	0x0004c910

000000e0 <__cs3_start_asm_sim>:
      e0:	e28f103c 	add	r1, pc, #60	; 0x3c
      e4:	e3a00016 	mov	r0, #22
      e8:	ef123456 	svc	0x00123456
      ec:	e3500000 	cmp	r0, #0
      f0:	ba000008 	blt	118 <__cs3_region_zero_size_ram+0x8>
      f4:	e59f2028 	ldr	r2, [pc, #40]	; 124 <__cs3_heap_start_ptr>
      f8:	e59fd01c 	ldr	sp, [pc, #28]	; 11c <__cs3_region_zero_size_ram+0xc>
      fc:	e5920008 	ldr	r0, [r2, #8]
     100:	e3500000 	cmp	r0, #0
     104:	11a0d000 	movne	sp, r0
     108:	e59f1010 	ldr	r1, [pc, #16]	; 120 <__cs3_region_zero_size_ram+0x10>
     10c:	e5920004 	ldr	r0, [r2, #4]
     110:	e3500000 	cmp	r0, #0
     114:	15810000 	strne	r0, [r1]
     118:	eaffffc9 	b	44 <__cs3_start_c>
     11c:	3ffffff8 	.word	0x3ffffff8
     120:	0004cd50 	.word	0x0004cd50

00000124 <__cs3_heap_start_ptr>:
     124:	0004ce68 	.word	0x0004ce68

00000128 <_start>:
     128:	e51fd000 	ldr	sp, [pc, #-0]	; 130 <_start+0x8>
     12c:	eaffffc4 	b	44 <__cs3_start_c>
     130:	3ffffff8 	.word	0x3ffffff8

00000134 <deregister_tm_clones>:
     134:	e92d4008 	push	{r3, lr}
     138:	e59f002c 	ldr	r0, [pc, #44]	; 16c <deregister_tm_clones+0x38>
     13c:	e59f302c 	ldr	r3, [pc, #44]	; 170 <deregister_tm_clones+0x3c>
     140:	e0603003 	rsb	r3, r0, r3
     144:	e3530006 	cmp	r3, #6
     148:	8a000001 	bhi	154 <deregister_tm_clones+0x20>
     14c:	e8bd4008 	pop	{r3, lr}
     150:	e12fff1e 	bx	lr
     154:	e59f3018 	ldr	r3, [pc, #24]	; 174 <deregister_tm_clones+0x40>
     158:	e3530000 	cmp	r3, #0
     15c:	0afffffa 	beq	14c <deregister_tm_clones+0x18>
     160:	e1a0e00f 	mov	lr, pc
     164:	e12fff13 	bx	r3
     168:	eafffff7 	b	14c <deregister_tm_clones+0x18>
     16c:	0004cd58 	.word	0x0004cd58
     170:	0004cd5b 	.word	0x0004cd5b
     174:	00000000 	.word	0x00000000

00000178 <register_tm_clones>:
     178:	e92d4008 	push	{r3, lr}
     17c:	e59f0034 	ldr	r0, [pc, #52]	; 1b8 <register_tm_clones+0x40>
     180:	e59f3034 	ldr	r3, [pc, #52]	; 1bc <register_tm_clones+0x44>
     184:	e0603003 	rsb	r3, r0, r3
     188:	e1a03143 	asr	r3, r3, #2
     18c:	e0833fa3 	add	r3, r3, r3, lsr #31
     190:	e1b010c3 	asrs	r1, r3, #1
     194:	1a000001 	bne	1a0 <register_tm_clones+0x28>
     198:	e8bd4008 	pop	{r3, lr}
     19c:	e12fff1e 	bx	lr
     1a0:	e59f2018 	ldr	r2, [pc, #24]	; 1c0 <register_tm_clones+0x48>
     1a4:	e3520000 	cmp	r2, #0
     1a8:	0afffffa 	beq	198 <register_tm_clones+0x20>
     1ac:	e1a0e00f 	mov	lr, pc
     1b0:	e12fff12 	bx	r2
     1b4:	eafffff7 	b	198 <register_tm_clones+0x20>
     1b8:	0004cd58 	.word	0x0004cd58
     1bc:	0004cd58 	.word	0x0004cd58
     1c0:	00000000 	.word	0x00000000

000001c4 <__do_global_dtors_aux>:
     1c4:	e92d4010 	push	{r4, lr}
     1c8:	e59f402c 	ldr	r4, [pc, #44]	; 1fc <__do_global_dtors_aux+0x38>
     1cc:	e5d43000 	ldrb	r3, [r4]
     1d0:	e3530000 	cmp	r3, #0
     1d4:	1a000006 	bne	1f4 <__do_global_dtors_aux+0x30>
     1d8:	ebffffd5 	bl	134 <deregister_tm_clones>
     1dc:	e59f301c 	ldr	r3, [pc, #28]	; 200 <__do_global_dtors_aux+0x3c>
     1e0:	e3530000 	cmp	r3, #0
     1e4:	159f0018 	ldrne	r0, [pc, #24]	; 204 <__do_global_dtors_aux+0x40>
     1e8:	1320f000 	nopne	{0}
     1ec:	e3a03001 	mov	r3, #1
     1f0:	e5c43000 	strb	r3, [r4]
     1f4:	e8bd4010 	pop	{r4, lr}
     1f8:	e12fff1e 	bx	lr
     1fc:	0004cd58 	.word	0x0004cd58
     200:	00000000 	.word	0x00000000
     204:	0000159c 	.word	0x0000159c

00000208 <frame_dummy>:
     208:	e92d4008 	push	{r3, lr}
     20c:	e59f3034 	ldr	r3, [pc, #52]	; 248 <frame_dummy+0x40>
     210:	e3530000 	cmp	r3, #0
     214:	159f0030 	ldrne	r0, [pc, #48]	; 24c <frame_dummy+0x44>
     218:	159f1030 	ldrne	r1, [pc, #48]	; 250 <frame_dummy+0x48>
     21c:	1320f000 	nopne	{0}
     220:	e59f002c 	ldr	r0, [pc, #44]	; 254 <frame_dummy+0x4c>
     224:	e5903000 	ldr	r3, [r0]
     228:	e3530000 	cmp	r3, #0
     22c:	0a000003 	beq	240 <frame_dummy+0x38>
     230:	e59f3020 	ldr	r3, [pc, #32]	; 258 <frame_dummy+0x50>
     234:	e3530000 	cmp	r3, #0
     238:	11a0e00f 	movne	lr, pc
     23c:	112fff13 	bxne	r3
     240:	e8bd4008 	pop	{r3, lr}
     244:	eaffffcb 	b	178 <register_tm_clones>
     248:	00000000 	.word	0x00000000
     24c:	0000159c 	.word	0x0000159c
     250:	0004cd5c 	.word	0x0004cd5c
     254:	0004c910 	.word	0x0004c910
     258:	00000000 	.word	0x00000000

0000025c <checkKeyPress>:
}

void checkKeyPress()
{

    if (*PUSHBUTTONS == 0b0001 || *PUSHBUTTONS == 0b1101)
     25c:	e3a03000 	mov	r3, #0
     260:	e34f3f20 	movt	r3, #65312	; 0xff20
     264:	e5933050 	ldr	r3, [r3, #80]	; 0x50
     268:	e3530001 	cmp	r3, #1
     26c:	0a000004 	beq	284 <checkKeyPress+0x28>
     270:	e3a03000 	mov	r3, #0
     274:	e34f3f20 	movt	r3, #65312	; 0xff20
     278:	e5933050 	ldr	r3, [r3, #80]	; 0x50
     27c:	e353000d 	cmp	r3, #13
     280:	1a000006 	bne	2a0 <checkKeyPress+0x44>
    {
        Ship1dy = 0;
     284:	e30c3d74 	movw	r3, #52596	; 0xcd74
     288:	e3403004 	movt	r3, #4
     28c:	e3a02000 	mov	r2, #0
     290:	e5832000 	str	r2, [r3]
        Ship2dy = 1;
     294:	e3a02001 	mov	r2, #1
     298:	e5832004 	str	r2, [r3, #4]
     29c:	e12fff1e 	bx	lr
    }
    else if (*PUSHBUTTONS == 0b0010 || *PUSHBUTTONS == 0b1110)
     2a0:	e3a03000 	mov	r3, #0
     2a4:	e34f3f20 	movt	r3, #65312	; 0xff20
     2a8:	e5933050 	ldr	r3, [r3, #80]	; 0x50
     2ac:	e3530002 	cmp	r3, #2
     2b0:	0a000004 	beq	2c8 <checkKeyPress+0x6c>
     2b4:	e3a03000 	mov	r3, #0
     2b8:	e34f3f20 	movt	r3, #65312	; 0xff20
     2bc:	e5933050 	ldr	r3, [r3, #80]	; 0x50
     2c0:	e353000e 	cmp	r3, #14
     2c4:	1a000006 	bne	2e4 <checkKeyPress+0x88>
    {
        Ship1dy = 0;
     2c8:	e30c3d74 	movw	r3, #52596	; 0xcd74
     2cc:	e3403004 	movt	r3, #4
     2d0:	e3a02000 	mov	r2, #0
     2d4:	e5832000 	str	r2, [r3]
        Ship2dy = -1;
     2d8:	e3e02000 	mvn	r2, #0
     2dc:	e5832004 	str	r2, [r3, #4]
     2e0:	e12fff1e 	bx	lr
    }
    else if (*PUSHBUTTONS == 0b0100 || *PUSHBUTTONS == 0b0111)
     2e4:	e3a03000 	mov	r3, #0
     2e8:	e34f3f20 	movt	r3, #65312	; 0xff20
     2ec:	e5933050 	ldr	r3, [r3, #80]	; 0x50
     2f0:	e3530004 	cmp	r3, #4
     2f4:	0a000004 	beq	30c <checkKeyPress+0xb0>
     2f8:	e3a03000 	mov	r3, #0
     2fc:	e34f3f20 	movt	r3, #65312	; 0xff20
     300:	e5933050 	ldr	r3, [r3, #80]	; 0x50
     304:	e3530007 	cmp	r3, #7
     308:	1a000006 	bne	328 <checkKeyPress+0xcc>
    {
        Ship2dy = 0;
     30c:	e30c3d74 	movw	r3, #52596	; 0xcd74
     310:	e3403004 	movt	r3, #4
     314:	e3a02000 	mov	r2, #0
     318:	e5832004 	str	r2, [r3, #4]
        Ship1dy = 1;
     31c:	e3a02001 	mov	r2, #1
     320:	e5832000 	str	r2, [r3]
     324:	e12fff1e 	bx	lr
    }
    else if (*PUSHBUTTONS == 0b1000 || *PUSHBUTTONS == 0b1011)
     328:	e3a03000 	mov	r3, #0
     32c:	e34f3f20 	movt	r3, #65312	; 0xff20
     330:	e5933050 	ldr	r3, [r3, #80]	; 0x50
     334:	e3530008 	cmp	r3, #8
     338:	0a000004 	beq	350 <checkKeyPress+0xf4>
     33c:	e3a03000 	mov	r3, #0
     340:	e34f3f20 	movt	r3, #65312	; 0xff20
     344:	e5933050 	ldr	r3, [r3, #80]	; 0x50
     348:	e353000b 	cmp	r3, #11
     34c:	1a000006 	bne	36c <checkKeyPress+0x110>
    {
        Ship2dy = 0;
     350:	e30c3d74 	movw	r3, #52596	; 0xcd74
     354:	e3403004 	movt	r3, #4
     358:	e3a02000 	mov	r2, #0
     35c:	e5832004 	str	r2, [r3, #4]
        Ship1dy = -1;
     360:	e3e02000 	mvn	r2, #0
     364:	e5832000 	str	r2, [r3]
     368:	e12fff1e 	bx	lr
    }
    else if (*PUSHBUTTONS == 0b1001)
     36c:	e3a03000 	mov	r3, #0
     370:	e34f3f20 	movt	r3, #65312	; 0xff20
     374:	e5933050 	ldr	r3, [r3, #80]	; 0x50
     378:	e3530009 	cmp	r3, #9
     37c:	1a000006 	bne	39c <checkKeyPress+0x140>
    {
        Ship2dy = 1;
     380:	e30c3d74 	movw	r3, #52596	; 0xcd74
     384:	e3403004 	movt	r3, #4
     388:	e3a02001 	mov	r2, #1
     38c:	e5832004 	str	r2, [r3, #4]
        Ship1dy = -1;
     390:	e3e02000 	mvn	r2, #0
     394:	e5832000 	str	r2, [r3]
     398:	e12fff1e 	bx	lr
    }
    else if (*PUSHBUTTONS == 0b0110)
     39c:	e3a03000 	mov	r3, #0
     3a0:	e34f3f20 	movt	r3, #65312	; 0xff20
     3a4:	e5933050 	ldr	r3, [r3, #80]	; 0x50
     3a8:	e3530006 	cmp	r3, #6
     3ac:	1a000006 	bne	3cc <checkKeyPress+0x170>
    {
        Ship1dy = 1;
     3b0:	e30c3d74 	movw	r3, #52596	; 0xcd74
     3b4:	e3403004 	movt	r3, #4
     3b8:	e3a02001 	mov	r2, #1
     3bc:	e5832000 	str	r2, [r3]
        Ship2dy = -1;
     3c0:	e3e02000 	mvn	r2, #0
     3c4:	e5832004 	str	r2, [r3, #4]
     3c8:	e12fff1e 	bx	lr
    }
    else if (*PUSHBUTTONS == 0b0101)
     3cc:	e3a03000 	mov	r3, #0
     3d0:	e34f3f20 	movt	r3, #65312	; 0xff20
     3d4:	e5933050 	ldr	r3, [r3, #80]	; 0x50
     3d8:	e3530005 	cmp	r3, #5
     3dc:	1a000005 	bne	3f8 <checkKeyPress+0x19c>
    {
        Ship1dy = 1;
     3e0:	e30c3d74 	movw	r3, #52596	; 0xcd74
     3e4:	e3403004 	movt	r3, #4
     3e8:	e3a02001 	mov	r2, #1
     3ec:	e5832000 	str	r2, [r3]
        Ship2dy = 1;
     3f0:	e5832004 	str	r2, [r3, #4]
     3f4:	e12fff1e 	bx	lr
    }
    else if (*PUSHBUTTONS == 0b1010)
     3f8:	e3a03000 	mov	r3, #0
     3fc:	e34f3f20 	movt	r3, #65312	; 0xff20
     400:	e5933050 	ldr	r3, [r3, #80]	; 0x50
     404:	e353000a 	cmp	r3, #10
    {
        Ship1dy = -1;
     408:	e30c3d74 	movw	r3, #52596	; 0xcd74
     40c:	e3403004 	movt	r3, #4
     410:	03e02000 	mvneq	r2, #0
        Ship2dy = -1;
    }
    else
    {
        Ship1dy = 0;
     414:	13a02000 	movne	r2, #0
     418:	e5832000 	str	r2, [r3]
        Ship2dy = 0;
     41c:	e5832004 	str	r2, [r3, #4]
     420:	e12fff1e 	bx	lr

00000424 <initialize>:
        }
    }
}

void initialize()
{
     424:	e92d47f0 	push	{r4, r5, r6, r7, r8, r9, r10, lr}
     428:	e59f410c 	ldr	r4, [pc, #268]	; 53c <initialize+0x118>
     42c:	e3a05000 	mov	r5, #0
    // initialize location and direction of rectangles(not shown)
    for (int i = 0; i < numAsteroids; i++)
    {
        // initialize direction
        Asteroids[i].dx = 3 * (((rand() % 2) * 2) - 1); // 1 or -1
        Asteroids[i].dy = 0;
     430:	e1a09005 	mov	r9, r5

        // initialize x and y positions
        Asteroids[i].x = rand() % 319;
     434:	e30479d5 	movw	r7, #18901	; 0x49d5
     438:	e343735c 	movt	r7, #13148	; 0x335c
        Asteroids[i].y = rand() % 239;
     43c:	e30c673b 	movw	r6, #51003	; 0xc73b
     440:	e348691a 	movt	r6, #35098	; 0x891a
        ONCHIP[i].x = Asteroids[i].x;
     444:	e30c8d74 	movw	r8, #52596	; 0xcd74
     448:	e3408004 	movt	r8, #4
     44c:	e288a058 	add	r10, r8, #88	; 0x58
        ONCHIP[i].y = Asteroids[i].y;
        SDRAM[i].x = Asteroids[i].x;
     450:	e2888080 	add	r8, r8, #128	; 0x80
    // declare other variables(not shown)
    // initialize location and direction of rectangles(not shown)
    for (int i = 0; i < numAsteroids; i++)
    {
        // initialize direction
        Asteroids[i].dx = 3 * (((rand() % 2) * 2) - 1); // 1 or -1
     454:	eb000347 	bl	1178 <rand>
     458:	e0803fa0 	add	r3, r0, r0, lsr #31
     45c:	e2033001 	and	r3, r3, #1
     460:	e0430fa0 	sub	r0, r3, r0, lsr #31
     464:	e0800080 	add	r0, r0, r0, lsl #1
     468:	e1a00080 	lsl	r0, r0, #1
     46c:	e2400003 	sub	r0, r0, #3
     470:	e5840000 	str	r0, [r4]
        Asteroids[i].dy = 0;
     474:	e5849004 	str	r9, [r4, #4]

        // initialize x and y positions
        Asteroids[i].x = rand() % 319;
     478:	eb00033e 	bl	1178 <rand>
     47c:	e0c23097 	smull	r3, r2, r7, r0
     480:	e1a03fc0 	asr	r3, r0, #31
     484:	e0633342 	rsb	r3, r3, r2, asr #6
     488:	e0832103 	add	r2, r3, r3, lsl #2
     48c:	e0633302 	rsb	r3, r3, r2, lsl #6
     490:	e0630000 	rsb	r0, r3, r0
     494:	e5040008 	str	r0, [r4, #-8]
        Asteroids[i].y = rand() % 239;
     498:	eb000336 	bl	1178 <rand>
     49c:	e0c32096 	smull	r2, r3, r6, r0
     4a0:	e0833000 	add	r3, r3, r0
     4a4:	e1a02fc0 	asr	r2, r0, #31
     4a8:	e06233c3 	rsb	r3, r2, r3, asr #7
     4ac:	e0632203 	rsb	r2, r3, r3, lsl #4
     4b0:	e0633202 	rsb	r3, r3, r2, lsl #4
     4b4:	e0633000 	rsb	r3, r3, r0
     4b8:	e5043004 	str	r3, [r4, #-4]
        ONCHIP[i].x = Asteroids[i].x;
     4bc:	e5141008 	ldr	r1, [r4, #-8]
     4c0:	e1a0200a 	mov	r2, r10
     4c4:	e7a21005 	str	r1, [r2, r5]!
        ONCHIP[i].y = Asteroids[i].y;
     4c8:	e5823004 	str	r3, [r2, #4]
        SDRAM[i].x = Asteroids[i].x;
     4cc:	e1a02008 	mov	r2, r8
     4d0:	e7a21005 	str	r1, [r2, r5]!
        SDRAM[i].y = Asteroids[i].y;
     4d4:	e5823004 	str	r3, [r2, #4]
     4d8:	e2844010 	add	r4, r4, #16
     4dc:	e2855008 	add	r5, r5, #8
void initialize()
{
    // initialize
    // declare other variables(not shown)
    // initialize location and direction of rectangles(not shown)
    for (int i = 0; i < numAsteroids; i++)
     4e0:	e3550028 	cmp	r5, #40	; 0x28
     4e4:	1affffda 	bne	454 <initialize+0x30>
        ONCHIP[i].y = Asteroids[i].y;
        SDRAM[i].x = Asteroids[i].x;
        SDRAM[i].y = Asteroids[i].y;
    }

    Ship1.x = 319 / 4 - shipWidth / 2;
     4e8:	e30c3d74 	movw	r3, #52596	; 0xcd74
     4ec:	e3403004 	movt	r3, #4
     4f0:	e3a0104a 	mov	r1, #74	; 0x4a
     4f4:	e58310a8 	str	r1, [r3, #168]	; 0xa8
    Ship1.y = 239 - shipLength - 1;
     4f8:	e3a020d9 	mov	r2, #217	; 0xd9
     4fc:	e58320ac 	str	r2, [r3, #172]	; 0xac
    Ship1dy = 0; // initialize ship1dy
     500:	e3a00000 	mov	r0, #0
     504:	e5830000 	str	r0, [r3]

    Ship1SDRAM.x = 319 / 4 - shipWidth / 2;
     508:	e58310b8 	str	r1, [r3, #184]	; 0xb8
    Ship1SDRAM.y = 239 - shipLength - 1;
     50c:	e58320bc 	str	r2, [r3, #188]	; 0xbc

    Ship1ONCHIP.x = 319 / 4 - shipWidth / 2;
     510:	e58310c0 	str	r1, [r3, #192]	; 0xc0
    Ship1ONCHIP.y = 239 - shipLength - 1;
     514:	e58320c4 	str	r2, [r3, #196]	; 0xc4

    Ship2.x = 319 * 3 / 4 - shipWidth / 2;
     518:	e3a010ea 	mov	r1, #234	; 0xea
     51c:	e58310c8 	str	r1, [r3, #200]	; 0xc8
    Ship2.y = 239 - shipLength - 1;
     520:	e58320cc 	str	r2, [r3, #204]	; 0xcc
    Ship2dy = 0; // initialize ship1dy
     524:	e5830004 	str	r0, [r3, #4]

    Ship2SDRAM.x = 319 * 3 / 4 - shipWidth / 2;
     528:	e58310d8 	str	r1, [r3, #216]	; 0xd8
    Ship2SDRAM.y = 239 - shipLength - 1;
     52c:	e58320dc 	str	r2, [r3, #220]	; 0xdc

    Ship2ONCHIP.x = 319 * 3 / 4 - shipWidth / 2;
     530:	e58310e0 	str	r1, [r3, #224]	; 0xe0
    Ship2ONCHIP.y = 239 - shipLength - 1;
     534:	e58320e4 	str	r2, [r3, #228]	; 0xe4
     538:	e8bd87f0 	pop	{r4, r5, r6, r7, r8, r9, r10, pc}
     53c:	0004cd84 	.word	0x0004cd84

00000540 <update>:
    draw_line(x, y + length, x + width, y + length, line_color);
}

// update movement of boxes
void update()
{
     540:	e92d4ff0 	push	{r4, r5, r6, r7, r8, r9, r10, r11, lr}
     544:	e24dd00c 	sub	sp, sp, #12
     548:	e59f62bc 	ldr	r6, [pc, #700]	; 80c <update+0x2cc>
     54c:	e2864008 	add	r4, r6, #8
     550:	e3a07000 	mov	r7, #0
    for (int i = 0; i < numAsteroids; i++)
    {
        // save the position to erase
        if (pixel_buffer_start == 0xC0000000)
     554:	e30c8d74 	movw	r8, #52596	; 0xcd74
     558:	e3408004 	movt	r8, #4
            SDRAM[i].x = Asteroids[i].x;
            SDRAM[i].y = Asteroids[i].y;
        }
        else if (pixel_buffer_start == 0xC8000000)
        {
            ONCHIP[i].x = Asteroids[i].x;
     55c:	e2882058 	add	r2, r8, #88	; 0x58
     560:	e58d2004 	str	r2, [sp, #4]
    for (int i = 0; i < numAsteroids; i++)
    {
        // save the position to erase
        if (pixel_buffer_start == 0xC0000000)
        {
            SDRAM[i].x = Asteroids[i].x;
     564:	e288b080 	add	r11, r8, #128	; 0x80
            ONCHIP[i].x = Asteroids[i].x;
            ONCHIP[i].y = Asteroids[i].y;
        }

        // if reached right side or left side, reverse direction
        if ((Asteroids[i].x) >= 319 || Asteroids[i].x <= 0)
     568:	e300a13d 	movw	r10, #317	; 0x13d
        {
            Asteroids[i].dx *= -1;
            Asteroids[i].y = rand() % 239;
     56c:	e30c973b 	movw	r9, #51003	; 0xc73b
     570:	e348991a 	movt	r9, #35098	; 0x891a
void update()
{
    for (int i = 0; i < numAsteroids; i++)
    {
        // save the position to erase
        if (pixel_buffer_start == 0xC0000000)
     574:	e59830e8 	ldr	r3, [r8, #232]	; 0xe8
     578:	e3530103 	cmp	r3, #-1073741824	; 0xc0000000
     57c:	1a000005 	bne	598 <update+0x58>
        {
            SDRAM[i].x = Asteroids[i].x;
     580:	e5142008 	ldr	r2, [r4, #-8]
     584:	e1a0300b 	mov	r3, r11
     588:	e7a32007 	str	r2, [r3, r7]!
            SDRAM[i].y = Asteroids[i].y;
     58c:	e5142004 	ldr	r2, [r4, #-4]
     590:	e5832004 	str	r2, [r3, #4]
     594:	ea000006 	b	5b4 <update+0x74>
        }
        else if (pixel_buffer_start == 0xC8000000)
     598:	e59830e8 	ldr	r3, [r8, #232]	; 0xe8
     59c:	e3530332 	cmp	r3, #-939524096	; 0xc8000000
        {
            ONCHIP[i].x = Asteroids[i].x;
     5a0:	05142008 	ldreq	r2, [r4, #-8]
     5a4:	059d3004 	ldreq	r3, [sp, #4]
     5a8:	07a32007 	streq	r2, [r3, r7]!
            ONCHIP[i].y = Asteroids[i].y;
     5ac:	05142004 	ldreq	r2, [r4, #-4]
     5b0:	05832004 	streq	r2, [r3, #4]
    draw_line(x + width, y, x + width, y + length, line_color);
    draw_line(x, y + length, x + width, y + length, line_color);
}

// update movement of boxes
void update()
     5b4:	e1a05004 	mov	r5, r4
            ONCHIP[i].x = Asteroids[i].x;
            ONCHIP[i].y = Asteroids[i].y;
        }

        // if reached right side or left side, reverse direction
        if ((Asteroids[i].x) >= 319 || Asteroids[i].x <= 0)
     5b8:	e5143008 	ldr	r3, [r4, #-8]
     5bc:	e2433001 	sub	r3, r3, #1
     5c0:	e153000a 	cmp	r3, r10
     5c4:	9a00000b 	bls	5f8 <update+0xb8>
        {
            Asteroids[i].dx *= -1;
     5c8:	e5963008 	ldr	r3, [r6, #8]
     5cc:	e2633000 	rsb	r3, r3, #0
     5d0:	e5863008 	str	r3, [r6, #8]
            Asteroids[i].y = rand() % 239;
     5d4:	eb0002e7 	bl	1178 <rand>
     5d8:	e0c32099 	smull	r2, r3, r9, r0
     5dc:	e0833000 	add	r3, r3, r0
     5e0:	e1a02fc0 	asr	r2, r0, #31
     5e4:	e06233c3 	rsb	r3, r2, r3, asr #7
     5e8:	e0632203 	rsb	r2, r3, r3, lsl #4
     5ec:	e0633202 	rsb	r3, r3, r2, lsl #4
     5f0:	e0630000 	rsb	r0, r3, r0
     5f4:	e5040004 	str	r0, [r4, #-4]
        }

        // actually move
        Asteroids[i].x = Asteroids[i].x + Asteroids[i].dx;
     5f8:	e5152008 	ldr	r2, [r5, #-8]
     5fc:	e5963008 	ldr	r3, [r6, #8]
     600:	e0823003 	add	r3, r2, r3
     604:	e5053008 	str	r3, [r5, #-8]
        Asteroids[i].y = Asteroids[i].y + Asteroids[i].dy;
     608:	e5152004 	ldr	r2, [r5, #-4]
     60c:	e596300c 	ldr	r3, [r6, #12]
     610:	e0823003 	add	r3, r2, r3
     614:	e5053004 	str	r3, [r5, #-4]
     618:	e2866010 	add	r6, r6, #16
     61c:	e2844010 	add	r4, r4, #16
     620:	e2877008 	add	r7, r7, #8
}

// update movement of boxes
void update()
{
    for (int i = 0; i < numAsteroids; i++)
     624:	e3570028 	cmp	r7, #40	; 0x28
     628:	1affffd1 	bne	574 <update+0x34>
        // actually move
        Asteroids[i].x = Asteroids[i].x + Asteroids[i].dx;
        Asteroids[i].y = Asteroids[i].y + Asteroids[i].dy;
    }
    // update ship
    if (pixel_buffer_start == 0xC0000000)
     62c:	e30c3d74 	movw	r3, #52596	; 0xcd74
     630:	e3403004 	movt	r3, #4
     634:	e59330e8 	ldr	r3, [r3, #232]	; 0xe8
     638:	e3530103 	cmp	r3, #-1073741824	; 0xc0000000
     63c:	1a00000a 	bne	66c <update+0x12c>
    {
        Ship1SDRAM.x = Ship1.x;
     640:	e30c3d74 	movw	r3, #52596	; 0xcd74
     644:	e3403004 	movt	r3, #4
     648:	e59320a8 	ldr	r2, [r3, #168]	; 0xa8
     64c:	e58320b8 	str	r2, [r3, #184]	; 0xb8
        Ship1SDRAM.y = Ship1.y;
     650:	e59320ac 	ldr	r2, [r3, #172]	; 0xac
     654:	e58320bc 	str	r2, [r3, #188]	; 0xbc
        Ship2SDRAM.x = Ship2.x;
     658:	e59320c8 	ldr	r2, [r3, #200]	; 0xc8
     65c:	e58320d8 	str	r2, [r3, #216]	; 0xd8
        Ship2SDRAM.y = Ship2.y;
     660:	e59320cc 	ldr	r2, [r3, #204]	; 0xcc
     664:	e58320dc 	str	r2, [r3, #220]	; 0xdc
     668:	ea00000e 	b	6a8 <update+0x168>
    }
    else if (pixel_buffer_start == 0xC8000000)
     66c:	e30c3d74 	movw	r3, #52596	; 0xcd74
     670:	e3403004 	movt	r3, #4
     674:	e59330e8 	ldr	r3, [r3, #232]	; 0xe8
     678:	e3530332 	cmp	r3, #-939524096	; 0xc8000000
     67c:	1a000009 	bne	6a8 <update+0x168>
    {
        Ship1ONCHIP.x = Ship1.x;
     680:	e30c3d74 	movw	r3, #52596	; 0xcd74
     684:	e3403004 	movt	r3, #4
     688:	e59320a8 	ldr	r2, [r3, #168]	; 0xa8
     68c:	e58320c0 	str	r2, [r3, #192]	; 0xc0
        Ship1ONCHIP.y = Ship1.y;
     690:	e59320ac 	ldr	r2, [r3, #172]	; 0xac
     694:	e58320c4 	str	r2, [r3, #196]	; 0xc4
        Ship2ONCHIP.x = Ship2.x;
     698:	e59320c8 	ldr	r2, [r3, #200]	; 0xc8
     69c:	e58320e0 	str	r2, [r3, #224]	; 0xe0
        Ship2ONCHIP.y = Ship2.y;
     6a0:	e59320cc 	ldr	r2, [r3, #204]	; 0xcc
     6a4:	e58320e4 	str	r2, [r3, #228]	; 0xe4
    }

    if (Ship1.y <= 0 || Ship1.y + shipLength >= 239)
     6a8:	e30c3d74 	movw	r3, #52596	; 0xcd74
     6ac:	e3403004 	movt	r3, #4
     6b0:	e59330ac 	ldr	r3, [r3, #172]	; 0xac
     6b4:	e3530000 	cmp	r3, #0
     6b8:	da000002 	ble	6c8 <update+0x188>
     6bc:	e2832015 	add	r2, r3, #21
     6c0:	e35200ee 	cmp	r2, #238	; 0xee
     6c4:	da000009 	ble	6f0 <update+0x1b0>
    {
    	if (Ship1.y <=1){
     6c8:	e3530001 	cmp	r3, #1
        	score++;
     6cc:	d30c3d74 	movwle	r3, #52596	; 0xcd74
     6d0:	d3403004 	movtle	r3, #4
     6d4:	d59320ec 	ldrle	r2, [r3, #236]	; 0xec
     6d8:	d2822001 	addle	r2, r2, #1
     6dc:	d58320ec 	strle	r2, [r3, #236]	; 0xec
        }
        Ship1.y = 239 - shipLength - 1;
     6e0:	e30c3d74 	movw	r3, #52596	; 0xcd74
     6e4:	e3403004 	movt	r3, #4
     6e8:	e3a020d9 	mov	r2, #217	; 0xd9
     6ec:	e58320ac 	str	r2, [r3, #172]	; 0xac
    }
    if (Ship2.y <= 0 || Ship2.y + shipLength >= 239)
     6f0:	e30c3d74 	movw	r3, #52596	; 0xcd74
     6f4:	e3403004 	movt	r3, #4
     6f8:	e59330cc 	ldr	r3, [r3, #204]	; 0xcc
     6fc:	e3530000 	cmp	r3, #0
     700:	da000002 	ble	710 <update+0x1d0>
     704:	e2832015 	add	r2, r3, #21
     708:	e35200ee 	cmp	r2, #238	; 0xee
     70c:	da000030 	ble	7d4 <update+0x294>
    {
    	if (Ship2.y <= 1){
     710:	e3530001 	cmp	r3, #1
        	score2++;
     714:	d30c3d74 	movwle	r3, #52596	; 0xcd74
     718:	d3403004 	movtle	r3, #4
     71c:	d59320f0 	ldrle	r2, [r3, #240]	; 0xf0
     720:	d2822001 	addle	r2, r2, #1
     724:	d58320f0 	strle	r2, [r3, #240]	; 0xf0
        }
        Ship2.y = 239 - shipLength - 1;
     728:	e30c3d74 	movw	r3, #52596	; 0xcd74
     72c:	e3403004 	movt	r3, #4
     730:	e3a020d9 	mov	r2, #217	; 0xd9
     734:	e58320cc 	str	r2, [r3, #204]	; 0xcc
     738:	ea000025 	b	7d4 <update+0x294>
    }

    for (int i = 0; i < numAsteroids; ++i)
    {
        if ((Asteroids[i].x <= Ship1.x + shipWidth) && (Asteroids[i].x >= Ship1.x) && (Asteroids[i].y <= Ship1.y + shipLength) && (Asteroids[i].y >= Ship1.y))
     73c:	e2812008 	add	r2, r1, #8
     740:	e7932002 	ldr	r2, [r3, r2]
     744:	e1520005 	cmp	r2, r5
     748:	ca000008 	bgt	770 <update+0x230>
     74c:	e1520007 	cmp	r2, r7
     750:	ba000006 	blt	770 <update+0x230>
    draw_line(x + width, y, x + width, y + length, line_color);
    draw_line(x, y + length, x + width, y + length, line_color);
}

// update movement of boxes
void update()
     754:	e0818003 	add	r8, r1, r3
        Ship2.y = 239 - shipLength - 1;
    }

    for (int i = 0; i < numAsteroids; ++i)
    {
        if ((Asteroids[i].x <= Ship1.x + shipWidth) && (Asteroids[i].x >= Ship1.x) && (Asteroids[i].y <= Ship1.y + shipLength) && (Asteroids[i].y >= Ship1.y))
     758:	e598800c 	ldr	r8, [r8, #12]
     75c:	e28ca015 	add	r10, r12, #21
     760:	e158000a 	cmp	r8, r10
     764:	ca000001 	bgt	770 <update+0x230>
        {
            Ship1.y = 239 - shipLength - 1;
     768:	e158000c 	cmp	r8, r12
     76c:	a3a0c0d9 	movge	r12, #217	; 0xd9
        }

        if ((Asteroids[i].x <= Ship2.x + shipWidth) && (Asteroids[i].x >= Ship2.x) && (Asteroids[i].y <= Ship2.y + shipLength) && (Asteroids[i].y >= Ship2.y))
     770:	e1520004 	cmp	r2, r4
     774:	ca000008 	bgt	79c <update+0x25c>
     778:	e1520006 	cmp	r2, r6
     77c:	ba000006 	blt	79c <update+0x25c>
    draw_line(x + width, y, x + width, y + length, line_color);
    draw_line(x, y + length, x + width, y + length, line_color);
}

// update movement of boxes
void update()
     780:	e0812003 	add	r2, r1, r3
        if ((Asteroids[i].x <= Ship1.x + shipWidth) && (Asteroids[i].x >= Ship1.x) && (Asteroids[i].y <= Ship1.y + shipLength) && (Asteroids[i].y >= Ship1.y))
        {
            Ship1.y = 239 - shipLength - 1;
        }

        if ((Asteroids[i].x <= Ship2.x + shipWidth) && (Asteroids[i].x >= Ship2.x) && (Asteroids[i].y <= Ship2.y + shipLength) && (Asteroids[i].y >= Ship2.y))
     784:	e592200c 	ldr	r2, [r2, #12]
     788:	e2808015 	add	r8, r0, #21
     78c:	e1520008 	cmp	r2, r8
     790:	ca000001 	bgt	79c <update+0x25c>
        {
            Ship2.y = 239 - shipLength - 1;
     794:	e1520000 	cmp	r2, r0
     798:	a3a000d9 	movge	r0, #217	; 0xd9
     79c:	e2833010 	add	r3, r3, #16
        	score2++;
        }
        Ship2.y = 239 - shipLength - 1;
    }

    for (int i = 0; i < numAsteroids; ++i)
     7a0:	e3530050 	cmp	r3, #80	; 0x50
     7a4:	1affffe4 	bne	73c <update+0x1fc>
     7a8:	e30c3d74 	movw	r3, #52596	; 0xcd74
     7ac:	e3403004 	movt	r3, #4
     7b0:	e583c0ac 	str	r12, [r3, #172]	; 0xac
     7b4:	e58300cc 	str	r0, [r3, #204]	; 0xcc
            Ship2.y = 239 - shipLength - 1;
        }
    }

    // actually move the ship
    Ship1.y += Ship1dy;
     7b8:	e5932000 	ldr	r2, [r3]
     7bc:	e08cc002 	add	r12, r12, r2
     7c0:	e583c0ac 	str	r12, [r3, #172]	; 0xac
    Ship2.y += Ship2dy;
     7c4:	e5932004 	ldr	r2, [r3, #4]
     7c8:	e0800002 	add	r0, r0, r2
     7cc:	e58300cc 	str	r0, [r3, #204]	; 0xcc
     7d0:	ea00000b 	b	804 <update+0x2c4>
        Ship2.y = 239 - shipLength - 1;
    }

    for (int i = 0; i < numAsteroids; ++i)
    {
        if ((Asteroids[i].x <= Ship1.x + shipWidth) && (Asteroids[i].x >= Ship1.x) && (Asteroids[i].y <= Ship1.y + shipLength) && (Asteroids[i].y >= Ship1.y))
     7d4:	e30c3d74 	movw	r3, #52596	; 0xcd74
     7d8:	e3403004 	movt	r3, #4
     7dc:	e59370a8 	ldr	r7, [r3, #168]	; 0xa8
     7e0:	e287500b 	add	r5, r7, #11
        {
            Ship1.y = 239 - shipLength - 1;
        }

        if ((Asteroids[i].x <= Ship2.x + shipWidth) && (Asteroids[i].x >= Ship2.x) && (Asteroids[i].y <= Ship2.y + shipLength) && (Asteroids[i].y >= Ship2.y))
     7e4:	e59360c8 	ldr	r6, [r3, #200]	; 0xc8
     7e8:	e286400b 	add	r4, r6, #11
     7ec:	e593c0ac 	ldr	r12, [r3, #172]	; 0xac
     7f0:	e59300cc 	ldr	r0, [r3, #204]	; 0xcc
     7f4:	e3a03000 	mov	r3, #0
        Ship2.y = 239 - shipLength - 1;
    }

    for (int i = 0; i < numAsteroids; ++i)
    {
        if ((Asteroids[i].x <= Ship1.x + shipWidth) && (Asteroids[i].x >= Ship1.x) && (Asteroids[i].y <= Ship1.y + shipLength) && (Asteroids[i].y >= Ship1.y))
     7f8:	e30c1d74 	movw	r1, #52596	; 0xcd74
     7fc:	e3401004 	movt	r1, #4
     800:	eaffffcd 	b	73c <update+0x1fc>
    }

    // actually move the ship
    Ship1.y += Ship1dy;
    Ship2.y += Ship2dy;
}
     804:	e28dd00c 	add	sp, sp, #12
     808:	e8bd8ff0 	pop	{r4, r5, r6, r7, r8, r9, r10, r11, pc}
     80c:	0004cd7c 	.word	0x0004cd7c

00000810 <clear_screen>:

// clears screen by drawing all black
void clear_screen()
{
    for (int i = 0xC8000000; i < 0xC803BE7E; i = i + 2)
     810:	e3a03332 	mov	r3, #-939524096	; 0xc8000000
    {
        *(short int *)(i) = 0x0000;
     814:	e3a01000 	mov	r1, #0
}

// clears screen by drawing all black
void clear_screen()
{
    for (int i = 0xC8000000; i < 0xC803BE7E; i = i + 2)
     818:	e30b2e7e 	movw	r2, #48766	; 0xbe7e
     81c:	e34c2803 	movt	r2, #51203	; 0xc803
    {
        *(short int *)(i) = 0x0000;
     820:	e0c310b2 	strh	r1, [r3], #2
}

// clears screen by drawing all black
void clear_screen()
{
    for (int i = 0xC8000000; i < 0xC803BE7E; i = i + 2)
     824:	e1530002 	cmp	r3, r2
     828:	1afffffc 	bne	820 <clear_screen+0x10>
     82c:	e3a03103 	mov	r3, #-1073741824	; 0xc0000000
        *(short int *)(i) = 0x0000;
    }

    for (int i = 0xC0000000; i < 0xC003BE7E; i = i + 2)
    {
        *(short int *)(i) = 0x0000;
     830:	e3a01000 	mov	r1, #0
    for (int i = 0xC8000000; i < 0xC803BE7E; i = i + 2)
    {
        *(short int *)(i) = 0x0000;
    }

    for (int i = 0xC0000000; i < 0xC003BE7E; i = i + 2)
     834:	e30b2e7e 	movw	r2, #48766	; 0xbe7e
     838:	e34c2003 	movt	r2, #49155	; 0xc003
    {
        *(short int *)(i) = 0x0000;
     83c:	e0c310b2 	strh	r1, [r3], #2
    for (int i = 0xC8000000; i < 0xC803BE7E; i = i + 2)
    {
        *(short int *)(i) = 0x0000;
    }

    for (int i = 0xC0000000; i < 0xC003BE7E; i = i + 2)
     840:	e1530002 	cmp	r3, r2
     844:	1afffffc 	bne	83c <clear_screen+0x2c>
    {
        *(short int *)(i) = 0x0000;
    }
}
     848:	e12fff1e 	bx	lr

0000084c <plot_pixel>:

// plot pixel function (provided)
void plot_pixel(int x, int y, short int line_color)
{
    *(short int *)(pixel_buffer_start + (y << 10) + (x << 1)) = line_color;
     84c:	e30c3d74 	movw	r3, #52596	; 0xcd74
     850:	e3403004 	movt	r3, #4
     854:	e59330e8 	ldr	r3, [r3, #232]	; 0xe8
     858:	e1a00080 	lsl	r0, r0, #1
     85c:	e0831501 	add	r1, r3, r1, lsl #10
     860:	e18120b0 	strh	r2, [r1, r0]
     864:	e12fff1e 	bx	lr

00000868 <clear_ship>:
        Ship1dy = 0;
        Ship2dy = 0;
    }
}

void clear_ship(int x, int y) {
     868:	e92d45f8 	push	{r3, r4, r5, r6, r7, r8, r10, lr}
     86c:	e1a07000 	mov	r7, r0
     870:	e1a0a001 	mov	r10, r1
    //volatile short * pixelbuf = 0xc8000000;
	int i, j;
    for(i = 0; i < 22; i++){
     874:	e3a08000 	mov	r8, #0
        Ship1dy = 0;
        Ship2dy = 0;
    }
}

void clear_ship(int x, int y) {
     878:	e1a05008 	mov	r5, r8
     87c:	ea000009 	b	8a8 <clear_ship+0x40>
    //volatile short * pixelbuf = 0xc8000000;
	int i, j;
    for(i = 0; i < 22; i++){
    	for(j = 0; j < 18; j++){
             //*(pixel_buffer_start + (j<<0) + (i<<9)) = bird[i][j];
			 plot_pixel(x + j, y + i, 0x0000);	
     880:	e0840007 	add	r0, r4, r7
     884:	e1a01006 	mov	r1, r6
     888:	e1a02005 	mov	r2, r5
     88c:	ebffffee 	bl	84c <plot_pixel>

void clear_ship(int x, int y) {
    //volatile short * pixelbuf = 0xc8000000;
	int i, j;
    for(i = 0; i < 22; i++){
    	for(j = 0; j < 18; j++){
     890:	e2844001 	add	r4, r4, #1
     894:	e3540012 	cmp	r4, #18
     898:	1afffff8 	bne	880 <clear_ship+0x18>
}

void clear_ship(int x, int y) {
    //volatile short * pixelbuf = 0xc8000000;
	int i, j;
    for(i = 0; i < 22; i++){
     89c:	e2888001 	add	r8, r8, #1
     8a0:	e3580016 	cmp	r8, #22
     8a4:	08bd85f8 	popeq	{r3, r4, r5, r6, r7, r8, r10, pc}
        Ship1dy = 0;
        Ship2dy = 0;
    }
}

void clear_ship(int x, int y) {
     8a8:	e1a04005 	mov	r4, r5
     8ac:	e088600a 	add	r6, r8, r10
     8b0:	eafffff2 	b	880 <clear_ship+0x18>

000008b4 <clear>:
    Ship2ONCHIP.y = 239 - shipLength - 1;
}

// override the previous lines with black, depending on which was the previous buffer
void clear()
{
     8b4:	e92d40f8 	push	{r3, r4, r5, r6, r7, lr}
    // if start buffer is SDRAM
    if (pixel_buffer_start == 0xC0000000)
     8b8:	e30c3d74 	movw	r3, #52596	; 0xcd74
     8bc:	e3403004 	movt	r3, #4
     8c0:	e59330e8 	ldr	r3, [r3, #232]	; 0xe8
     8c4:	e3530103 	cmp	r3, #-1073741824	; 0xc0000000
     8c8:	1a000023 	bne	95c <clear+0xa8>
     8cc:	e3a04000 	mov	r4, #0
    Ship2ONCHIP.x = 319 * 3 / 4 - shipWidth / 2;
    Ship2ONCHIP.y = 239 - shipLength - 1;
}

// override the previous lines with black, depending on which was the previous buffer
void clear()
     8d0:	e59f5128 	ldr	r5, [pc, #296]	; a00 <clear+0x14c>
    // if start buffer is SDRAM
    if (pixel_buffer_start == 0xC0000000)
    {
        for (int i = 0; i < numAsteroids; i++)
        {
            plot_pixel(SDRAM[i].x, SDRAM[i].y, 0x0000);
     8d4:	e1a07004 	mov	r7, r4
    Ship2ONCHIP.x = 319 * 3 / 4 - shipWidth / 2;
    Ship2ONCHIP.y = 239 - shipLength - 1;
}

// override the previous lines with black, depending on which was the previous buffer
void clear()
     8d8:	e0856004 	add	r6, r5, r4
    // if start buffer is SDRAM
    if (pixel_buffer_start == 0xC0000000)
    {
        for (int i = 0; i < numAsteroids; i++)
        {
            plot_pixel(SDRAM[i].x, SDRAM[i].y, 0x0000);
     8dc:	e7950004 	ldr	r0, [r5, r4]
     8e0:	e5961004 	ldr	r1, [r6, #4]
     8e4:	e1a02007 	mov	r2, r7
     8e8:	ebffffd7 	bl	84c <plot_pixel>
            plot_pixel(SDRAM[i].x + 1, SDRAM[i].y, 0x0000);
     8ec:	e7940005 	ldr	r0, [r4, r5]
     8f0:	e2800001 	add	r0, r0, #1
     8f4:	e5961004 	ldr	r1, [r6, #4]
     8f8:	e1a02007 	mov	r2, r7
     8fc:	ebffffd2 	bl	84c <plot_pixel>
            plot_pixel(SDRAM[i].x, SDRAM[i].y + 1, 0x0000);
     900:	e5961004 	ldr	r1, [r6, #4]
     904:	e7950004 	ldr	r0, [r5, r4]
     908:	e2811001 	add	r1, r1, #1
     90c:	e1a02007 	mov	r2, r7
     910:	ebffffcd 	bl	84c <plot_pixel>
            plot_pixel(SDRAM[i].x + 1, SDRAM[i].y + 1, 0x0000);
     914:	e7940005 	ldr	r0, [r4, r5]
     918:	e5961004 	ldr	r1, [r6, #4]
     91c:	e2800001 	add	r0, r0, #1
     920:	e2811001 	add	r1, r1, #1
     924:	e1a02007 	mov	r2, r7
     928:	ebffffc7 	bl	84c <plot_pixel>
     92c:	e2844008 	add	r4, r4, #8
void clear()
{
    // if start buffer is SDRAM
    if (pixel_buffer_start == 0xC0000000)
    {
        for (int i = 0; i < numAsteroids; i++)
     930:	e3540028 	cmp	r4, #40	; 0x28
     934:	1affffe7 	bne	8d8 <clear+0x24>
            plot_pixel(SDRAM[i].x + 1, SDRAM[i].y, 0x0000);
            plot_pixel(SDRAM[i].x, SDRAM[i].y + 1, 0x0000);
            plot_pixel(SDRAM[i].x + 1, SDRAM[i].y + 1, 0x0000);
        }

        clear_ship(Ship1SDRAM.x, Ship1SDRAM.y);
     938:	e30c4d74 	movw	r4, #52596	; 0xcd74
     93c:	e3404004 	movt	r4, #4
     940:	e59400b8 	ldr	r0, [r4, #184]	; 0xb8
     944:	e59410bc 	ldr	r1, [r4, #188]	; 0xbc
     948:	ebffffc6 	bl	868 <clear_ship>
        clear_ship(Ship2SDRAM.x, Ship2SDRAM.y);
     94c:	e59400d8 	ldr	r0, [r4, #216]	; 0xd8
     950:	e59410dc 	ldr	r1, [r4, #220]	; 0xdc
     954:	ebffffc3 	bl	868 <clear_ship>
     958:	e8bd80f8 	pop	{r3, r4, r5, r6, r7, pc}
    }
    // if start buffer is On chip memory
    else if (pixel_buffer_start == 0xC8000000)
     95c:	e30c3d74 	movw	r3, #52596	; 0xcd74
     960:	e3403004 	movt	r3, #4
     964:	e59330e8 	ldr	r3, [r3, #232]	; 0xe8
     968:	e3530332 	cmp	r3, #-939524096	; 0xc8000000
     96c:	18bd80f8 	popne	{r3, r4, r5, r6, r7, pc}
     970:	e3a04000 	mov	r4, #0
    Ship2ONCHIP.x = 319 * 3 / 4 - shipWidth / 2;
    Ship2ONCHIP.y = 239 - shipLength - 1;
}

// override the previous lines with black, depending on which was the previous buffer
void clear()
     974:	e59f5088 	ldr	r5, [pc, #136]	; a04 <clear+0x150>
    // if start buffer is On chip memory
    else if (pixel_buffer_start == 0xC8000000)
    {
        for (int i = 0; i < numAsteroids; i++)
        {
            plot_pixel(ONCHIP[i].x, ONCHIP[i].y, 0x0000);
     978:	e1a07004 	mov	r7, r4
    Ship2ONCHIP.x = 319 * 3 / 4 - shipWidth / 2;
    Ship2ONCHIP.y = 239 - shipLength - 1;
}

// override the previous lines with black, depending on which was the previous buffer
void clear()
     97c:	e0856004 	add	r6, r5, r4
    // if start buffer is On chip memory
    else if (pixel_buffer_start == 0xC8000000)
    {
        for (int i = 0; i < numAsteroids; i++)
        {
            plot_pixel(ONCHIP[i].x, ONCHIP[i].y, 0x0000);
     980:	e7950004 	ldr	r0, [r5, r4]
     984:	e5961004 	ldr	r1, [r6, #4]
     988:	e1a02007 	mov	r2, r7
     98c:	ebffffae 	bl	84c <plot_pixel>
            plot_pixel(ONCHIP[i].x + 1, ONCHIP[i].y, 0x0000);
     990:	e7940005 	ldr	r0, [r4, r5]
     994:	e2800001 	add	r0, r0, #1
     998:	e5961004 	ldr	r1, [r6, #4]
     99c:	e1a02007 	mov	r2, r7
     9a0:	ebffffa9 	bl	84c <plot_pixel>
            plot_pixel(ONCHIP[i].x, ONCHIP[i].y + 1, 0x0000);
     9a4:	e5961004 	ldr	r1, [r6, #4]
     9a8:	e7950004 	ldr	r0, [r5, r4]
     9ac:	e2811001 	add	r1, r1, #1
     9b0:	e1a02007 	mov	r2, r7
     9b4:	ebffffa4 	bl	84c <plot_pixel>
            plot_pixel(ONCHIP[i].x + 1, ONCHIP[i].y + 1, 0x0000);
     9b8:	e7940005 	ldr	r0, [r4, r5]
     9bc:	e5961004 	ldr	r1, [r6, #4]
     9c0:	e2800001 	add	r0, r0, #1
     9c4:	e2811001 	add	r1, r1, #1
     9c8:	e1a02007 	mov	r2, r7
     9cc:	ebffff9e 	bl	84c <plot_pixel>
     9d0:	e2844008 	add	r4, r4, #8
        clear_ship(Ship2SDRAM.x, Ship2SDRAM.y);
    }
    // if start buffer is On chip memory
    else if (pixel_buffer_start == 0xC8000000)
    {
        for (int i = 0; i < numAsteroids; i++)
     9d4:	e3540028 	cmp	r4, #40	; 0x28
     9d8:	1affffe7 	bne	97c <clear+0xc8>
            plot_pixel(ONCHIP[i].x, ONCHIP[i].y, 0x0000);
            plot_pixel(ONCHIP[i].x + 1, ONCHIP[i].y, 0x0000);
            plot_pixel(ONCHIP[i].x, ONCHIP[i].y + 1, 0x0000);
            plot_pixel(ONCHIP[i].x + 1, ONCHIP[i].y + 1, 0x0000);
        }
        clear_ship(Ship1ONCHIP.x, Ship1ONCHIP.y);
     9dc:	e30c4d74 	movw	r4, #52596	; 0xcd74
     9e0:	e3404004 	movt	r4, #4
     9e4:	e59400c0 	ldr	r0, [r4, #192]	; 0xc0
     9e8:	e59410c4 	ldr	r1, [r4, #196]	; 0xc4
     9ec:	ebffff9d 	bl	868 <clear_ship>
        clear_ship(Ship2ONCHIP.x, Ship2ONCHIP.y);
     9f0:	e59400e0 	ldr	r0, [r4, #224]	; 0xe0
     9f4:	e59410e4 	ldr	r1, [r4, #228]	; 0xe4
     9f8:	ebffff9a 	bl	868 <clear_ship>
     9fc:	e8bd80f8 	pop	{r3, r4, r5, r6, r7, pc}
     a00:	0004cdf4 	.word	0x0004cdf4
     a04:	0004cdcc 	.word	0x0004cdcc

00000a08 <draw_ship>:
    return 1;
}



void draw_ship(int x, int y) {
     a08:	e92d4ff8 	push	{r3, r4, r5, r6, r7, r8, r9, r10, r11, lr}
     a0c:	e1a0b000 	mov	r11, r0
     a10:	e1a09001 	mov	r9, r1
     a14:	e59f6050 	ldr	r6, [pc, #80]	; a6c <draw_ship+0x64>
    //volatile short * pixelbuf = 0xc8000000;
	int i, j;
    for(i = 0; i < 22; i++){
     a18:	e3a08000 	mov	r8, #0
    return 1;
}



void draw_ship(int x, int y) {
     a1c:	e30ca5a0 	movw	r10, #50592	; 0xc5a0
     a20:	e340a004 	movt	r10, #4
     a24:	ea00000a 	b	a54 <draw_ship+0x4c>
    //volatile short * pixelbuf = 0xc8000000;
	int i, j;
    for(i = 0; i < 22; i++){
    	for(j = 0; j < 18; j++){
			 plot_pixel(x + j, y + i,ship[i][j]);	
     a28:	e1a00004 	mov	r0, r4
     a2c:	e1a01007 	mov	r1, r7
     a30:	e1f520f2 	ldrsh	r2, [r5, #2]!
     a34:	ebffff84 	bl	84c <plot_pixel>
     a38:	e2844001 	add	r4, r4, #1

void draw_ship(int x, int y) {
    //volatile short * pixelbuf = 0xc8000000;
	int i, j;
    for(i = 0; i < 22; i++){
    	for(j = 0; j < 18; j++){
     a3c:	e1560005 	cmp	r6, r5
     a40:	1afffff8 	bne	a28 <draw_ship+0x20>


void draw_ship(int x, int y) {
    //volatile short * pixelbuf = 0xc8000000;
	int i, j;
    for(i = 0; i < 22; i++){
     a44:	e2888001 	add	r8, r8, #1
     a48:	e2866024 	add	r6, r6, #36	; 0x24
     a4c:	e3580016 	cmp	r8, #22
     a50:	08bd8ff8 	popeq	{r3, r4, r5, r6, r7, r8, r9, r10, r11, pc}
    return 1;
}



void draw_ship(int x, int y) {
     a54:	e0885188 	add	r5, r8, r8, lsl #3
     a58:	e08a5105 	add	r5, r10, r5, lsl #2
     a5c:	e2455002 	sub	r5, r5, #2
     a60:	e1a0400b 	mov	r4, r11
     a64:	e0887009 	add	r7, r8, r9
     a68:	eaffffee 	b	a28 <draw_ship+0x20>
     a6c:	0004c5c2 	.word	0x0004c5c2

00000a70 <wait_for_sync>:
void wait_for_sync()
{
    volatile int *pixel_ctrl_ptr = 0xFF203020;
    register int status;

    *pixel_ctrl_ptr = 1;
     a70:	e3033fff 	movw	r3, #16383	; 0x3fff
     a74:	e34f3f20 	movt	r3, #65312	; 0xff20
     a78:	e3a02001 	mov	r2, #1
     a7c:	e5032fdf 	str	r2, [r3, #-4063]	; 0xfffff021

    status = *(pixel_ctrl_ptr + 3);
     a80:	e5133fd3 	ldr	r3, [r3, #-4051]	; 0xfffff02d
    while ((status & 0x01) != 0)
     a84:	e3130001 	tst	r3, #1
     a88:	012fff1e 	bxeq	lr
    {
        status = *(pixel_ctrl_ptr + 3);
     a8c:	e3032fff 	movw	r2, #16383	; 0x3fff
     a90:	e34f2f20 	movt	r2, #65312	; 0xff20
     a94:	e5123fd3 	ldr	r3, [r2, #-4051]	; 0xfffff02d
    register int status;

    *pixel_ctrl_ptr = 1;

    status = *(pixel_ctrl_ptr + 3);
    while ((status & 0x01) != 0)
     a98:	e3130001 	tst	r3, #1
     a9c:	1afffffc 	bne	a94 <wait_for_sync+0x24>
     aa0:	e12fff1e 	bx	lr

00000aa4 <wait_for_vsync>:
void wait_for_vsync()
{
    volatile int *pixel_ctrl_ptr = 0xFF203020;
    register int status;

    *pixel_ctrl_ptr = 1;
     aa4:	e3033fff 	movw	r3, #16383	; 0x3fff
     aa8:	e34f3f20 	movt	r3, #65312	; 0xff20
     aac:	e3a02001 	mov	r2, #1
     ab0:	e5032fdf 	str	r2, [r3, #-4063]	; 0xfffff021

    status = *(pixel_ctrl_ptr + 3);
     ab4:	e5133fd3 	ldr	r3, [r3, #-4051]	; 0xfffff02d
    while ((status & 0x01) != 0)
     ab8:	e3130001 	tst	r3, #1
     abc:	012fff1e 	bxeq	lr
    {
        status = *(pixel_ctrl_ptr + 3);
     ac0:	e3032fff 	movw	r2, #16383	; 0x3fff
     ac4:	e34f2f20 	movt	r2, #65312	; 0xff20
     ac8:	e5123fd3 	ldr	r3, [r2, #-4051]	; 0xfffff02d
    register int status;

    *pixel_ctrl_ptr = 1;

    status = *(pixel_ctrl_ptr + 3);
    while ((status & 0x01) != 0)
     acc:	e3130001 	tst	r3, #1
     ad0:	1afffffc 	bne	ac8 <wait_for_vsync+0x24>
     ad4:	e12fff1e 	bx	lr

00000ad8 <load_title>:
        for (j=0; j<320; j++)
        //*(pixelbuf + (j<<0) + (i<<9)) = gameOver[i][j];
		plot_pixel(j, i, gameOver[i][j]);
}

void load_title() {
     ad8:	e92d41f0 	push	{r4, r5, r6, r7, r8, lr}
	
    volatile short * pixelbuf = 0xc8000000;
    int i, j;
    for (i=0; i<240; i++) 
     adc:	e3a06000 	mov	r6, #0
        for (j=0; j<320; j++)
        //*(pixelbuf + (j<<0) + (i<<9)) = gameOver[i][j];
		plot_pixel(j, i, gameOver[i][j]);
}

void load_title() {
     ae0:	e3067da0 	movw	r7, #28064	; 0x6da0
     ae4:	e3407002 	movt	r7, #2
     ae8:	e1a08006 	mov	r8, r6
     aec:	ea000009 	b	b18 <load_title+0x40>
    volatile short * pixelbuf = 0xc8000000;
    int i, j;
    for (i=0; i<240; i++) 
        for (j=0; j<320; j++)
        //*(pixelbuf + (j<<0) + (i<<9)) = gameOver[i][j];
		plot_pixel(j, i, title[i][j]);
     af0:	e1a00004 	mov	r0, r4
     af4:	e1a01006 	mov	r1, r6
     af8:	e1f520f2 	ldrsh	r2, [r5, #2]!
     afc:	ebffff52 	bl	84c <plot_pixel>
void load_title() {
	
    volatile short * pixelbuf = 0xc8000000;
    int i, j;
    for (i=0; i<240; i++) 
        for (j=0; j<320; j++)
     b00:	e2844001 	add	r4, r4, #1
     b04:	e3540d05 	cmp	r4, #320	; 0x140
     b08:	1afffff8 	bne	af0 <load_title+0x18>

void load_title() {
	
    volatile short * pixelbuf = 0xc8000000;
    int i, j;
    for (i=0; i<240; i++) 
     b0c:	e2866001 	add	r6, r6, #1
     b10:	e35600f0 	cmp	r6, #240	; 0xf0
     b14:	0a000004 	beq	b2c <load_title+0x54>
        for (j=0; j<320; j++)
        //*(pixelbuf + (j<<0) + (i<<9)) = gameOver[i][j];
		plot_pixel(j, i, gameOver[i][j]);
}

void load_title() {
     b18:	e0865106 	add	r5, r6, r6, lsl #2
     b1c:	e0875385 	add	r5, r7, r5, lsl #7
     b20:	e2455002 	sub	r5, r5, #2
     b24:	e1a04008 	mov	r4, r8
     b28:	eafffff0 	b	af0 <load_title+0x18>
    int i, j;
    for (i=0; i<240; i++) 
        for (j=0; j<320; j++)
        //*(pixelbuf + (j<<0) + (i<<9)) = gameOver[i][j];
		plot_pixel(j, i, title[i][j]);
	wait_for_vsync(); // swap front and back buffers on VGA vertical sync
     b2c:	ebffffdc 	bl	aa4 <wait_for_vsync>
    pixel_buffer_start = *(pixel_ctrl_ptr + 1); // new back buffer
     b30:	e30c3918 	movw	r3, #51480	; 0xc918
     b34:	e3403004 	movt	r3, #4
     b38:	e5933000 	ldr	r3, [r3]
     b3c:	e5932004 	ldr	r2, [r3, #4]
     b40:	e30c3d74 	movw	r3, #52596	; 0xcd74
     b44:	e3403004 	movt	r3, #4
     b48:	e58320e8 	str	r2, [r3, #232]	; 0xe8
     b4c:	e8bd81f0 	pop	{r4, r5, r6, r7, r8, pc}

00000b50 <game_over_loop>:
			 plot_pixel(x + j, y + i,ship[i][j]);	
        }
    }
}

void game_over_loop () {
     b50:	e92d41f0 	push	{r4, r5, r6, r7, r8, lr}

	wait_for_vsync();
     b54:	ebffffd2 	bl	aa4 <wait_for_vsync>
    volatile short * pixelbuf = 0xc8000000;
    int i, j;
    for (i=0; i<240; i++) 
     b58:	e3a06000 	mov	r6, #0
			 plot_pixel(x + j, y + i,ship[i][j]);	
        }
    }
}

void game_over_loop () {
     b5c:	e30175a0 	movw	r7, #5536	; 0x15a0
     b60:	e3407000 	movt	r7, #0
     b64:	e1a08006 	mov	r8, r6
     b68:	ea000009 	b	b94 <game_over_loop+0x44>
    volatile short * pixelbuf = 0xc8000000;
    int i, j;
    for (i=0; i<240; i++) 
        for (j=0; j<320; j++)
        //*(pixelbuf + (j<<0) + (i<<9)) = gameOver[i][j];
		plot_pixel(j, i, gameOver[i][j]);
     b6c:	e1a00004 	mov	r0, r4
     b70:	e1a01006 	mov	r1, r6
     b74:	e1f520f2 	ldrsh	r2, [r5, #2]!
     b78:	ebffff33 	bl	84c <plot_pixel>

	wait_for_vsync();
    volatile short * pixelbuf = 0xc8000000;
    int i, j;
    for (i=0; i<240; i++) 
        for (j=0; j<320; j++)
     b7c:	e2844001 	add	r4, r4, #1
     b80:	e3540d05 	cmp	r4, #320	; 0x140
     b84:	1afffff8 	bne	b6c <game_over_loop+0x1c>
void game_over_loop () {

	wait_for_vsync();
    volatile short * pixelbuf = 0xc8000000;
    int i, j;
    for (i=0; i<240; i++) 
     b88:	e2866001 	add	r6, r6, #1
     b8c:	e35600f0 	cmp	r6, #240	; 0xf0
     b90:	08bd81f0 	popeq	{r4, r5, r6, r7, r8, pc}
			 plot_pixel(x + j, y + i,ship[i][j]);	
        }
    }
}

void game_over_loop () {
     b94:	e0865106 	add	r5, r6, r6, lsl #2
     b98:	e0875385 	add	r5, r7, r5, lsl #7
     b9c:	e2455002 	sub	r5, r5, #2
     ba0:	e1a04008 	mov	r4, r8
     ba4:	eafffff0 	b	b6c <game_over_loop+0x1c>

00000ba8 <swap>:
    }
}

void swap(int *x, int *y)
{
    int temp = *x;
     ba8:	e5903000 	ldr	r3, [r0]
    *x = *y;
     bac:	e5912000 	ldr	r2, [r1]
     bb0:	e5802000 	str	r2, [r0]
    *y = temp;
     bb4:	e5813000 	str	r3, [r1]
     bb8:	e12fff1e 	bx	lr

00000bbc <draw_line>:
    }
    return;
}

void draw_line(int x0, int y0, int x1, int y1, short int line_color)
{
     bbc:	e92d4ff0 	push	{r4, r5, r6, r7, r8, r9, r10, r11, lr}
     bc0:	e24dd014 	sub	sp, sp, #20
     bc4:	e58d000c 	str	r0, [sp, #12]
     bc8:	e58d1008 	str	r1, [sp, #8]
     bcc:	e58d2004 	str	r2, [sp, #4]
     bd0:	e58d3000 	str	r3, [sp]
     bd4:	e1dda3f8 	ldrsh	r10, [sp, #56]	; 0x38
    bool is_steep = abs(y1 - y0) > abs(x1 - x0);
     bd8:	e0613003 	rsb	r3, r1, r3
     bdc:	e3530000 	cmp	r3, #0
     be0:	b2633000 	rsblt	r3, r3, #0
     be4:	e0602002 	rsb	r2, r0, r2
     be8:	e0228fc2 	eor	r8, r2, r2, asr #31
     bec:	e0488fc2 	sub	r8, r8, r2, asr #31
     bf0:	e1530008 	cmp	r3, r8
     bf4:	d3a08000 	movle	r8, #0
     bf8:	c3a08001 	movgt	r8, #1

    if (is_steep)
     bfc:	e3580000 	cmp	r8, #0
     c00:	0a000005 	beq	c1c <draw_line+0x60>
    {
        swap(&x0, &y0);
     c04:	e28d000c 	add	r0, sp, #12
     c08:	e28d1008 	add	r1, sp, #8
     c0c:	ebffffe5 	bl	ba8 <swap>
        swap(&x1, &y1);
     c10:	e28d0004 	add	r0, sp, #4
     c14:	e1a0100d 	mov	r1, sp
     c18:	ebffffe2 	bl	ba8 <swap>
    }
    if (x0 > x1)
     c1c:	e59d3004 	ldr	r3, [sp, #4]
     c20:	e59d200c 	ldr	r2, [sp, #12]
     c24:	e1520003 	cmp	r2, r3
     c28:	da000005 	ble	c44 <draw_line+0x88>
    {
        swap(&x0, &x1);
     c2c:	e28d000c 	add	r0, sp, #12
     c30:	e28d1004 	add	r1, sp, #4
     c34:	ebffffdb 	bl	ba8 <swap>
        swap(&y0, &y1);
     c38:	e28d0008 	add	r0, sp, #8
     c3c:	e1a0100d 	mov	r1, sp
     c40:	ebffffd8 	bl	ba8 <swap>
    }

    int deltax = x1 - x0;
     c44:	e59d3004 	ldr	r3, [sp, #4]
     c48:	e59d500c 	ldr	r5, [sp, #12]
     c4c:	e0659003 	rsb	r9, r5, r3
    int deltay = abs(y1 - y0);
     c50:	e59d2000 	ldr	r2, [sp]
     c54:	e59d6008 	ldr	r6, [sp, #8]
     c58:	e0667002 	rsb	r7, r6, r2
     c5c:	e3570000 	cmp	r7, #0
     c60:	b2677000 	rsblt	r7, r7, #0
    int error = -(deltax / 2);
     c64:	e0894fa9 	add	r4, r9, r9, lsr #31
     c68:	e1a040c4 	asr	r4, r4, #1
     c6c:	e2644000 	rsb	r4, r4, #0
    int y = y0;
    int y_step;

    if (y0 < y1)
    {
        y_step = 1;
     c70:	e1520006 	cmp	r2, r6
     c74:	d3e0b000 	mvnle	r11, #0
     c78:	c3a0b001 	movgt	r11, #1
    else
    {
        y_step = -1;
    }

    for (int x = x0; x < x1; ++x)
     c7c:	e1530005 	cmp	r3, r5
     c80:	da00000d 	ble	cbc <draw_line+0x100>
    {
        if (is_steep)
     c84:	e3580000 	cmp	r8, #0
        {
            plot_pixel(y, x, line_color);
     c88:	11a00006 	movne	r0, r6
     c8c:	11a01005 	movne	r1, r5
        }
        else
        {
            plot_pixel(x, y, line_color);
     c90:	01a00005 	moveq	r0, r5
     c94:	01a01006 	moveq	r1, r6
     c98:	e1a0200a 	mov	r2, r10
     c9c:	ebfffeea 	bl	84c <plot_pixel>
        }
        error = error + deltay;
        if (error >= 0)
     ca0:	e0944007 	adds	r4, r4, r7
        {
            y = y + y_step;
     ca4:	5086600b 	addpl	r6, r6, r11
            error = error - deltax;
     ca8:	50694004 	rsbpl	r4, r9, r4
    else
    {
        y_step = -1;
    }

    for (int x = x0; x < x1; ++x)
     cac:	e2855001 	add	r5, r5, #1
     cb0:	e59d3004 	ldr	r3, [sp, #4]
     cb4:	e1530005 	cmp	r3, r5
     cb8:	cafffff1 	bgt	c84 <draw_line+0xc8>
        {
            y = y + y_step;
            error = error - deltax;
        }
    }
}
     cbc:	e28dd014 	add	sp, sp, #20
     cc0:	e8bd8ff0 	pop	{r4, r5, r6, r7, r8, r9, r10, r11, pc}

00000cc4 <drawSquare>:
    draw_ship(Ship1.x, Ship1.y);
    draw_ship(Ship2.x, Ship2.y);
}

void drawSquare(int x, int y, int length, int width, short int line_color)
{
     cc4:	e92d41f0 	push	{r4, r5, r6, r7, r8, lr}
     cc8:	e24dd008 	sub	sp, sp, #8
     ccc:	e1a06000 	mov	r6, r0
     cd0:	e1a08001 	mov	r8, r1
     cd4:	e1a04002 	mov	r4, r2
     cd8:	e1dd72f0 	ldrsh	r7, [sp, #32]
    draw_line(x, y, x + width, y, line_color);
     cdc:	e0805003 	add	r5, r0, r3
     ce0:	e58d7000 	str	r7, [sp]
     ce4:	e1a02005 	mov	r2, r5
     ce8:	e1a03001 	mov	r3, r1
     cec:	ebffffb2 	bl	bbc <draw_line>
    draw_line(x, y, x, y + length, line_color);
     cf0:	e0884004 	add	r4, r8, r4
     cf4:	e58d7000 	str	r7, [sp]
     cf8:	e1a00006 	mov	r0, r6
     cfc:	e1a01008 	mov	r1, r8
     d00:	e1a02006 	mov	r2, r6
     d04:	e1a03004 	mov	r3, r4
     d08:	ebffffab 	bl	bbc <draw_line>
    draw_line(x + width, y, x + width, y + length, line_color);
     d0c:	e58d7000 	str	r7, [sp]
     d10:	e1a00005 	mov	r0, r5
     d14:	e1a01008 	mov	r1, r8
     d18:	e1a02005 	mov	r2, r5
     d1c:	e1a03004 	mov	r3, r4
     d20:	ebffffa5 	bl	bbc <draw_line>
    draw_line(x, y + length, x + width, y + length, line_color);
     d24:	e58d7000 	str	r7, [sp]
     d28:	e1a00006 	mov	r0, r6
     d2c:	e1a01004 	mov	r1, r4
     d30:	e1a02005 	mov	r2, r5
     d34:	e1a03004 	mov	r3, r4
     d38:	ebffff9f 	bl	bbc <draw_line>
}
     d3c:	e28dd008 	add	sp, sp, #8
     d40:	e8bd81f0 	pop	{r4, r5, r6, r7, r8, pc}

00000d44 <draw>:
    }
}

// code for subroutines (not shown)
void draw()
{
     d44:	e92d40f0 	push	{r4, r5, r6, r7, lr}
     d48:	e24dd00c 	sub	sp, sp, #12
     d4c:	e3a04000 	mov	r4, #0
        clear_ship(Ship2ONCHIP.x, Ship2ONCHIP.y);
    }
}

// code for subroutines (not shown)
void draw()
     d50:	e59f50bc 	ldr	r5, [pc, #188]	; e14 <draw+0xd0>

    // draw asteroids
    for (int i = 0; i < numAsteroids; i++)
    {
        // drawing rectangles
        plot_pixel(Asteroids[i].x, Asteroids[i].y, 0xFFFF);
     d54:	e3e07000 	mvn	r7, #0
        clear_ship(Ship2ONCHIP.x, Ship2ONCHIP.y);
    }
}

// code for subroutines (not shown)
void draw()
     d58:	e0856004 	add	r6, r5, r4

    // draw asteroids
    for (int i = 0; i < numAsteroids; i++)
    {
        // drawing rectangles
        plot_pixel(Asteroids[i].x, Asteroids[i].y, 0xFFFF);
     d5c:	e7950004 	ldr	r0, [r5, r4]
     d60:	e5961004 	ldr	r1, [r6, #4]
     d64:	e1a02007 	mov	r2, r7
     d68:	ebfffeb7 	bl	84c <plot_pixel>
        plot_pixel(Asteroids[i].x + 1, Asteroids[i].y, 0xFFFF);
     d6c:	e7940005 	ldr	r0, [r4, r5]
     d70:	e2800001 	add	r0, r0, #1
     d74:	e5961004 	ldr	r1, [r6, #4]
     d78:	e1a02007 	mov	r2, r7
     d7c:	ebfffeb2 	bl	84c <plot_pixel>
        plot_pixel(Asteroids[i].x, Asteroids[i].y + 1, 0xFFFF);
     d80:	e5961004 	ldr	r1, [r6, #4]
     d84:	e7950004 	ldr	r0, [r5, r4]
     d88:	e2811001 	add	r1, r1, #1
     d8c:	e1a02007 	mov	r2, r7
     d90:	ebfffead 	bl	84c <plot_pixel>
        plot_pixel(Asteroids[i].x + 1, Asteroids[i].y + 1, 0xFFFF);
     d94:	e7940005 	ldr	r0, [r4, r5]
     d98:	e5961004 	ldr	r1, [r6, #4]
     d9c:	e2800001 	add	r0, r0, #1
     da0:	e2811001 	add	r1, r1, #1
     da4:	e1a02007 	mov	r2, r7
     da8:	ebfffea7 	bl	84c <plot_pixel>
     dac:	e2844010 	add	r4, r4, #16
// code for subroutines (not shown)
void draw()
{

    // draw asteroids
    for (int i = 0; i < numAsteroids; i++)
     db0:	e3540050 	cmp	r4, #80	; 0x50
     db4:	1affffe7 	bne	d58 <draw+0x14>
        plot_pixel(Asteroids[i].x, Asteroids[i].y + 1, 0xFFFF);
        plot_pixel(Asteroids[i].x + 1, Asteroids[i].y + 1, 0xFFFF);
    }

    // draw ship
    drawSquare(Ship1.x, Ship1.y, shipLength, shipWidth, 0xFFFF);
     db8:	e30c4d74 	movw	r4, #52596	; 0xcd74
     dbc:	e3404004 	movt	r4, #4
     dc0:	e59400a8 	ldr	r0, [r4, #168]	; 0xa8
     dc4:	e59410ac 	ldr	r1, [r4, #172]	; 0xac
     dc8:	e3e05000 	mvn	r5, #0
     dcc:	e58d5000 	str	r5, [sp]
     dd0:	e3a02015 	mov	r2, #21
     dd4:	e3a0300b 	mov	r3, #11
     dd8:	ebffffb9 	bl	cc4 <drawSquare>
    drawSquare(Ship2.x, Ship2.y, shipLength, shipWidth, 0xFFFF);
     ddc:	e59400c8 	ldr	r0, [r4, #200]	; 0xc8
     de0:	e59410cc 	ldr	r1, [r4, #204]	; 0xcc
     de4:	e58d5000 	str	r5, [sp]
     de8:	e3a02015 	mov	r2, #21
     dec:	e3a0300b 	mov	r3, #11
     df0:	ebffffb3 	bl	cc4 <drawSquare>
    
    draw_ship(Ship1.x, Ship1.y);
     df4:	e59400a8 	ldr	r0, [r4, #168]	; 0xa8
     df8:	e59410ac 	ldr	r1, [r4, #172]	; 0xac
     dfc:	ebffff01 	bl	a08 <draw_ship>
    draw_ship(Ship2.x, Ship2.y);
     e00:	e59400c8 	ldr	r0, [r4, #200]	; 0xc8
     e04:	e59410cc 	ldr	r1, [r4, #204]	; 0xcc
     e08:	ebfffefe 	bl	a08 <draw_ship>
}
     e0c:	e28dd00c 	add	sp, sp, #12
     e10:	e8bd80f0 	pop	{r4, r5, r6, r7, pc}
     e14:	0004cd7c 	.word	0x0004cd7c

00000e18 <config_KEYs>:


/* setup the KEY interrupts in the FPGA */
void config_KEYs() {
volatile int * KEY_ptr = (int *) 0xFF200050; // pushbutton KEY base address
*(KEY_ptr + 2) = 0xF; // enable interrupts for the two KEYs
     e18:	e3a03000 	mov	r3, #0
     e1c:	e34f3f20 	movt	r3, #65312	; 0xff20
     e20:	e3a0200f 	mov	r2, #15
     e24:	e5832058 	str	r2, [r3, #88]	; 0x58
     e28:	e12fff1e 	bx	lr

00000e2c <__cs3_reset>:
	// Write to the End of Interrupt Register (ICCEOIR)
	*((int *)0xFFFEC110) = interrupt_ID;
}

// Define the remaining exception handlers
void __attribute__((interrupt)) __cs3_reset(void) {
     e2c:	eafffffe 	b	e2c <__cs3_reset>

00000e30 <__cs3_isr_undef>:
while (1);
}
void __attribute__((interrupt)) __cs3_isr_undef(void) {
     e30:	eafffffe 	b	e30 <__cs3_isr_undef>

00000e34 <__cs3_isr_swi>:
while (1);
}
void __attribute__((interrupt)) __cs3_isr_swi(void) {
     e34:	eafffffe 	b	e34 <__cs3_isr_swi>

00000e38 <__cs3_isr_pabort>:
while (1);
}
void __attribute__((interrupt)) __cs3_isr_pabort(void) {
     e38:	eafffffe 	b	e38 <__cs3_isr_pabort>

00000e3c <__cs3_isr_dabort>:
while (1);
}
void __attribute__((interrupt)) __cs3_isr_dabort(void) {
     e3c:	eafffffe 	b	e3c <__cs3_isr_dabort>

00000e40 <__cs3_isr_fiq>:
while (1);
}
void __attribute__((interrupt)) __cs3_isr_fiq(void) {
     e40:	eafffffe 	b	e40 <__cs3_isr_fiq>

00000e44 <disable_A9_interrupts>:
/*
* Turn off interrupts in the ARM processor
*/
void disable_A9_interrupts(void) {
	int status = 0b11010011;
	asm("msr cpsr, %[ps]" : : [ps] "r"(status));
     e44:	e3a030d3 	mov	r3, #211	; 0xd3
     e48:	e129f003 	msr	CPSR_fc, r3
     e4c:	e12fff1e 	bx	lr

00000e50 <set_A9_IRQ_stack>:
void set_A9_IRQ_stack(void) {
	int stack, mode;
	stack = 0xFFFFFFFF - 7; // top of A9 onchip memory, aligned to 8 bytes
	/* change processor to IRQ mode with interrupts disabled */
	mode = 0b11010010;
	asm("msr cpsr, %[ps]" : : [ps] "r"(mode));
     e50:	e3a030d2 	mov	r3, #210	; 0xd2
     e54:	e129f003 	msr	CPSR_fc, r3
	/* set banked stack pointer */
	asm("mov sp, %[ps]" : : [ps] "r"(stack));
     e58:	e3e03007 	mvn	r3, #7
     e5c:	e1a0d003 	mov	sp, r3
	/* go back to SVC mode before executing subroutine return! */
	mode = 0b11010011;
	asm("msr cpsr, %[ps]" : : [ps] "r"(mode));
     e60:	e3a030d3 	mov	r3, #211	; 0xd3
     e64:	e129f003 	msr	CPSR_fc, r3
     e68:	e12fff1e 	bx	lr

00000e6c <enable_A9_interrupts>:
/*
* Turn on interrupts in the ARM processor
*/
void enable_A9_interrupts(void) {
	int status = 0b01010011;
	asm("msr cpsr, %[ps]" : : [ps] "r"(status));
     e6c:	e3a03053 	mov	r3, #83	; 0x53
     e70:	e129f003 	msr	CPSR_fc, r3
     e74:	e12fff1e 	bx	lr

00000e78 <config_interrupt>:
/*
* Configure Set Enable Registers (ICDISERn) and Interrupt Processor Target
* Registers (ICDIPTRn). The default (reset) values are used for other registers
* in the GIC.
*/
void config_interrupt(int N, int CPU_target) {
     e78:	e52d4004 	push	{r4}		; (str r4, [sp, #-4]!)
	int reg_offset, index, value, address;
	/* Configure the Interrupt Set-Enable Registers (ICDISERn).
	* reg_offset = (integer_div(N / 32) * 4
	* value = 1 << (N mod 32) */
	reg_offset = (N >> 3) & 0xFFFFFFFC;
     e7c:	e1a031c0 	asr	r3, r0, #3
     e80:	e3c33003 	bic	r3, r3, #3
	index = N & 0x1F;
	value = 0x1 << index;
	address = 0xFFFED100 + reg_offset;
     e84:	e2433b4b 	sub	r3, r3, #76800	; 0x12c00
	int reg_offset, index, value, address;
	/* Configure the Interrupt Set-Enable Registers (ICDISERn).
	* reg_offset = (integer_div(N / 32) * 4
	* value = 1 << (N mod 32) */
	reg_offset = (N >> 3) & 0xFFFFFFFC;
	index = N & 0x1F;
     e88:	e200201f 	and	r2, r0, #31
	value = 0x1 << index;
	address = 0xFFFED100 + reg_offset;
	/* Now that we know the register address and value, set the appropriate bit */
	*(int *)address |= value;
     e8c:	e513c300 	ldr	r12, [r3, #-768]	; 0xfffffd00
     e90:	e3a04001 	mov	r4, #1
     e94:	e18c2214 	orr	r2, r12, r4, lsl r2
     e98:	e5032300 	str	r2, [r3, #-768]	; 0xfffffd00
	reg_offset = (N & 0xFFFFFFFC);
	index = N & 0x3;
	address = 0xFFFED800 + reg_offset + index;
	/* Now that we know the register address and value, write to (only) the
	* appropriate byte */
	*(char *)address = (char)CPU_target;
     e9c:	e2400b4a 	sub	r0, r0, #75776	; 0x12800
     ea0:	e5c01000 	strb	r1, [r0]
}
     ea4:	e8bd0010 	ldmfd	sp!, {r4}
     ea8:	e12fff1e 	bx	lr

00000eac <config_GIC>:
}

/*
* Configure the Generic Interrupt Controller (GIC)
*/
void config_GIC(void) {
     eac:	e92d4008 	push	{r3, lr}
	config_interrupt (73, 1); // configure the FPGA KEYs interrupt (73)
     eb0:	e3a00049 	mov	r0, #73	; 0x49
     eb4:	e3a01001 	mov	r1, #1
     eb8:	ebffffee 	bl	e78 <config_interrupt>
	// Set Interrupt Priority Mask Register (ICCPMR). Enable interrupts of all
	// priorities
	*((int *) 0xFFFEC104) = 0xFFFF;
     ebc:	e3e02a13 	mvn	r2, #77824	; 0x13000
     ec0:	e30f3fff 	movw	r3, #65535	; 0xffff
     ec4:	e5023efb 	str	r3, [r2, #-3835]	; 0xfffff105
	// Set CPU Interface Control Register (ICCICR). Enable signaling of
	// interrupts
	*((int *) 0xFFFEC100) = 1;
     ec8:	e3a03001 	mov	r3, #1
     ecc:	e5023eff 	str	r3, [r2, #-3839]	; 0xfffff101
	// Configure the Distributor Control Register (ICDDCR) to send pending
	// interrupts to CPUs
	*((int *) 0xFFFED000) = 1;
     ed0:	e3e02a12 	mvn	r2, #73728	; 0x12000
     ed4:	e5023fff 	str	r3, [r2, #-4095]	; 0xfffff001
     ed8:	e8bd8008 	pop	{r3, pc}

00000edc <pushbutton_ISR>:
	/* HEX display base address */
	volatile int * HEX3_HEX0_ptr = (int *) 0xFF200020;
	
	int press, HEX_bits;
	
	press = *(KEY_ptr + 3); // read the pushbutton interrupt register
     edc:	e3a03000 	mov	r3, #0
     ee0:	e34f3f20 	movt	r3, #65312	; 0xff20
     ee4:	e593205c 	ldr	r2, [r3, #92]	; 0x5c
	*(KEY_ptr + 3) = press; // Clear the interrupt
     ee8:	e583205c 	str	r2, [r3, #92]	; 0x5c
     eec:	e12fff1e 	bx	lr

00000ef0 <__cs3_isr_irq>:
* 3. provides code that initializes the generic interrupt controller
*/
void pushbutton_ISR(void);
void config_interrupt(int, int);
// Define the IRQ exception handler
void __attribute__((interrupt)) __cs3_isr_irq(void) {
     ef0:	e24ee004 	sub	lr, lr, #4
     ef4:	e92d500f 	push	{r0, r1, r2, r3, r12, lr}
	// Read the ICCIAR from the CPU Interface in the GIC
	int interrupt_ID = *((int *)0xFFFEC10C);
     ef8:	e3e03a13 	mvn	r3, #77824	; 0x13000
	if (interrupt_ID == 73) // check if interrupt is from the KEYs
     efc:	e5133ef3 	ldr	r3, [r3, #-3827]	; 0xfffff10d
     f00:	e3530049 	cmp	r3, #73	; 0x49
     f04:	1a000004 	bne	f1c <__cs3_isr_irq+0x2c>
		pushbutton_ISR();
     f08:	ebfffff3 	bl	edc <pushbutton_ISR>
	else
		while (1); // if unexpected, then stay here
	// Write to the End of Interrupt Register (ICCEOIR)
	*((int *)0xFFFEC110) = interrupt_ID;
     f0c:	e3a02049 	mov	r2, #73	; 0x49
     f10:	e3e03a13 	mvn	r3, #77824	; 0x13000
     f14:	e5032eef 	str	r2, [r3, #-3823]	; 0xfffff111
     f18:	e8fd900f 	ldm	sp!, {r0, r1, r2, r3, r12, pc}^
     f1c:	eafffffe 	b	f1c <__cs3_isr_irq+0x2c>

00000f20 <write_char>:
	return;
}

void write_char(int x, int y, char c) {
  // VGA character buffer
  volatile char * character_buffer = (char *) (0xC9000000 + (y<<7) + x);
     f20:	e28004c9 	add	r0, r0, #-922746880	; 0xc9000000
  *character_buffer = c;
     f24:	e7c02381 	strb	r2, [r0, r1, lsl #7]
     f28:	e12fff1e 	bx	lr

00000f2c <main>:




int main(void)
{
     f2c:	e92d45f8 	push	{r3, r4, r5, r6, r7, r8, r10, lr}
    
    disable_A9_interrupts(); // disable interrupts in the A9 processor
     f30:	ebffffc3 	bl	e44 <disable_A9_interrupts>
	set_A9_IRQ_stack(); // initialize the stack pointer for IRQ mode
     f34:	ebffffc5 	bl	e50 <set_A9_IRQ_stack>
	config_GIC(); // configure the general interrupt controller
     f38:	ebffffdb 	bl	eac <config_GIC>
	config_KEYs(); // configure pushbutton KEYs to generate interrupts
     f3c:	ebffffb5 	bl	e18 <config_KEYs>
	enable_A9_interrupts(); // enable interrupts in the A9 processor
     f40:	ebffffc9 	bl	e6c <enable_A9_interrupts>
    
    initialize();
     f44:	ebfffd36 	bl	424 <initialize>
    
    // declare other variables(not shown)
    // initialize location and direction of rectangles(not shown)
   
    /* set front pixel buffer to start of FPGA On-chip memory */
    *(pixel_ctrl_ptr + 1) = 0xC8000000; // first store the address in the 
     f48:	e30c4918 	movw	r4, #51480	; 0xc918
     f4c:	e3404004 	movt	r4, #4
     f50:	e5943000 	ldr	r3, [r4]
     f54:	e3a02332 	mov	r2, #-939524096	; 0xc8000000
     f58:	e5832004 	str	r2, [r3, #4]
                                        // back buffer
    /* now, swap the front/back buffers, to set the front buffer location */
    wait_for_vsync();
     f5c:	ebfffed0 	bl	aa4 <wait_for_vsync>
    /* initialize a pointer to the pixel buffer, used by drawing functions */
    pixel_buffer_start = *pixel_ctrl_ptr;
     f60:	e5943000 	ldr	r3, [r4]
     f64:	e5933000 	ldr	r3, [r3]
     f68:	e30c5d74 	movw	r5, #52596	; 0xcd74
     f6c:	e3405004 	movt	r5, #4
     f70:	e58530e8 	str	r3, [r5, #232]	; 0xe8
    clear_screen(); // pixel_buffer_start points to the pixel buffer
     f74:	ebfffe25 	bl	810 <clear_screen>
    /* set back pixel buffer to start of SDRAM memory */
    *(pixel_ctrl_ptr + 1) = 0xC0000000;
     f78:	e5943000 	ldr	r3, [r4]
     f7c:	e3a02103 	mov	r2, #-1073741824	; 0xc0000000
     f80:	e5832004 	str	r2, [r3, #4]
    pixel_buffer_start = *(pixel_ctrl_ptr + 1); // we draw on the back buffer
     f84:	e5933004 	ldr	r3, [r3, #4]
     f88:	e58530e8 	str	r3, [r5, #232]	; 0xe8
	clear_screen();
     f8c:	ebfffe1f 	bl	810 <clear_screen>
	
	/* SW base address */
	volatile int * SW_ptr = (int *) 0xFF200040;	
	int before = * SW_ptr;
     f90:	e3a03000 	mov	r3, #0
     f94:	e34f3f20 	movt	r3, #65312	; 0xff20
     f98:	e5935040 	ldr	r5, [r3, #64]	; 0x40
	
    
	// start screen
	int current = * SW_ptr;
     f9c:	e5933040 	ldr	r3, [r3, #64]	; 0x40
	while (current == before) {		
     fa0:	e1550003 	cmp	r5, r3
     fa4:	1a000005 	bne	fc0 <main+0x94>
		load_title();
		current = * SW_ptr;
     fa8:	e3a04000 	mov	r4, #0
     fac:	e34f4f20 	movt	r4, #65312	; 0xff20
	
    
	// start screen
	int current = * SW_ptr;
	while (current == before) {		
		load_title();
     fb0:	ebfffec8 	bl	ad8 <load_title>
		current = * SW_ptr;
     fb4:	e5943040 	ldr	r3, [r4, #64]	; 0x40
	int before = * SW_ptr;
	
    
	// start screen
	int current = * SW_ptr;
	while (current == before) {		
     fb8:	e1550003 	cmp	r5, r3
     fbc:	0afffffb 	beq	fb0 <main+0x84>
		load_title();
		current = * SW_ptr;
	}
    clear_screen();
     fc0:	ebfffe12 	bl	810 <clear_screen>
 	
    score = 0;
     fc4:	e30c3d74 	movw	r3, #52596	; 0xcd74
     fc8:	e3403004 	movt	r3, #4
     fcc:	e3a02000 	mov	r2, #0
     fd0:	e58320ec 	str	r2, [r3, #236]	; 0xec
    score2 = 0;
     fd4:	e58320f0 	str	r2, [r3, #240]	; 0xf0
        clear();

        // code for drawing the boxes and lines
        draw();
        
        write_char(3, 6, 'S');
     fd8:	e3a0a003 	mov	r10, #3
     fdc:	e3a04006 	mov	r4, #6
     fe0:	e3a06053 	mov	r6, #83	; 0x53
		write_char(4, 6, 'C');
     fe4:	e3a08004 	mov	r8, #4
		write_char(5, 6, 'O');
		write_char(6, 6, 'R');
		write_char(7, 6, 'E');
		write_char(8, 6, ':');
		write_char(9, 6, ('0'+score));
     fe8:	e1a05003 	mov	r5, r3
        checkKeyPress();
        // code for updating the locations of boxes
        update();

        wait_for_sync();                            // swap front and back buffers on VGA vertical sync
        pixel_buffer_start = *(pixel_ctrl_ptr + 1); // new back buffer
     fec:	e30c7918 	movw	r7, #51480	; 0xc918
     ff0:	e3407004 	movt	r7, #4
		before = current;
        */
        
        
                // clear_screen_partial();
        clear();
     ff4:	ebfffe2e 	bl	8b4 <clear>

        // code for drawing the boxes and lines
        draw();
     ff8:	ebffff51 	bl	d44 <draw>
        
        write_char(3, 6, 'S');
     ffc:	e1a0000a 	mov	r0, r10
    1000:	e1a01004 	mov	r1, r4
    1004:	e1a02006 	mov	r2, r6
    1008:	ebffffc4 	bl	f20 <write_char>
		write_char(4, 6, 'C');
    100c:	e1a00008 	mov	r0, r8
    1010:	e1a01004 	mov	r1, r4
    1014:	e3a02043 	mov	r2, #67	; 0x43
    1018:	ebffffc0 	bl	f20 <write_char>
		write_char(5, 6, 'O');
    101c:	e3a00005 	mov	r0, #5
    1020:	e1a01004 	mov	r1, r4
    1024:	e3a0204f 	mov	r2, #79	; 0x4f
    1028:	ebffffbc 	bl	f20 <write_char>
		write_char(6, 6, 'R');
    102c:	e1a00004 	mov	r0, r4
    1030:	e1a01004 	mov	r1, r4
    1034:	e3a02052 	mov	r2, #82	; 0x52
    1038:	ebffffb8 	bl	f20 <write_char>
		write_char(7, 6, 'E');
    103c:	e3a00007 	mov	r0, #7
    1040:	e1a01004 	mov	r1, r4
    1044:	e3a02045 	mov	r2, #69	; 0x45
    1048:	ebffffb4 	bl	f20 <write_char>
		write_char(8, 6, ':');
    104c:	e3a00008 	mov	r0, #8
    1050:	e1a01004 	mov	r1, r4
    1054:	e3a0203a 	mov	r2, #58	; 0x3a
    1058:	ebffffb0 	bl	f20 <write_char>
		write_char(9, 6, ('0'+score));
    105c:	e59520ec 	ldr	r2, [r5, #236]	; 0xec
    1060:	e2822030 	add	r2, r2, #48	; 0x30
    1064:	e3a00009 	mov	r0, #9
    1068:	e1a01004 	mov	r1, r4
    106c:	e6ef2072 	uxtb	r2, r2
    1070:	ebffffaa 	bl	f20 <write_char>
        
        write_char(63, 6, 'S');
    1074:	e3a0003f 	mov	r0, #63	; 0x3f
    1078:	e1a01004 	mov	r1, r4
    107c:	e1a02006 	mov	r2, r6
    1080:	ebffffa6 	bl	f20 <write_char>
		write_char(64, 6, 'C');
    1084:	e3a00040 	mov	r0, #64	; 0x40
    1088:	e1a01004 	mov	r1, r4
    108c:	e3a02043 	mov	r2, #67	; 0x43
    1090:	ebffffa2 	bl	f20 <write_char>
		write_char(65, 6, 'O');
    1094:	e3a00041 	mov	r0, #65	; 0x41
    1098:	e1a01004 	mov	r1, r4
    109c:	e3a0204f 	mov	r2, #79	; 0x4f
    10a0:	ebffff9e 	bl	f20 <write_char>
		write_char(66, 6, 'R');
    10a4:	e3a00042 	mov	r0, #66	; 0x42
    10a8:	e1a01004 	mov	r1, r4
    10ac:	e3a02052 	mov	r2, #82	; 0x52
    10b0:	ebffff9a 	bl	f20 <write_char>
		write_char(67, 6, 'E');
    10b4:	e3a00043 	mov	r0, #67	; 0x43
    10b8:	e1a01004 	mov	r1, r4
    10bc:	e3a02045 	mov	r2, #69	; 0x45
    10c0:	ebffff96 	bl	f20 <write_char>
		write_char(68, 6, ':');
    10c4:	e3a00044 	mov	r0, #68	; 0x44
    10c8:	e1a01004 	mov	r1, r4
    10cc:	e3a0203a 	mov	r2, #58	; 0x3a
    10d0:	ebffff92 	bl	f20 <write_char>
		write_char(69, 6, ('0'+score2));
    10d4:	e59520f0 	ldr	r2, [r5, #240]	; 0xf0
    10d8:	e2822030 	add	r2, r2, #48	; 0x30
    10dc:	e3a00045 	mov	r0, #69	; 0x45
    10e0:	e1a01004 	mov	r1, r4
    10e4:	e6ef2072 	uxtb	r2, r2
    10e8:	ebffff8c 	bl	f20 <write_char>

        checkKeyPress();
    10ec:	ebfffc5a 	bl	25c <checkKeyPress>
        // code for updating the locations of boxes
        update();
    10f0:	ebfffd12 	bl	540 <update>

        wait_for_sync();                            // swap front and back buffers on VGA vertical sync
    10f4:	ebfffe5d 	bl	a70 <wait_for_sync>
        pixel_buffer_start = *(pixel_ctrl_ptr + 1); // new back buffer
    10f8:	e5973000 	ldr	r3, [r7]
    10fc:	e5933004 	ldr	r3, [r3, #4]
    1100:	e58530e8 	str	r3, [r5, #232]	; 0xe8
    1104:	eaffffba 	b	ff4 <main+0xc8>

00001108 <atexit>:
    1108:	e1a01000 	mov	r1, r0
    110c:	e3a00000 	mov	r0, #0
    1110:	e92d4008 	push	{r3, lr}
    1114:	e1a02000 	mov	r2, r0
    1118:	e1a03000 	mov	r3, r0
    111c:	eb00002c 	bl	11d4 <__register_exitproc>
    1120:	e8bd4008 	pop	{r3, lr}
    1124:	e12fff1e 	bx	lr

00001128 <exit>:
    1128:	e92d4008 	push	{r3, lr}
    112c:	e3a01000 	mov	r1, #0
    1130:	e1a04000 	mov	r4, r0
    1134:	eb000063 	bl	12c8 <__call_exitprocs>
    1138:	e59f3018 	ldr	r3, [pc, #24]	; 1158 <exit+0x30>
    113c:	e5930000 	ldr	r0, [r3]
    1140:	e590303c 	ldr	r3, [r0, #60]	; 0x3c
    1144:	e3530000 	cmp	r3, #0
    1148:	11a0e00f 	movne	lr, pc
    114c:	112fff13 	bxne	r3
    1150:	e1a00004 	mov	r0, r4
    1154:	eb0000e7 	bl	14f8 <_exit>
    1158:	0004c8b8 	.word	0x0004c8b8

0000115c <srand>:
    115c:	e59f3010 	ldr	r3, [pc, #16]	; 1174 <srand+0x18>
    1160:	e5933000 	ldr	r3, [r3]
    1164:	e3a02000 	mov	r2, #0
    1168:	e58300a8 	str	r0, [r3, #168]	; 0xa8
    116c:	e58320ac 	str	r2, [r3, #172]	; 0xac
    1170:	e12fff1e 	bx	lr
    1174:	0004c920 	.word	0x0004c920

00001178 <rand>:
    1178:	e52d4004 	push	{r4}		; (str r4, [sp, #-4]!)
    117c:	e59f3044 	ldr	r3, [pc, #68]	; 11c8 <rand+0x50>
    1180:	e593c000 	ldr	r12, [r3]
    1184:	e59f4040 	ldr	r4, [pc, #64]	; 11cc <rand+0x54>
    1188:	e59c20a8 	ldr	r2, [r12, #168]	; 0xa8
    118c:	e0040492 	mul	r4, r2, r4
    1190:	e59c10ac 	ldr	r1, [r12, #172]	; 0xac
    1194:	e59f3034 	ldr	r3, [pc, #52]	; 11d0 <rand+0x58>
    1198:	e0244193 	mla	r4, r3, r1, r4
    119c:	e0810392 	umull	r0, r1, r2, r3
    11a0:	e3a02001 	mov	r2, #1
    11a4:	e0922000 	adds	r2, r2, r0
    11a8:	e0841001 	add	r1, r4, r1
    11ac:	e3a03000 	mov	r3, #0
    11b0:	e0a33001 	adc	r3, r3, r1
    11b4:	e58c20a8 	str	r2, [r12, #168]	; 0xa8
    11b8:	e58c30ac 	str	r3, [r12, #172]	; 0xac
    11bc:	e3c30102 	bic	r0, r3, #-2147483648	; 0x80000000
    11c0:	e8bd0010 	ldmfd	sp!, {r4}
    11c4:	e12fff1e 	bx	lr
    11c8:	0004c920 	.word	0x0004c920
    11cc:	5851f42d 	.word	0x5851f42d
    11d0:	4c957f2d 	.word	0x4c957f2d

000011d4 <__register_exitproc>:
    11d4:	e59fc0e4 	ldr	r12, [pc, #228]	; 12c0 <__register_exitproc+0xec>
    11d8:	e92d41f0 	push	{r4, r5, r6, r7, r8, lr}
    11dc:	e59c4000 	ldr	r4, [r12]
    11e0:	e594c148 	ldr	r12, [r4, #328]	; 0x148
    11e4:	e35c0000 	cmp	r12, #0
    11e8:	0284cf53 	addeq	r12, r4, #332	; 0x14c
    11ec:	e59c5004 	ldr	r5, [r12, #4]
    11f0:	0584c148 	streq	r12, [r4, #328]	; 0x148
    11f4:	e355001f 	cmp	r5, #31
    11f8:	e24dd010 	sub	sp, sp, #16
    11fc:	e1a06000 	mov	r6, r0
    1200:	da000015 	ble	125c <__register_exitproc+0x88>
    1204:	e59f00b8 	ldr	r0, [pc, #184]	; 12c4 <__register_exitproc+0xf0>
    1208:	e3500000 	cmp	r0, #0
    120c:	1a000001 	bne	1218 <__register_exitproc+0x44>
    1210:	e3e00000 	mvn	r0, #0
    1214:	ea000018 	b	127c <__register_exitproc+0xa8>
    1218:	e3a00e19 	mov	r0, #400	; 0x190
    121c:	e58d100c 	str	r1, [sp, #12]
    1220:	e58d2008 	str	r2, [sp, #8]
    1224:	e58d3004 	str	r3, [sp, #4]
    1228:	e320f000 	nop	{0}
    122c:	e250c000 	subs	r12, r0, #0
    1230:	e59d100c 	ldr	r1, [sp, #12]
    1234:	e59d2008 	ldr	r2, [sp, #8]
    1238:	e59d3004 	ldr	r3, [sp, #4]
    123c:	0afffff3 	beq	1210 <__register_exitproc+0x3c>
    1240:	e5945148 	ldr	r5, [r4, #328]	; 0x148
    1244:	e3a00000 	mov	r0, #0
    1248:	e58c0004 	str	r0, [r12, #4]
    124c:	e58c5000 	str	r5, [r12]
    1250:	e584c148 	str	r12, [r4, #328]	; 0x148
    1254:	e58c0188 	str	r0, [r12, #392]	; 0x188
    1258:	e58c018c 	str	r0, [r12, #396]	; 0x18c
    125c:	e3560000 	cmp	r6, #0
    1260:	e59c4004 	ldr	r4, [r12, #4]
    1264:	1a000007 	bne	1288 <__register_exitproc+0xb4>
    1268:	e2843002 	add	r3, r4, #2
    126c:	e2844001 	add	r4, r4, #1
    1270:	e78c1103 	str	r1, [r12, r3, lsl #2]
    1274:	e58c4004 	str	r4, [r12, #4]
    1278:	e3a00000 	mov	r0, #0
    127c:	e28dd010 	add	sp, sp, #16
    1280:	e8bd41f0 	pop	{r4, r5, r6, r7, r8, lr}
    1284:	e12fff1e 	bx	lr
    1288:	e3a00001 	mov	r0, #1
    128c:	e1a00410 	lsl	r0, r0, r4
    1290:	e08c8104 	add	r8, r12, r4, lsl #2
    1294:	e3560002 	cmp	r6, #2
    1298:	e59c7188 	ldr	r7, [r12, #392]	; 0x188
    129c:	e5883108 	str	r3, [r8, #264]	; 0x108
    12a0:	059c318c 	ldreq	r3, [r12, #396]	; 0x18c
    12a4:	e1877000 	orr	r7, r7, r0
    12a8:	01830000 	orreq	r0, r3, r0
    12ac:	e1a05008 	mov	r5, r8
    12b0:	e5882088 	str	r2, [r8, #136]	; 0x88
    12b4:	e58c7188 	str	r7, [r12, #392]	; 0x188
    12b8:	058c018c 	streq	r0, [r12, #396]	; 0x18c
    12bc:	eaffffe9 	b	1268 <__register_exitproc+0x94>
    12c0:	0004c8b8 	.word	0x0004c8b8
    12c4:	00000000 	.word	0x00000000

000012c8 <__call_exitprocs>:
    12c8:	e92d4ff0 	push	{r4, r5, r6, r7, r8, r9, r10, r11, lr}
    12cc:	e59f3168 	ldr	r3, [pc, #360]	; 143c <__call_exitprocs+0x174>
    12d0:	e5933000 	ldr	r3, [r3]
    12d4:	e24dd014 	sub	sp, sp, #20
    12d8:	e58d3004 	str	r3, [sp, #4]
    12dc:	e2833f52 	add	r3, r3, #328	; 0x148
    12e0:	e58d0008 	str	r0, [sp, #8]
    12e4:	e58d300c 	str	r3, [sp, #12]
    12e8:	e1a07001 	mov	r7, r1
    12ec:	e3a08001 	mov	r8, #1
    12f0:	e59d3004 	ldr	r3, [sp, #4]
    12f4:	e5936148 	ldr	r6, [r3, #328]	; 0x148
    12f8:	e3560000 	cmp	r6, #0
    12fc:	e59db00c 	ldr	r11, [sp, #12]
    1300:	0a000033 	beq	13d4 <__call_exitprocs+0x10c>
    1304:	e5965004 	ldr	r5, [r6, #4]
    1308:	e2554001 	subs	r4, r5, #1
    130c:	5286a088 	addpl	r10, r6, #136	; 0x88
    1310:	5285501f 	addpl	r5, r5, #31
    1314:	508a5105 	addpl	r5, r10, r5, lsl #2
    1318:	5a000007 	bpl	133c <__call_exitprocs+0x74>
    131c:	ea000029 	b	13c8 <__call_exitprocs+0x100>
    1320:	e5953000 	ldr	r3, [r5]
    1324:	e1530007 	cmp	r3, r7
    1328:	0a000005 	beq	1344 <__call_exitprocs+0x7c>
    132c:	e2444001 	sub	r4, r4, #1
    1330:	e3740001 	cmn	r4, #1
    1334:	e2455004 	sub	r5, r5, #4
    1338:	0a000022 	beq	13c8 <__call_exitprocs+0x100>
    133c:	e3570000 	cmp	r7, #0
    1340:	1afffff6 	bne	1320 <__call_exitprocs+0x58>
    1344:	e5963004 	ldr	r3, [r6, #4]
    1348:	e06a2005 	rsb	r2, r10, r5
    134c:	e2433001 	sub	r3, r3, #1
    1350:	e0862002 	add	r2, r6, r2
    1354:	e1530004 	cmp	r3, r4
    1358:	e5123078 	ldr	r3, [r2, #-120]	; 0xffffff88
    135c:	13a01000 	movne	r1, #0
    1360:	05864004 	streq	r4, [r6, #4]
    1364:	15021078 	strne	r1, [r2, #-120]	; 0xffffff88
    1368:	e3530000 	cmp	r3, #0
    136c:	0affffee 	beq	132c <__call_exitprocs+0x64>
    1370:	e1a02418 	lsl	r2, r8, r4
    1374:	e5961188 	ldr	r1, [r6, #392]	; 0x188
    1378:	e1120001 	tst	r2, r1
    137c:	e5969004 	ldr	r9, [r6, #4]
    1380:	0a000016 	beq	13e0 <__call_exitprocs+0x118>
    1384:	e596118c 	ldr	r1, [r6, #396]	; 0x18c
    1388:	e1120001 	tst	r2, r1
    138c:	1a000016 	bne	13ec <__call_exitprocs+0x124>
    1390:	e59d0008 	ldr	r0, [sp, #8]
    1394:	e5151080 	ldr	r1, [r5, #-128]	; 0xffffff80
    1398:	e1a0e00f 	mov	lr, pc
    139c:	e12fff13 	bx	r3
    13a0:	e5963004 	ldr	r3, [r6, #4]
    13a4:	e1530009 	cmp	r3, r9
    13a8:	1affffd0 	bne	12f0 <__call_exitprocs+0x28>
    13ac:	e59b3000 	ldr	r3, [r11]
    13b0:	e1530006 	cmp	r3, r6
    13b4:	1affffcd 	bne	12f0 <__call_exitprocs+0x28>
    13b8:	e2444001 	sub	r4, r4, #1
    13bc:	e3740001 	cmn	r4, #1
    13c0:	e2455004 	sub	r5, r5, #4
    13c4:	1affffdc 	bne	133c <__call_exitprocs+0x74>
    13c8:	e59f1070 	ldr	r1, [pc, #112]	; 1440 <__call_exitprocs+0x178>
    13cc:	e3510000 	cmp	r1, #0
    13d0:	1a000009 	bne	13fc <__call_exitprocs+0x134>
    13d4:	e28dd014 	add	sp, sp, #20
    13d8:	e8bd4ff0 	pop	{r4, r5, r6, r7, r8, r9, r10, r11, lr}
    13dc:	e12fff1e 	bx	lr
    13e0:	e1a0e00f 	mov	lr, pc
    13e4:	e12fff13 	bx	r3
    13e8:	eaffffec 	b	13a0 <__call_exitprocs+0xd8>
    13ec:	e5150080 	ldr	r0, [r5, #-128]	; 0xffffff80
    13f0:	e1a0e00f 	mov	lr, pc
    13f4:	e12fff13 	bx	r3
    13f8:	eaffffe8 	b	13a0 <__call_exitprocs+0xd8>
    13fc:	e5963004 	ldr	r3, [r6, #4]
    1400:	e3530000 	cmp	r3, #0
    1404:	e5963000 	ldr	r3, [r6]
    1408:	1a000008 	bne	1430 <__call_exitprocs+0x168>
    140c:	e3530000 	cmp	r3, #0
    1410:	0a000006 	beq	1430 <__call_exitprocs+0x168>
    1414:	e1a00006 	mov	r0, r6
    1418:	e58b3000 	str	r3, [r11]
    141c:	e320f000 	nop	{0}
    1420:	e59b6000 	ldr	r6, [r11]
    1424:	e3560000 	cmp	r6, #0
    1428:	1affffb5 	bne	1304 <__call_exitprocs+0x3c>
    142c:	eaffffe8 	b	13d4 <__call_exitprocs+0x10c>
    1430:	e1a0b006 	mov	r11, r6
    1434:	e1a06003 	mov	r6, r3
    1438:	eafffff9 	b	1424 <__call_exitprocs+0x15c>
    143c:	0004c8b8 	.word	0x0004c8b8
    1440:	00000000 	.word	0x00000000

00001444 <register_fini>:
    1444:	e92d4008 	push	{r3, lr}
    1448:	e59f3010 	ldr	r3, [pc, #16]	; 1460 <register_fini+0x1c>
    144c:	e3530000 	cmp	r3, #0
    1450:	159f000c 	ldrne	r0, [pc, #12]	; 1464 <register_fini+0x20>
    1454:	1bffff2b 	blne	1108 <atexit>
    1458:	e8bd4008 	pop	{r3, lr}
    145c:	e12fff1e 	bx	lr
    1460:	0004c8e0 	.word	0x0004c8e0
    1464:	00001468 	.word	0x00001468

00001468 <__libc_fini_array>:
    1468:	e92d4038 	push	{r3, r4, r5, lr}
    146c:	e59f5030 	ldr	r5, [pc, #48]	; 14a4 <__libc_fini_array+0x3c>
    1470:	e59f4030 	ldr	r4, [pc, #48]	; 14a8 <__libc_fini_array+0x40>
    1474:	e0654004 	rsb	r4, r5, r4
    1478:	e1b04144 	asrs	r4, r4, #2
    147c:	10855104 	addne	r5, r5, r4, lsl #2
    1480:	0a000004 	beq	1498 <__libc_fini_array+0x30>
    1484:	e5353004 	ldr	r3, [r5, #-4]!
    1488:	e1a0e00f 	mov	lr, pc
    148c:	e12fff13 	bx	r3
    1490:	e2544001 	subs	r4, r4, #1
    1494:	1afffffa 	bne	1484 <__libc_fini_array+0x1c>
    1498:	eb012d10 	bl	4c8e0 <__libc_fini>
    149c:	e8bd4038 	pop	{r3, r4, r5, lr}
    14a0:	e12fff1e 	bx	lr
    14a4:	0004c8f8 	.word	0x0004c8f8
    14a8:	0004c8fc 	.word	0x0004c8fc

000014ac <__cs3_premain>:
    14ac:	e92d4008 	push	{r3, lr}
    14b0:	eb000017 	bl	1514 <__libc_init_array>
    14b4:	e59f3030 	ldr	r3, [pc, #48]	; 14ec <__cs3_premain+0x40>
    14b8:	e3530000 	cmp	r3, #0
    14bc:	15930000 	ldrne	r0, [r3]
    14c0:	01a00003 	moveq	r0, r3
    14c4:	e59f3024 	ldr	r3, [pc, #36]	; 14f0 <__cs3_premain+0x44>
    14c8:	e3530000 	cmp	r3, #0
    14cc:	15931000 	ldrne	r1, [r3]
    14d0:	01a01003 	moveq	r1, r3
    14d4:	e3a02000 	mov	r2, #0
    14d8:	ebfffe93 	bl	f2c <main>
    14dc:	e59f3010 	ldr	r3, [pc, #16]	; 14f4 <__cs3_premain+0x48>
    14e0:	e3530000 	cmp	r3, #0
    14e4:	1bffff0f 	blne	1128 <exit>
    14e8:	eafffffe 	b	14e8 <__cs3_premain+0x3c>
	...
    14f4:	00001128 	.word	0x00001128

000014f8 <_exit>:
    14f8:	e52de004 	push	{lr}		; (str lr, [sp, #-4]!)
    14fc:	e3a00018 	mov	r0, #24
    1500:	e59f1004 	ldr	r1, [pc, #4]	; 150c <_exit+0x14>
    1504:	ef123456 	svc	0x00123456
    1508:	eafffffe 	b	1508 <_exit+0x10>
    150c:	00020026 	.word	0x00020026

00001510 <__cs3_isr_interrupt>:
    1510:	eafffffe 	b	1510 <__cs3_isr_interrupt>

00001514 <__libc_init_array>:
    1514:	e92d4070 	push	{r4, r5, r6, lr}
    1518:	e59f506c 	ldr	r5, [pc, #108]	; 158c <__libc_init_array+0x78>
    151c:	e59f606c 	ldr	r6, [pc, #108]	; 1590 <__libc_init_array+0x7c>
    1520:	e0656006 	rsb	r6, r5, r6
    1524:	e1b06146 	asrs	r6, r6, #2
    1528:	12455004 	subne	r5, r5, #4
    152c:	13a04000 	movne	r4, #0
    1530:	0a000005 	beq	154c <__libc_init_array+0x38>
    1534:	e5b53004 	ldr	r3, [r5, #4]!
    1538:	e2844001 	add	r4, r4, #1
    153c:	e1a0e00f 	mov	lr, pc
    1540:	e12fff13 	bx	r3
    1544:	e1560004 	cmp	r6, r4
    1548:	1afffff9 	bne	1534 <__libc_init_array+0x20>
    154c:	e59f5040 	ldr	r5, [pc, #64]	; 1594 <__libc_init_array+0x80>
    1550:	e59f6040 	ldr	r6, [pc, #64]	; 1598 <__libc_init_array+0x84>
    1554:	e0656006 	rsb	r6, r5, r6
    1558:	eb012cd8 	bl	4c8c0 <_init>
    155c:	e1b06146 	asrs	r6, r6, #2
    1560:	12455004 	subne	r5, r5, #4
    1564:	13a04000 	movne	r4, #0
    1568:	0a000005 	beq	1584 <__libc_init_array+0x70>
    156c:	e5b53004 	ldr	r3, [r5, #4]!
    1570:	e2844001 	add	r4, r4, #1
    1574:	e1a0e00f 	mov	lr, pc
    1578:	e12fff13 	bx	r3
    157c:	e1560004 	cmp	r6, r4
    1580:	1afffff9 	bne	156c <__libc_init_array+0x58>
    1584:	e8bd4070 	pop	{r4, r5, r6, lr}
    1588:	e12fff1e 	bx	lr
    158c:	0004c8d8 	.word	0x0004c8d8
    1590:	0004c8d8 	.word	0x0004c8d8
    1594:	0004c8d8 	.word	0x0004c8d8
    1598:	0004c8e0 	.word	0x0004c8e0
